---
triple:          'arm64-apple-darwin'
binary-path:     './reading-from-file'
relocations:
  - { offsetInCU: 0xDF, offset: 0xDF, size: 0x8, addend: 0x0, symName: __ZnwmPv, symObjAddr: 0x0, symBinAddr: 0x100003310, symSize: 0x18 }
  - { offsetInCU: 0x675E, offset: 0x675E, size: 0x8, addend: 0x0, symName: __ZStL8__ioinit, symObjAddr: 0x5E7A8, symBinAddr: 0x100018438, symSize: 0x0 }
  - { offsetInCU: 0x69A4, offset: 0x69A4, size: 0x8, addend: 0x0, symName: __ZN9__gnu_cxxL21__default_lock_policyE, symObjAddr: 0x4A5C, symBinAddr: 0x10000D740, symSize: 0x0 }
  - { offsetInCU: 0x6B3C, offset: 0x6B3C, size: 0x8, addend: 0x0, symName: __ZN6__pstl9execution2v1L3seqE, symObjAddr: 0x4A60, symBinAddr: 0x10000D744, symSize: 0x0 }
  - { offsetInCU: 0x6B56, offset: 0x6B56, size: 0x8, addend: 0x0, symName: __ZN6__pstl9execution2v1L3parE, symObjAddr: 0x4A61, symBinAddr: 0x10000D745, symSize: 0x0 }
  - { offsetInCU: 0x6B76, offset: 0x6B76, size: 0x8, addend: 0x0, symName: __ZN6__pstl9execution2v1L9par_unseqE, symObjAddr: 0x4A62, symBinAddr: 0x10000D746, symSize: 0x0 }
  - { offsetInCU: 0x6B8C, offset: 0x6B8C, size: 0x8, addend: 0x0, symName: __ZN6__pstl9execution2v1L5unseqE, symObjAddr: 0x4A63, symBinAddr: 0x10000D747, symSize: 0x0 }
  - { offsetInCU: 0x102DC, offset: 0x102DC, size: 0x8, addend: 0x0, symName: __GLOBAL__sub_I_reading_from_file.cpp, symObjAddr: 0x4984, symBinAddr: 0x100007C94, symSize: 0x1C }
  - { offsetInCU: 0x102FB, offset: 0x102FB, size: 0x8, addend: 0x0, symName: __Z41__static_initialization_and_destruction_0ii, symObjAddr: 0x4924, symBinAddr: 0x100007C34, symSize: 0x60 }
  - { offsetInCU: 0x10303, offset: 0x10303, size: 0x8, addend: 0x0, symName: __GLOBAL__sub_I_reading_from_file.cpp, symObjAddr: 0x4984, symBinAddr: 0x100007C94, symSize: 0x1C }
  - { offsetInCU: 0x10314, offset: 0x10314, size: 0x8, addend: 0x0, symName: __ZN9__gnu_cxx13new_allocatorINSt7__cxx1112basic_stringIcSt11char_traitsIcESaIcEEEE9constructIS6_JS6_EEEvPT_DpOT0_, symObjAddr: 0x48D8, symBinAddr: 0x100007BE8, symSize: 0x4C }
  - { offsetInCU: 0x1031C, offset: 0x1031C, size: 0x8, addend: 0x0, symName: __Z41__static_initialization_and_destruction_0ii, symObjAddr: 0x4924, symBinAddr: 0x100007C34, symSize: 0x60 }
  - { offsetInCU: 0x10419, offset: 0x10419, size: 0x8, addend: 0x0, symName: __ZSt7forwardINSt7__cxx1112basic_stringIcSt11char_traitsIcESaIcEEEEOT_RNSt16remove_referenceIS6_E4typeE, symObjAddr: 0x48C4, symBinAddr: 0x100007BD4, symSize: 0x14 }
  - { offsetInCU: 0x10421, offset: 0x10421, size: 0x8, addend: 0x0, symName: __ZN9__gnu_cxx13new_allocatorINSt7__cxx1112basic_stringIcSt11char_traitsIcESaIcEEEE9constructIS6_JS6_EEEvPT_DpOT0_, symObjAddr: 0x48D8, symBinAddr: 0x100007BE8, symSize: 0x4C }
  - { offsetInCU: 0x104CE, offset: 0x104CE, size: 0x8, addend: 0x0, symName: __ZSt19__relocate_object_aISt10unique_ptrI15LiteratureEntrySt14default_deleteIS1_EES4_SaIS4_EEvPT_PT0_RT1_, symObjAddr: 0x4878, symBinAddr: 0x100007B88, symSize: 0x4C }
  - { offsetInCU: 0x104D6, offset: 0x104D6, size: 0x8, addend: 0x0, symName: __ZSt7forwardINSt7__cxx1112basic_stringIcSt11char_traitsIcESaIcEEEEOT_RNSt16remove_referenceIS6_E4typeE, symObjAddr: 0x48C4, symBinAddr: 0x100007BD4, symSize: 0x14 }
  - { offsetInCU: 0x1045D, offset: 0x1045D, size: 0x8, addend: 0x0, symName: __ZNK9__gnu_cxx13new_allocatorISt10unique_ptrI15LiteratureEntrySt14default_deleteIS2_EEE8max_sizeEv, symObjAddr: 0x485C, symBinAddr: 0x100007B6C, symSize: 0x1C }
  - { offsetInCU: 0x10465, offset: 0x10465, size: 0x8, addend: 0x0, symName: __ZSt19__relocate_object_aISt10unique_ptrI15LiteratureEntrySt14default_deleteIS1_EES4_SaIS4_EEvPT_PT0_RT1_, symObjAddr: 0x4878, symBinAddr: 0x100007B88, symSize: 0x4C }
  - { offsetInCU: 0x1048C, offset: 0x1048C, size: 0x8, addend: 0x0, symName: __ZNSt16allocator_traitsISaINSt7__cxx1112basic_stringIcSt11char_traitsIcESaIcEEEEE9constructIS5_JS5_EEEvRS6_PT_DpOT0_, symObjAddr: 0x4824, symBinAddr: 0x100007B34, symSize: 0x38 }
  - { offsetInCU: 0x10494, offset: 0x10494, size: 0x8, addend: 0x0, symName: __ZNK9__gnu_cxx13new_allocatorISt10unique_ptrI15LiteratureEntrySt14default_deleteIS2_EEE8max_sizeEv, symObjAddr: 0x485C, symBinAddr: 0x100007B6C, symSize: 0x1C }
  - { offsetInCU: 0x10500, offset: 0x10500, size: 0x8, addend: 0x0, symName: __ZNSt10_Head_baseILm0EP15LiteratureEntryLb0EE7_M_headERKS2_, symObjAddr: 0x4810, symBinAddr: 0x100007B20, symSize: 0x14 }
  - { offsetInCU: 0x10508, offset: 0x10508, size: 0x8, addend: 0x0, symName: __ZNSt16allocator_traitsISaINSt7__cxx1112basic_stringIcSt11char_traitsIcESaIcEEEEE9constructIS5_JS5_EEEvRS6_PT_DpOT0_, symObjAddr: 0x4824, symBinAddr: 0x100007B34, symSize: 0x38 }
  - { offsetInCU: 0x1059E, offset: 0x1059E, size: 0x8, addend: 0x0, symName: __ZNSt14default_deleteI15LiteratureEntryEC1I6ThesisvEERKS_IT_E, symObjAddr: 0x47F8, symBinAddr: 0x100007B08, symSize: 0x18 }
  - { offsetInCU: 0x105A6, offset: 0x105A6, size: 0x8, addend: 0x0, symName: __ZNSt10_Head_baseILm0EP15LiteratureEntryLb0EE7_M_headERKS2_, symObjAddr: 0x4810, symBinAddr: 0x100007B20, symSize: 0x14 }
  - { offsetInCU: 0x105A7, offset: 0x105A7, size: 0x8, addend: 0x0, symName: __ZNSt10_Head_baseILm1ESt14default_deleteI6ThesisELb1EE7_M_headERS3_, symObjAddr: 0x47E4, symBinAddr: 0x100007AF4, symSize: 0x14 }
  - { offsetInCU: 0x105AF, offset: 0x105AF, size: 0x8, addend: 0x0, symName: __ZNSt14default_deleteI15LiteratureEntryEC1I6ThesisvEERKS_IT_E, symObjAddr: 0x47F8, symBinAddr: 0x100007B08, symSize: 0x18 }
  - { offsetInCU: 0x1062C, offset: 0x1062C, size: 0x8, addend: 0x0, symName: __ZNSt10_Head_baseILm1ESt14default_deleteI6ThesisELb1EEC2Ev, symObjAddr: 0x47D0, symBinAddr: 0x100007AE0, symSize: 0x14 }
  - { offsetInCU: 0x10634, offset: 0x10634, size: 0x8, addend: 0x0, symName: __ZNSt10_Head_baseILm1ESt14default_deleteI6ThesisELb1EE7_M_headERS3_, symObjAddr: 0x47E4, symBinAddr: 0x100007AF4, symSize: 0x14 }
  - { offsetInCU: 0x1068D, offset: 0x1068D, size: 0x8, addend: 0x0, symName: __ZNSt14default_deleteI15LiteratureEntryEC1I7JournalvEERKS_IT_E, symObjAddr: 0x47B8, symBinAddr: 0x100007AC8, symSize: 0x18 }
  - { offsetInCU: 0x10695, offset: 0x10695, size: 0x8, addend: 0x0, symName: __ZNSt10_Head_baseILm1ESt14default_deleteI6ThesisELb1EEC2Ev, symObjAddr: 0x47D0, symBinAddr: 0x100007AE0, symSize: 0x14 }
  - { offsetInCU: 0x10695, offset: 0x10695, size: 0x8, addend: 0x0, symName: __ZNSt10_Head_baseILm1ESt14default_deleteI7JournalELb1EE7_M_headERS3_, symObjAddr: 0x47A4, symBinAddr: 0x100007AB4, symSize: 0x14 }
  - { offsetInCU: 0x1069D, offset: 0x1069D, size: 0x8, addend: 0x0, symName: __ZNSt14default_deleteI15LiteratureEntryEC1I7JournalvEERKS_IT_E, symObjAddr: 0x47B8, symBinAddr: 0x100007AC8, symSize: 0x18 }
  - { offsetInCU: 0x1071B, offset: 0x1071B, size: 0x8, addend: 0x0, symName: __ZNSt10_Head_baseILm1ESt14default_deleteI7JournalELb1EEC2Ev, symObjAddr: 0x4790, symBinAddr: 0x100007AA0, symSize: 0x14 }
  - { offsetInCU: 0x10723, offset: 0x10723, size: 0x8, addend: 0x0, symName: __ZNSt10_Head_baseILm1ESt14default_deleteI7JournalELb1EE7_M_headERS3_, symObjAddr: 0x47A4, symBinAddr: 0x100007AB4, symSize: 0x14 }
  - { offsetInCU: 0x10804, offset: 0x10804, size: 0x8, addend: 0x0, symName: __ZSt14__relocate_a_1IPSt10unique_ptrI15LiteratureEntrySt14default_deleteIS1_EES5_SaIS4_EET0_T_S8_S7_RT1_, symObjAddr: 0x470C, symBinAddr: 0x100007A1C, symSize: 0x84 }
  - { offsetInCU: 0x1080C, offset: 0x1080C, size: 0x8, addend: 0x0, symName: __ZNSt10_Head_baseILm1ESt14default_deleteI7JournalELb1EEC2Ev, symObjAddr: 0x4790, symBinAddr: 0x100007AA0, symSize: 0x14 }
  - { offsetInCU: 0x1084B, offset: 0x1084B, size: 0x8, addend: 0x0, symName: __ZSt12__niter_baseIPSt10unique_ptrI15LiteratureEntrySt14default_deleteIS1_EEET_S6_, symObjAddr: 0x46F8, symBinAddr: 0x100007A08, symSize: 0x14 }
  - { offsetInCU: 0x10853, offset: 0x10853, size: 0x8, addend: 0x0, symName: __ZSt14__relocate_a_1IPSt10unique_ptrI15LiteratureEntrySt14default_deleteIS1_EES5_SaIS4_EET0_T_S8_S7_RT1_, symObjAddr: 0x470C, symBinAddr: 0x100007A1C, symSize: 0x84 }
  - { offsetInCU: 0x1080F, offset: 0x1080F, size: 0x8, addend: 0x0, symName: __ZNSt16allocator_traitsISaISt10unique_ptrI15LiteratureEntrySt14default_deleteIS1_EEEE8max_sizeERKS5_, symObjAddr: 0x46DC, symBinAddr: 0x1000079EC, symSize: 0x1C }
  - { offsetInCU: 0x10817, offset: 0x10817, size: 0x8, addend: 0x0, symName: __ZSt12__niter_baseIPSt10unique_ptrI15LiteratureEntrySt14default_deleteIS1_EEET_S6_, symObjAddr: 0x46F8, symBinAddr: 0x100007A08, symSize: 0x14 }
  - { offsetInCU: 0x10841, offset: 0x10841, size: 0x8, addend: 0x0, symName: __ZNSt10_Head_baseILm1ESt14default_deleteI15LiteratureEntryELb1EE7_M_headERS3_, symObjAddr: 0x46C8, symBinAddr: 0x1000079D8, symSize: 0x14 }
  - { offsetInCU: 0x10849, offset: 0x10849, size: 0x8, addend: 0x0, symName: __ZNSt16allocator_traitsISaISt10unique_ptrI15LiteratureEntrySt14default_deleteIS1_EEEE8max_sizeERKS5_, symObjAddr: 0x46DC, symBinAddr: 0x1000079EC, symSize: 0x1C }
  - { offsetInCU: 0x108DD, offset: 0x108DD, size: 0x8, addend: 0x0, symName: __ZNSt14default_deleteI15LiteratureEntryEC1I4BookvEERKS_IT_E, symObjAddr: 0x46B0, symBinAddr: 0x1000079C0, symSize: 0x18 }
  - { offsetInCU: 0x108E5, offset: 0x108E5, size: 0x8, addend: 0x0, symName: __ZNSt10_Head_baseILm1ESt14default_deleteI15LiteratureEntryELb1EE7_M_headERS3_, symObjAddr: 0x46C8, symBinAddr: 0x1000079D8, symSize: 0x14 }
  - { offsetInCU: 0x108E8, offset: 0x108E8, size: 0x8, addend: 0x0, symName: __ZNSt10_Head_baseILm1ESt14default_deleteI4BookELb1EE7_M_headERS3_, symObjAddr: 0x469C, symBinAddr: 0x1000079AC, symSize: 0x14 }
  - { offsetInCU: 0x108F0, offset: 0x108F0, size: 0x8, addend: 0x0, symName: __ZNSt14default_deleteI15LiteratureEntryEC1I4BookvEERKS_IT_E, symObjAddr: 0x46B0, symBinAddr: 0x1000079C0, symSize: 0x18 }
  - { offsetInCU: 0x1096B, offset: 0x1096B, size: 0x8, addend: 0x0, symName: __ZNSt10_Head_baseILm1ESt14default_deleteI4BookELb1EEC2Ev, symObjAddr: 0x4688, symBinAddr: 0x100007998, symSize: 0x14 }
  - { offsetInCU: 0x10973, offset: 0x10973, size: 0x8, addend: 0x0, symName: __ZNSt10_Head_baseILm1ESt14default_deleteI4BookELb1EE7_M_headERS3_, symObjAddr: 0x469C, symBinAddr: 0x1000079AC, symSize: 0x14 }
  - { offsetInCU: 0x10A53, offset: 0x10A53, size: 0x8, addend: 0x0, symName: __ZSt19__relocate_object_aINSt7__cxx1112basic_stringIcSt11char_traitsIcESaIcEEES5_SaIS5_EEvPT_PT0_RT1_, symObjAddr: 0x463C, symBinAddr: 0x10000794C, symSize: 0x4C }
  - { offsetInCU: 0x10A5B, offset: 0x10A5B, size: 0x8, addend: 0x0, symName: __ZNSt10_Head_baseILm1ESt14default_deleteI4BookELb1EEC2Ev, symObjAddr: 0x4688, symBinAddr: 0x100007998, symSize: 0x14 }
  - { offsetInCU: 0x109E6, offset: 0x109E6, size: 0x8, addend: 0x0, symName: __ZNSt10_Head_baseILm1ESt14default_deleteISt6vectorINSt7__cxx1112basic_stringIcSt11char_traitsIcESaIcEEESaIS7_EEELb1EE7_M_headERSB_, symObjAddr: 0x4628, symBinAddr: 0x100007938, symSize: 0x14 }
  - { offsetInCU: 0x109EE, offset: 0x109EE, size: 0x8, addend: 0x0, symName: __ZSt19__relocate_object_aINSt7__cxx1112basic_stringIcSt11char_traitsIcESaIcEEES5_SaIS5_EEvPT_PT0_RT1_, symObjAddr: 0x463C, symBinAddr: 0x10000794C, symSize: 0x4C }
  - { offsetInCU: 0x10A17, offset: 0x10A17, size: 0x8, addend: 0x0, symName: __ZNSt11_Tuple_implILm0EJP15LiteratureEntrySt14default_deleteIS0_EEE7_M_headERKS4_, symObjAddr: 0x460C, symBinAddr: 0x10000791C, symSize: 0x1C }
  - { offsetInCU: 0x10A1F, offset: 0x10A1F, size: 0x8, addend: 0x0, symName: __ZNSt10_Head_baseILm1ESt14default_deleteISt6vectorINSt7__cxx1112basic_stringIcSt11char_traitsIcESaIcEEESaIS7_EEELb1EE7_M_headERSB_, symObjAddr: 0x4628, symBinAddr: 0x100007938, symSize: 0x14 }
  - { offsetInCU: 0x10ADE, offset: 0x10ADE, size: 0x8, addend: 0x0, symName: __ZNSt10_Head_baseILm1ESt14default_deleteI15LiteratureEntryELb1EEC2IS0_I6ThesisEEEOT_, symObjAddr: 0x45D0, symBinAddr: 0x1000078E0, symSize: 0x3C }
  - { offsetInCU: 0x10AE6, offset: 0x10AE6, size: 0x8, addend: 0x0, symName: __ZNSt11_Tuple_implILm0EJP15LiteratureEntrySt14default_deleteIS0_EEE7_M_headERKS4_, symObjAddr: 0x460C, symBinAddr: 0x10000791C, symSize: 0x1C }
  - { offsetInCU: 0x10AD0, offset: 0x10AD0, size: 0x8, addend: 0x0, symName: __ZNSt11_Tuple_implILm1EJSt14default_deleteI6ThesisEEE7_M_headERS3_, symObjAddr: 0x45B4, symBinAddr: 0x1000078C4, symSize: 0x1C }
  - { offsetInCU: 0x10AD8, offset: 0x10AD8, size: 0x8, addend: 0x0, symName: __ZNSt10_Head_baseILm1ESt14default_deleteI15LiteratureEntryELb1EEC2IS0_I6ThesisEEEOT_, symObjAddr: 0x45D0, symBinAddr: 0x1000078E0, symSize: 0x3C }
  - { offsetInCU: 0x10B02, offset: 0x10B02, size: 0x8, addend: 0x0, symName: __ZNSt10_Head_baseILm0EP6ThesisLb0EE7_M_headERS2_, symObjAddr: 0x45A0, symBinAddr: 0x1000078B0, symSize: 0x14 }
  - { offsetInCU: 0x10B0A, offset: 0x10B0A, size: 0x8, addend: 0x0, symName: __ZNSt11_Tuple_implILm1EJSt14default_deleteI6ThesisEEE7_M_headERS3_, symObjAddr: 0x45B4, symBinAddr: 0x1000078C4, symSize: 0x1C }
  - { offsetInCU: 0x10B74, offset: 0x10B74, size: 0x8, addend: 0x0, symName: __ZNSt10_Head_baseILm0EP6ThesisLb0EEC2Ev, symObjAddr: 0x4584, symBinAddr: 0x100007894, symSize: 0x1C }
  - { offsetInCU: 0x10B7C, offset: 0x10B7C, size: 0x8, addend: 0x0, symName: __ZNSt10_Head_baseILm0EP6ThesisLb0EE7_M_headERS2_, symObjAddr: 0x45A0, symBinAddr: 0x1000078B0, symSize: 0x14 }
  - { offsetInCU: 0x10BCD, offset: 0x10BCD, size: 0x8, addend: 0x0, symName: __ZNSt11_Tuple_implILm1EJSt14default_deleteI6ThesisEEEC2Ev, symObjAddr: 0x4564, symBinAddr: 0x100007874, symSize: 0x20 }
  - { offsetInCU: 0x10BD5, offset: 0x10BD5, size: 0x8, addend: 0x0, symName: __ZNSt10_Head_baseILm0EP6ThesisLb0EEC2Ev, symObjAddr: 0x4584, symBinAddr: 0x100007894, symSize: 0x1C }
  - { offsetInCU: 0x10C57, offset: 0x10C57, size: 0x8, addend: 0x0, symName: __ZNSt10_Head_baseILm1ESt14default_deleteI15LiteratureEntryELb1EEC2IS0_I7JournalEEEOT_, symObjAddr: 0x4528, symBinAddr: 0x100007838, symSize: 0x3C }
  - { offsetInCU: 0x10C5F, offset: 0x10C5F, size: 0x8, addend: 0x0, symName: __ZNSt11_Tuple_implILm1EJSt14default_deleteI6ThesisEEEC2Ev, symObjAddr: 0x4564, symBinAddr: 0x100007874, symSize: 0x20 }
  - { offsetInCU: 0x10C48, offset: 0x10C48, size: 0x8, addend: 0x0, symName: __ZNSt11_Tuple_implILm1EJSt14default_deleteI7JournalEEE7_M_headERS3_, symObjAddr: 0x450C, symBinAddr: 0x10000781C, symSize: 0x1C }
  - { offsetInCU: 0x10C50, offset: 0x10C50, size: 0x8, addend: 0x0, symName: __ZNSt10_Head_baseILm1ESt14default_deleteI15LiteratureEntryELb1EEC2IS0_I7JournalEEEOT_, symObjAddr: 0x4528, symBinAddr: 0x100007838, symSize: 0x3C }
  - { offsetInCU: 0x10C7A, offset: 0x10C7A, size: 0x8, addend: 0x0, symName: __ZNSt10_Head_baseILm0EP7JournalLb0EE7_M_headERS2_, symObjAddr: 0x44F8, symBinAddr: 0x100007808, symSize: 0x14 }
  - { offsetInCU: 0x10C82, offset: 0x10C82, size: 0x8, addend: 0x0, symName: __ZNSt11_Tuple_implILm1EJSt14default_deleteI7JournalEEE7_M_headERS3_, symObjAddr: 0x450C, symBinAddr: 0x10000781C, symSize: 0x1C }
  - { offsetInCU: 0x10CED, offset: 0x10CED, size: 0x8, addend: 0x0, symName: __ZNSt10_Head_baseILm0EP7JournalLb0EEC2Ev, symObjAddr: 0x44DC, symBinAddr: 0x1000077EC, symSize: 0x1C }
  - { offsetInCU: 0x10CF5, offset: 0x10CF5, size: 0x8, addend: 0x0, symName: __ZNSt10_Head_baseILm0EP7JournalLb0EE7_M_headERS2_, symObjAddr: 0x44F8, symBinAddr: 0x100007808, symSize: 0x14 }
  - { offsetInCU: 0x10D46, offset: 0x10D46, size: 0x8, addend: 0x0, symName: __ZNSt11_Tuple_implILm1EJSt14default_deleteI7JournalEEEC2Ev, symObjAddr: 0x44BC, symBinAddr: 0x1000077CC, symSize: 0x20 }
  - { offsetInCU: 0x10D4E, offset: 0x10D4E, size: 0x8, addend: 0x0, symName: __ZNSt10_Head_baseILm0EP7JournalLb0EEC2Ev, symObjAddr: 0x44DC, symBinAddr: 0x1000077EC, symSize: 0x1C }
  - { offsetInCU: 0x10E2C, offset: 0x10E2C, size: 0x8, addend: 0x0, symName: __ZSt12__relocate_aIPSt10unique_ptrI15LiteratureEntrySt14default_deleteIS1_EES5_SaIS4_EET0_T_S8_S7_RT1_, symObjAddr: 0x4460, symBinAddr: 0x100007770, symSize: 0x5C }
  - { offsetInCU: 0x10E34, offset: 0x10E34, size: 0x8, addend: 0x0, symName: __ZNSt11_Tuple_implILm1EJSt14default_deleteI7JournalEEEC2Ev, symObjAddr: 0x44BC, symBinAddr: 0x1000077CC, symSize: 0x20 }
  - { offsetInCU: 0x10DDB, offset: 0x10DDB, size: 0x8, addend: 0x0, symName: __ZN9__gnu_cxx13new_allocatorISt10unique_ptrI15LiteratureEntrySt14default_deleteIS2_EEE8allocateEmPKv, symObjAddr: 0x43E8, symBinAddr: 0x1000076F8, symSize: 0x78 }
  - { offsetInCU: 0x10DE3, offset: 0x10DE3, size: 0x8, addend: 0x0, symName: __ZSt12__relocate_aIPSt10unique_ptrI15LiteratureEntrySt14default_deleteIS1_EES5_SaIS4_EET0_T_S8_S7_RT1_, symObjAddr: 0x4460, symBinAddr: 0x100007770, symSize: 0x5C }
  - { offsetInCU: 0x10E3B, offset: 0x10E3B, size: 0x8, addend: 0x0, symName: __ZNK9__gnu_cxx13new_allocatorISt10unique_ptrI15LiteratureEntrySt14default_deleteIS2_EEE11_M_max_sizeEv, symObjAddr: 0x43D4, symBinAddr: 0x1000076E4, symSize: 0x14 }
  - { offsetInCU: 0x10E43, offset: 0x10E43, size: 0x8, addend: 0x0, symName: __ZN9__gnu_cxx13new_allocatorISt10unique_ptrI15LiteratureEntrySt14default_deleteIS2_EEE8allocateEmPKv, symObjAddr: 0x43E8, symBinAddr: 0x1000076F8, symSize: 0x78 }
  - { offsetInCU: 0x10E6A, offset: 0x10E6A, size: 0x8, addend: 0x0, symName: __ZNKSt12_Vector_baseISt10unique_ptrI15LiteratureEntrySt14default_deleteIS1_EESaIS4_EE19_M_get_Tp_allocatorEv, symObjAddr: 0x43C0, symBinAddr: 0x1000076D0, symSize: 0x14 }
  - { offsetInCU: 0x10E72, offset: 0x10E72, size: 0x8, addend: 0x0, symName: __ZNK9__gnu_cxx13new_allocatorISt10unique_ptrI15LiteratureEntrySt14default_deleteIS2_EEE11_M_max_sizeEv, symObjAddr: 0x43D4, symBinAddr: 0x1000076E4, symSize: 0x14 }
  - { offsetInCU: 0x10E99, offset: 0x10E99, size: 0x8, addend: 0x0, symName: __ZNSt6vectorISt10unique_ptrI15LiteratureEntrySt14default_deleteIS1_EESaIS4_EE11_S_max_sizeERKS5_, symObjAddr: 0x4388, symBinAddr: 0x100007698, symSize: 0x38 }
  - { offsetInCU: 0x10EA1, offset: 0x10EA1, size: 0x8, addend: 0x0, symName: __ZNKSt12_Vector_baseISt10unique_ptrI15LiteratureEntrySt14default_deleteIS1_EESaIS4_EE19_M_get_Tp_allocatorEv, symObjAddr: 0x43C0, symBinAddr: 0x1000076D0, symSize: 0x14 }
  - { offsetInCU: 0x10F64, offset: 0x10F64, size: 0x8, addend: 0x0, symName: __ZNSt11_Tuple_implILm1EJSt14default_deleteI15LiteratureEntryEEEC2EOS3_, symObjAddr: 0x4370, symBinAddr: 0x100007680, symSize: 0x18 }
  - { offsetInCU: 0x10F6C, offset: 0x10F6C, size: 0x8, addend: 0x0, symName: __ZNSt6vectorISt10unique_ptrI15LiteratureEntrySt14default_deleteIS1_EESaIS4_EE11_S_max_sizeERKS5_, symObjAddr: 0x4388, symBinAddr: 0x100007698, symSize: 0x38 }
  - { offsetInCU: 0x1100C, offset: 0x1100C, size: 0x8, addend: 0x0, symName: __ZSt4moveIRSt5tupleIJP15LiteratureEntrySt14default_deleteIS1_EEEEONSt16remove_referenceIT_E4typeEOS8_, symObjAddr: 0x435C, symBinAddr: 0x10000766C, symSize: 0x14 }
  - { offsetInCU: 0x11014, offset: 0x11014, size: 0x8, addend: 0x0, symName: __ZNSt11_Tuple_implILm1EJSt14default_deleteI15LiteratureEntryEEEC2EOS3_, symObjAddr: 0x4370, symBinAddr: 0x100007680, symSize: 0x18 }
  - { offsetInCU: 0x10FAB, offset: 0x10FAB, size: 0x8, addend: 0x0, symName: __ZNSt11_Tuple_implILm1EJSt14default_deleteI15LiteratureEntryEEE7_M_headERS3_, symObjAddr: 0x4340, symBinAddr: 0x100007650, symSize: 0x1C }
  - { offsetInCU: 0x10FB3, offset: 0x10FB3, size: 0x8, addend: 0x0, symName: __ZSt4moveIRSt5tupleIJP15LiteratureEntrySt14default_deleteIS1_EEEEONSt16remove_referenceIT_E4typeEOS8_, symObjAddr: 0x435C, symBinAddr: 0x10000766C, symSize: 0x14 }
  - { offsetInCU: 0x10FDD, offset: 0x10FDD, size: 0x8, addend: 0x0, symName: __ZNSt10_Head_baseILm0EP15LiteratureEntryLb0EE7_M_headERS2_, symObjAddr: 0x432C, symBinAddr: 0x10000763C, symSize: 0x14 }
  - { offsetInCU: 0x10FE5, offset: 0x10FE5, size: 0x8, addend: 0x0, symName: __ZNSt11_Tuple_implILm1EJSt14default_deleteI15LiteratureEntryEEE7_M_headERS3_, symObjAddr: 0x4340, symBinAddr: 0x100007650, symSize: 0x1C }
  - { offsetInCU: 0x110A1, offset: 0x110A1, size: 0x8, addend: 0x0, symName: __ZNSt10_Head_baseILm1ESt14default_deleteI15LiteratureEntryELb1EEC2IS0_I4BookEEEOT_, symObjAddr: 0x42F0, symBinAddr: 0x100007600, symSize: 0x3C }
  - { offsetInCU: 0x110A9, offset: 0x110A9, size: 0x8, addend: 0x0, symName: __ZNSt10_Head_baseILm0EP15LiteratureEntryLb0EE7_M_headERS2_, symObjAddr: 0x432C, symBinAddr: 0x10000763C, symSize: 0x14 }
  - { offsetInCU: 0x11095, offset: 0x11095, size: 0x8, addend: 0x0, symName: __ZNSt11_Tuple_implILm1EJSt14default_deleteI4BookEEE7_M_headERS3_, symObjAddr: 0x42D4, symBinAddr: 0x1000075E4, symSize: 0x1C }
  - { offsetInCU: 0x1109D, offset: 0x1109D, size: 0x8, addend: 0x0, symName: __ZNSt10_Head_baseILm1ESt14default_deleteI15LiteratureEntryELb1EEC2IS0_I4BookEEEOT_, symObjAddr: 0x42F0, symBinAddr: 0x100007600, symSize: 0x3C }
  - { offsetInCU: 0x110C7, offset: 0x110C7, size: 0x8, addend: 0x0, symName: __ZNSt10_Head_baseILm0EP4BookLb0EE7_M_headERS2_, symObjAddr: 0x42C0, symBinAddr: 0x1000075D0, symSize: 0x14 }
  - { offsetInCU: 0x110CF, offset: 0x110CF, size: 0x8, addend: 0x0, symName: __ZNSt11_Tuple_implILm1EJSt14default_deleteI4BookEEE7_M_headERS3_, symObjAddr: 0x42D4, symBinAddr: 0x1000075E4, symSize: 0x1C }
  - { offsetInCU: 0x11137, offset: 0x11137, size: 0x8, addend: 0x0, symName: __ZNSt10_Head_baseILm0EP4BookLb0EEC2Ev, symObjAddr: 0x42A4, symBinAddr: 0x1000075B4, symSize: 0x1C }
  - { offsetInCU: 0x1113F, offset: 0x1113F, size: 0x8, addend: 0x0, symName: __ZNSt10_Head_baseILm0EP4BookLb0EE7_M_headERS2_, symObjAddr: 0x42C0, symBinAddr: 0x1000075D0, symSize: 0x14 }
  - { offsetInCU: 0x11190, offset: 0x11190, size: 0x8, addend: 0x0, symName: __ZNSt11_Tuple_implILm1EJSt14default_deleteI4BookEEEC2Ev, symObjAddr: 0x4284, symBinAddr: 0x100007594, symSize: 0x20 }
  - { offsetInCU: 0x11198, offset: 0x11198, size: 0x8, addend: 0x0, symName: __ZNSt10_Head_baseILm0EP4BookLb0EEC2Ev, symObjAddr: 0x42A4, symBinAddr: 0x1000075B4, symSize: 0x1C }
  - { offsetInCU: 0x11207, offset: 0x11207, size: 0x8, addend: 0x0, symName: __ZSt10_ConstructINSt7__cxx1112basic_stringIcSt11char_traitsIcESaIcEEEJEEvPT_DpOT0_, symObjAddr: 0x4258, symBinAddr: 0x100007568, symSize: 0x2C }
  - { offsetInCU: 0x1120F, offset: 0x1120F, size: 0x8, addend: 0x0, symName: __ZNSt11_Tuple_implILm1EJSt14default_deleteI4BookEEEC2Ev, symObjAddr: 0x4284, symBinAddr: 0x100007594, symSize: 0x20 }
  - { offsetInCU: 0x112C4, offset: 0x112C4, size: 0x8, addend: 0x0, symName: __ZSt14__relocate_a_1IPNSt7__cxx1112basic_stringIcSt11char_traitsIcESaIcEEES6_SaIS5_EET0_T_S9_S8_RT1_, symObjAddr: 0x41D4, symBinAddr: 0x1000074E4, symSize: 0x84 }
  - { offsetInCU: 0x112CC, offset: 0x112CC, size: 0x8, addend: 0x0, symName: __ZSt10_ConstructINSt7__cxx1112basic_stringIcSt11char_traitsIcESaIcEEEJEEvPT_DpOT0_, symObjAddr: 0x4258, symBinAddr: 0x100007568, symSize: 0x2C }
  - { offsetInCU: 0x1130B, offset: 0x1130B, size: 0x8, addend: 0x0, symName: __ZSt12__niter_baseIPNSt7__cxx1112basic_stringIcSt11char_traitsIcESaIcEEEET_S7_, symObjAddr: 0x41C0, symBinAddr: 0x1000074D0, symSize: 0x14 }
  - { offsetInCU: 0x11313, offset: 0x11313, size: 0x8, addend: 0x0, symName: __ZSt14__relocate_a_1IPNSt7__cxx1112basic_stringIcSt11char_traitsIcESaIcEEES6_SaIS5_EET0_T_S9_S8_RT1_, symObjAddr: 0x41D4, symBinAddr: 0x1000074E4, symSize: 0x84 }
  - { offsetInCU: 0x112D3, offset: 0x112D3, size: 0x8, addend: 0x0, symName: __ZNSt11_Tuple_implILm1EJSt14default_deleteISt6vectorINSt7__cxx1112basic_stringIcSt11char_traitsIcESaIcEEESaIS7_EEEEE7_M_headERSB_, symObjAddr: 0x41A4, symBinAddr: 0x1000074B4, symSize: 0x1C }
  - { offsetInCU: 0x112DB, offset: 0x112DB, size: 0x8, addend: 0x0, symName: __ZSt12__niter_baseIPNSt7__cxx1112basic_stringIcSt11char_traitsIcESaIcEEEET_S7_, symObjAddr: 0x41C0, symBinAddr: 0x1000074D0, symSize: 0x14 }
  - { offsetInCU: 0x11305, offset: 0x11305, size: 0x8, addend: 0x0, symName: __ZNSt10_Head_baseILm0EPSt6vectorINSt7__cxx1112basic_stringIcSt11char_traitsIcESaIcEEESaIS6_EELb0EE7_M_headERSA_, symObjAddr: 0x4190, symBinAddr: 0x1000074A0, symSize: 0x14 }
  - { offsetInCU: 0x1130D, offset: 0x1130D, size: 0x8, addend: 0x0, symName: __ZNSt11_Tuple_implILm1EJSt14default_deleteISt6vectorINSt7__cxx1112basic_stringIcSt11char_traitsIcESaIcEEESaIS7_EEEEE7_M_headERSB_, symObjAddr: 0x41A4, symBinAddr: 0x1000074B4, symSize: 0x1C }
  - { offsetInCU: 0x113A9, offset: 0x113A9, size: 0x8, addend: 0x0, symName: __ZSt12__get_helperILm0EP15LiteratureEntryJSt14default_deleteIS0_EEERKT0_RKSt11_Tuple_implIXT_EJS4_DpT1_EE, symObjAddr: 0x4174, symBinAddr: 0x100007484, symSize: 0x1C }
  - { offsetInCU: 0x113B1, offset: 0x113B1, size: 0x8, addend: 0x0, symName: __ZNSt10_Head_baseILm0EPSt6vectorINSt7__cxx1112basic_stringIcSt11char_traitsIcESaIcEEESaIS6_EELb0EE7_M_headERSA_, symObjAddr: 0x4190, symBinAddr: 0x1000074A0, symSize: 0x14 }
  - { offsetInCU: 0x1142A, offset: 0x1142A, size: 0x8, addend: 0x0, symName: __ZNSt11_Tuple_implILm1EJSt14default_deleteI15LiteratureEntryEEEC2IS0_I6ThesisEEEOT_, symObjAddr: 0x4144, symBinAddr: 0x100007454, symSize: 0x30 }
  - { offsetInCU: 0x11432, offset: 0x11432, size: 0x8, addend: 0x0, symName: __ZSt12__get_helperILm0EP15LiteratureEntryJSt14default_deleteIS0_EEERKT0_RKSt11_Tuple_implIXT_EJS4_DpT1_EE, symObjAddr: 0x4174, symBinAddr: 0x100007484, symSize: 0x1C }
  - { offsetInCU: 0x114AA, offset: 0x114AA, size: 0x8, addend: 0x0, symName: __ZSt12__get_helperILm1ESt14default_deleteI6ThesisEJEERT0_RSt11_Tuple_implIXT_EJS3_DpT1_EE, symObjAddr: 0x4128, symBinAddr: 0x100007438, symSize: 0x1C }
  - { offsetInCU: 0x114B2, offset: 0x114B2, size: 0x8, addend: 0x0, symName: __ZNSt11_Tuple_implILm1EJSt14default_deleteI15LiteratureEntryEEEC2IS0_I6ThesisEEEOT_, symObjAddr: 0x4144, symBinAddr: 0x100007454, symSize: 0x30 }
  - { offsetInCU: 0x1147C, offset: 0x1147C, size: 0x8, addend: 0x0, symName: __ZNSt11_Tuple_implILm0EJP6ThesisSt14default_deleteIS0_EEE7_M_headERS4_, symObjAddr: 0x410C, symBinAddr: 0x10000741C, symSize: 0x1C }
  - { offsetInCU: 0x11484, offset: 0x11484, size: 0x8, addend: 0x0, symName: __ZSt12__get_helperILm1ESt14default_deleteI6ThesisEJEERT0_RSt11_Tuple_implIXT_EJS3_DpT1_EE, symObjAddr: 0x4128, symBinAddr: 0x100007438, symSize: 0x1C }
  - { offsetInCU: 0x11505, offset: 0x11505, size: 0x8, addend: 0x0, symName: __ZNSt11_Tuple_implILm0EJP6ThesisSt14default_deleteIS0_EEEC2Ev, symObjAddr: 0x40E4, symBinAddr: 0x1000073F4, symSize: 0x28 }
  - { offsetInCU: 0x1150D, offset: 0x1150D, size: 0x8, addend: 0x0, symName: __ZNSt11_Tuple_implILm0EJP6ThesisSt14default_deleteIS0_EEE7_M_headERS4_, symObjAddr: 0x410C, symBinAddr: 0x10000741C, symSize: 0x1C }
  - { offsetInCU: 0x11581, offset: 0x11581, size: 0x8, addend: 0x0, symName: __ZNSt11_Tuple_implILm1EJSt14default_deleteI15LiteratureEntryEEEC2IS0_I7JournalEEEOT_, symObjAddr: 0x40B4, symBinAddr: 0x1000073C4, symSize: 0x30 }
  - { offsetInCU: 0x11589, offset: 0x11589, size: 0x8, addend: 0x0, symName: __ZNSt11_Tuple_implILm0EJP6ThesisSt14default_deleteIS0_EEEC2Ev, symObjAddr: 0x40E4, symBinAddr: 0x1000073F4, symSize: 0x28 }
  - { offsetInCU: 0x11602, offset: 0x11602, size: 0x8, addend: 0x0, symName: __ZSt12__get_helperILm1ESt14default_deleteI7JournalEJEERT0_RSt11_Tuple_implIXT_EJS3_DpT1_EE, symObjAddr: 0x4098, symBinAddr: 0x1000073A8, symSize: 0x1C }
  - { offsetInCU: 0x1160A, offset: 0x1160A, size: 0x8, addend: 0x0, symName: __ZNSt11_Tuple_implILm1EJSt14default_deleteI15LiteratureEntryEEEC2IS0_I7JournalEEEOT_, symObjAddr: 0x40B4, symBinAddr: 0x1000073C4, symSize: 0x30 }
  - { offsetInCU: 0x115D2, offset: 0x115D2, size: 0x8, addend: 0x0, symName: __ZNSt11_Tuple_implILm0EJP7JournalSt14default_deleteIS0_EEE7_M_headERS4_, symObjAddr: 0x407C, symBinAddr: 0x10000738C, symSize: 0x1C }
  - { offsetInCU: 0x115DA, offset: 0x115DA, size: 0x8, addend: 0x0, symName: __ZSt12__get_helperILm1ESt14default_deleteI7JournalEJEERT0_RSt11_Tuple_implIXT_EJS3_DpT1_EE, symObjAddr: 0x4098, symBinAddr: 0x1000073A8, symSize: 0x1C }
  - { offsetInCU: 0x1165C, offset: 0x1165C, size: 0x8, addend: 0x0, symName: __ZNSt11_Tuple_implILm0EJP7JournalSt14default_deleteIS0_EEEC2Ev, symObjAddr: 0x4054, symBinAddr: 0x100007364, symSize: 0x28 }
  - { offsetInCU: 0x11664, offset: 0x11664, size: 0x8, addend: 0x0, symName: __ZNSt11_Tuple_implILm0EJP7JournalSt14default_deleteIS0_EEE7_M_headERS4_, symObjAddr: 0x407C, symBinAddr: 0x10000738C, symSize: 0x1C }
  - { offsetInCU: 0x1164B, offset: 0x1164B, size: 0x8, addend: 0x0, symName: __ZN9__gnu_cxx13new_allocatorISt10unique_ptrI15LiteratureEntrySt14default_deleteIS2_EEE7destroyIS5_EEvPT_, symObjAddr: 0x4030, symBinAddr: 0x100007340, symSize: 0x24 }
  - { offsetInCU: 0x11653, offset: 0x11653, size: 0x8, addend: 0x0, symName: __ZNSt11_Tuple_implILm0EJP7JournalSt14default_deleteIS0_EEEC2Ev, symObjAddr: 0x4054, symBinAddr: 0x100007364, symSize: 0x28 }
  - { offsetInCU: 0x1169A, offset: 0x1169A, size: 0x8, addend: 0x0, symName: __ZNSt6vectorISt10unique_ptrI15LiteratureEntrySt14default_deleteIS1_EESaIS4_EE14_S_do_relocateEPS4_S7_S7_RS5_St17integral_constantIbLb1EE, symObjAddr: 0x3FF8, symBinAddr: 0x100007308, symSize: 0x38 }
  - { offsetInCU: 0x116A2, offset: 0x116A2, size: 0x8, addend: 0x0, symName: __ZN9__gnu_cxx13new_allocatorISt10unique_ptrI15LiteratureEntrySt14default_deleteIS2_EEE7destroyIS5_EEvPT_, symObjAddr: 0x4030, symBinAddr: 0x100007340, symSize: 0x24 }
  - { offsetInCU: 0x11714, offset: 0x11714, size: 0x8, addend: 0x0, symName: __ZNSt16allocator_traitsISaISt10unique_ptrI15LiteratureEntrySt14default_deleteIS1_EEEE8allocateERS5_m, symObjAddr: 0x3FD0, symBinAddr: 0x1000072E0, symSize: 0x28 }
  - { offsetInCU: 0x1171C, offset: 0x1171C, size: 0x8, addend: 0x0, symName: __ZNSt6vectorISt10unique_ptrI15LiteratureEntrySt14default_deleteIS1_EESaIS4_EE14_S_do_relocateEPS4_S7_S7_RS5_St17integral_constantIbLb1EE, symObjAddr: 0x3FF8, symBinAddr: 0x100007308, symSize: 0x38 }
  - { offsetInCU: 0x1175A, offset: 0x1175A, size: 0x8, addend: 0x0, symName: __ZNKSt6vectorISt10unique_ptrI15LiteratureEntrySt14default_deleteIS1_EESaIS4_EE4sizeEv, symObjAddr: 0x3FA8, symBinAddr: 0x1000072B8, symSize: 0x28 }
  - { offsetInCU: 0x11762, offset: 0x11762, size: 0x8, addend: 0x0, symName: __ZNSt16allocator_traitsISaISt10unique_ptrI15LiteratureEntrySt14default_deleteIS1_EEEE8allocateERS5_m, symObjAddr: 0x3FD0, symBinAddr: 0x1000072E0, symSize: 0x28 }
  - { offsetInCU: 0x11789, offset: 0x11789, size: 0x8, addend: 0x0, symName: __ZNKSt6vectorISt10unique_ptrI15LiteratureEntrySt14default_deleteIS1_EESaIS4_EE8max_sizeEv, symObjAddr: 0x3F88, symBinAddr: 0x100007298, symSize: 0x20 }
  - { offsetInCU: 0x11791, offset: 0x11791, size: 0x8, addend: 0x0, symName: __ZNKSt6vectorISt10unique_ptrI15LiteratureEntrySt14default_deleteIS1_EESaIS4_EE4sizeEv, symObjAddr: 0x3FA8, symBinAddr: 0x1000072B8, symSize: 0x28 }
  - { offsetInCU: 0x11829, offset: 0x11829, size: 0x8, addend: 0x0, symName: __ZNSt15__uniq_ptr_implI15LiteratureEntrySt14default_deleteIS0_EEC2EOS3_, symObjAddr: 0x3F40, symBinAddr: 0x100007250, symSize: 0x48 }
  - { offsetInCU: 0x11831, offset: 0x11831, size: 0x8, addend: 0x0, symName: __ZNKSt6vectorISt10unique_ptrI15LiteratureEntrySt14default_deleteIS1_EESaIS4_EE8max_sizeEv, symObjAddr: 0x3F88, symBinAddr: 0x100007298, symSize: 0x20 }
  - { offsetInCU: 0x1187D, offset: 0x1187D, size: 0x8, addend: 0x0, symName: __ZNSt5tupleIJP15LiteratureEntrySt14default_deleteIS0_EEEC1EOS4_, symObjAddr: 0x3F18, symBinAddr: 0x100007228, symSize: 0x28 }
  - { offsetInCU: 0x11885, offset: 0x11885, size: 0x8, addend: 0x0, symName: __ZNSt15__uniq_ptr_implI15LiteratureEntrySt14default_deleteIS0_EEC2EOS3_, symObjAddr: 0x3F40, symBinAddr: 0x100007250, symSize: 0x48 }
  - { offsetInCU: 0x118E4, offset: 0x118E4, size: 0x8, addend: 0x0, symName: __ZNSt11_Tuple_implILm0EJP15LiteratureEntrySt14default_deleteIS0_EEEC2EOS4_, symObjAddr: 0x3EE0, symBinAddr: 0x1000071F0, symSize: 0x38 }
  - { offsetInCU: 0x118EC, offset: 0x118EC, size: 0x8, addend: 0x0, symName: __ZNSt5tupleIJP15LiteratureEntrySt14default_deleteIS0_EEEC1EOS4_, symObjAddr: 0x3F18, symBinAddr: 0x100007228, symSize: 0x28 }
  - { offsetInCU: 0x11973, offset: 0x11973, size: 0x8, addend: 0x0, symName: __ZSt12__get_helperILm1ESt14default_deleteI15LiteratureEntryEJEERT0_RSt11_Tuple_implIXT_EJS3_DpT1_EE, symObjAddr: 0x3EC4, symBinAddr: 0x1000071D4, symSize: 0x1C }
  - { offsetInCU: 0x1197B, offset: 0x1197B, size: 0x8, addend: 0x0, symName: __ZNSt11_Tuple_implILm0EJP15LiteratureEntrySt14default_deleteIS0_EEEC2EOS4_, symObjAddr: 0x3EE0, symBinAddr: 0x1000071F0, symSize: 0x38 }
  - { offsetInCU: 0x11932, offset: 0x11932, size: 0x8, addend: 0x0, symName: __ZNSt11_Tuple_implILm0EJP15LiteratureEntrySt14default_deleteIS0_EEE7_M_headERS4_, symObjAddr: 0x3EA8, symBinAddr: 0x1000071B8, symSize: 0x1C }
  - { offsetInCU: 0x1193A, offset: 0x1193A, size: 0x8, addend: 0x0, symName: __ZSt12__get_helperILm1ESt14default_deleteI15LiteratureEntryEJEERT0_RSt11_Tuple_implIXT_EJS3_DpT1_EE, symObjAddr: 0x3EC4, symBinAddr: 0x1000071D4, symSize: 0x1C }
  - { offsetInCU: 0x119D4, offset: 0x119D4, size: 0x8, addend: 0x0, symName: __ZNSt10_Head_baseILm0EP15LiteratureEntryLb0EEC2IRS1_EEOT_, symObjAddr: 0x3E78, symBinAddr: 0x100007188, symSize: 0x30 }
  - { offsetInCU: 0x119DC, offset: 0x119DC, size: 0x8, addend: 0x0, symName: __ZNSt11_Tuple_implILm0EJP15LiteratureEntrySt14default_deleteIS0_EEE7_M_headERS4_, symObjAddr: 0x3EA8, symBinAddr: 0x1000071B8, symSize: 0x1C }
  - { offsetInCU: 0x11A6A, offset: 0x11A6A, size: 0x8, addend: 0x0, symName: __ZNSt11_Tuple_implILm1EJSt14default_deleteI15LiteratureEntryEEEC2IS0_I4BookEEEOT_, symObjAddr: 0x3E48, symBinAddr: 0x100007158, symSize: 0x30 }
  - { offsetInCU: 0x11A72, offset: 0x11A72, size: 0x8, addend: 0x0, symName: __ZNSt10_Head_baseILm0EP15LiteratureEntryLb0EEC2IRS1_EEOT_, symObjAddr: 0x3E78, symBinAddr: 0x100007188, symSize: 0x30 }
  - { offsetInCU: 0x11AE8, offset: 0x11AE8, size: 0x8, addend: 0x0, symName: __ZSt12__get_helperILm1ESt14default_deleteI4BookEJEERT0_RSt11_Tuple_implIXT_EJS3_DpT1_EE, symObjAddr: 0x3E2C, symBinAddr: 0x10000713C, symSize: 0x1C }
  - { offsetInCU: 0x11AF0, offset: 0x11AF0, size: 0x8, addend: 0x0, symName: __ZNSt11_Tuple_implILm1EJSt14default_deleteI15LiteratureEntryEEEC2IS0_I4BookEEEOT_, symObjAddr: 0x3E48, symBinAddr: 0x100007158, symSize: 0x30 }
  - { offsetInCU: 0x11ABE, offset: 0x11ABE, size: 0x8, addend: 0x0, symName: __ZNSt11_Tuple_implILm0EJP4BookSt14default_deleteIS0_EEE7_M_headERS4_, symObjAddr: 0x3E10, symBinAddr: 0x100007120, symSize: 0x1C }
  - { offsetInCU: 0x11AC6, offset: 0x11AC6, size: 0x8, addend: 0x0, symName: __ZSt12__get_helperILm1ESt14default_deleteI4BookEJEERT0_RSt11_Tuple_implIXT_EJS3_DpT1_EE, symObjAddr: 0x3E2C, symBinAddr: 0x10000713C, symSize: 0x1C }
  - { offsetInCU: 0x11B45, offset: 0x11B45, size: 0x8, addend: 0x0, symName: __ZNSt11_Tuple_implILm0EJP4BookSt14default_deleteIS0_EEEC2Ev, symObjAddr: 0x3DE8, symBinAddr: 0x1000070F8, symSize: 0x28 }
  - { offsetInCU: 0x11B4D, offset: 0x11B4D, size: 0x8, addend: 0x0, symName: __ZNSt11_Tuple_implILm0EJP4BookSt14default_deleteIS0_EEE7_M_headERS4_, symObjAddr: 0x3E10, symBinAddr: 0x100007120, symSize: 0x1C }
  - { offsetInCU: 0x11B37, offset: 0x11B37, size: 0x8, addend: 0x0, symName: __ZNSt27__uninitialized_default_n_1ILb0EE18__uninit_default_nIPNSt7__cxx1112basic_stringIcSt11char_traitsIcESaIcEEEmEET_S9_T0_, symObjAddr: 0x3D90, symBinAddr: 0x1000070A0, symSize: 0x58 }
  - { offsetInCU: 0x11B3F, offset: 0x11B3F, size: 0x8, addend: 0x0, symName: __ZNSt11_Tuple_implILm0EJP4BookSt14default_deleteIS0_EEEC2Ev, symObjAddr: 0x3DE8, symBinAddr: 0x1000070F8, symSize: 0x28 }
  - { offsetInCU: 0x11BAB, offset: 0x11BAB, size: 0x8, addend: 0x0, symName: __ZNK9__gnu_cxx13new_allocatorINSt7__cxx1112basic_stringIcSt11char_traitsIcESaIcEEEE8max_sizeEv, symObjAddr: 0x3D74, symBinAddr: 0x100007084, symSize: 0x1C }
  - { offsetInCU: 0x11BB3, offset: 0x11BB3, size: 0x8, addend: 0x0, symName: __ZNSt27__uninitialized_default_n_1ILb0EE18__uninit_default_nIPNSt7__cxx1112basic_stringIcSt11char_traitsIcESaIcEEEmEET_S9_T0_, symObjAddr: 0x3D90, symBinAddr: 0x1000070A0, symSize: 0x58 }
  - { offsetInCU: 0x11C52, offset: 0x11C52, size: 0x8, addend: 0x0, symName: __ZSt8_DestroyISt10unique_ptrI15LiteratureEntrySt14default_deleteIS1_EEEvPT_, symObjAddr: 0x3D54, symBinAddr: 0x100007064, symSize: 0x20 }
  - { offsetInCU: 0x11C5A, offset: 0x11C5A, size: 0x8, addend: 0x0, symName: __ZNK9__gnu_cxx13new_allocatorINSt7__cxx1112basic_stringIcSt11char_traitsIcESaIcEEEE8max_sizeEv, symObjAddr: 0x3D74, symBinAddr: 0x100007084, symSize: 0x1C }
  - { offsetInCU: 0x11CA2, offset: 0x11CA2, size: 0x8, addend: 0x0, symName: __ZSt11__addressofISt10unique_ptrI15LiteratureEntrySt14default_deleteIS1_EEEPT_RS5_, symObjAddr: 0x3D40, symBinAddr: 0x100007050, symSize: 0x14 }
  - { offsetInCU: 0x11CAA, offset: 0x11CAA, size: 0x8, addend: 0x0, symName: __ZSt8_DestroyISt10unique_ptrI15LiteratureEntrySt14default_deleteIS1_EEEvPT_, symObjAddr: 0x3D54, symBinAddr: 0x100007064, symSize: 0x20 }
  - { offsetInCU: 0x11D55, offset: 0x11D55, size: 0x8, addend: 0x0, symName: __ZSt12__relocate_aIPNSt7__cxx1112basic_stringIcSt11char_traitsIcESaIcEEES6_SaIS5_EET0_T_S9_S8_RT1_, symObjAddr: 0x3CE4, symBinAddr: 0x100006FF4, symSize: 0x5C }
  - { offsetInCU: 0x11D5D, offset: 0x11D5D, size: 0x8, addend: 0x0, symName: __ZSt11__addressofISt10unique_ptrI15LiteratureEntrySt14default_deleteIS1_EEEPT_RS5_, symObjAddr: 0x3D40, symBinAddr: 0x100007050, symSize: 0x14 }
  - { offsetInCU: 0x11D08, offset: 0x11D08, size: 0x8, addend: 0x0, symName: __ZN9__gnu_cxx13new_allocatorINSt7__cxx1112basic_stringIcSt11char_traitsIcESaIcEEEE8allocateEmPKv, symObjAddr: 0x3C6C, symBinAddr: 0x100006F7C, symSize: 0x78 }
  - { offsetInCU: 0x11D10, offset: 0x11D10, size: 0x8, addend: 0x0, symName: __ZSt12__relocate_aIPNSt7__cxx1112basic_stringIcSt11char_traitsIcESaIcEEES6_SaIS5_EET0_T_S9_S8_RT1_, symObjAddr: 0x3CE4, symBinAddr: 0x100006FF4, symSize: 0x5C }
  - { offsetInCU: 0x11D68, offset: 0x11D68, size: 0x8, addend: 0x0, symName: __ZNK9__gnu_cxx13new_allocatorINSt7__cxx1112basic_stringIcSt11char_traitsIcESaIcEEEE11_M_max_sizeEv, symObjAddr: 0x3C58, symBinAddr: 0x100006F68, symSize: 0x14 }
  - { offsetInCU: 0x11D70, offset: 0x11D70, size: 0x8, addend: 0x0, symName: __ZN9__gnu_cxx13new_allocatorINSt7__cxx1112basic_stringIcSt11char_traitsIcESaIcEEEE8allocateEmPKv, symObjAddr: 0x3C6C, symBinAddr: 0x100006F7C, symSize: 0x78 }
  - { offsetInCU: 0x11D97, offset: 0x11D97, size: 0x8, addend: 0x0, symName: __ZNKSt12_Vector_baseINSt7__cxx1112basic_stringIcSt11char_traitsIcESaIcEEESaIS5_EE19_M_get_Tp_allocatorEv, symObjAddr: 0x3C44, symBinAddr: 0x100006F54, symSize: 0x14 }
  - { offsetInCU: 0x11D9F, offset: 0x11D9F, size: 0x8, addend: 0x0, symName: __ZNK9__gnu_cxx13new_allocatorINSt7__cxx1112basic_stringIcSt11char_traitsIcESaIcEEEE11_M_max_sizeEv, symObjAddr: 0x3C58, symBinAddr: 0x100006F68, symSize: 0x14 }
  - { offsetInCU: 0x11E3A, offset: 0x11E3A, size: 0x8, addend: 0x0, symName: __ZSt8_DestroyINSt7__cxx1112basic_stringIcSt11char_traitsIcESaIcEEEEvPT_, symObjAddr: 0x3C24, symBinAddr: 0x100006F34, symSize: 0x20 }
  - { offsetInCU: 0x11E42, offset: 0x11E42, size: 0x8, addend: 0x0, symName: __ZNKSt12_Vector_baseINSt7__cxx1112basic_stringIcSt11char_traitsIcESaIcEEESaIS5_EE19_M_get_Tp_allocatorEv, symObjAddr: 0x3C44, symBinAddr: 0x100006F54, symSize: 0x14 }
  - { offsetInCU: 0x11E8A, offset: 0x11E8A, size: 0x8, addend: 0x0, symName: __ZSt11__addressofINSt7__cxx1112basic_stringIcSt11char_traitsIcESaIcEEEEPT_RS6_, symObjAddr: 0x3C10, symBinAddr: 0x100006F20, symSize: 0x14 }
  - { offsetInCU: 0x11E92, offset: 0x11E92, size: 0x8, addend: 0x0, symName: __ZSt8_DestroyINSt7__cxx1112basic_stringIcSt11char_traitsIcESaIcEEEEvPT_, symObjAddr: 0x3C24, symBinAddr: 0x100006F34, symSize: 0x20 }
  - { offsetInCU: 0x11F47, offset: 0x11F47, size: 0x8, addend: 0x0, symName: __ZSt12__get_helperILm1ESt14default_deleteISt6vectorINSt7__cxx1112basic_stringIcSt11char_traitsIcESaIcEEESaIS7_EEEJEERT0_RSt11_Tuple_implIXT_EJSB_DpT1_EE, symObjAddr: 0x3BF4, symBinAddr: 0x100006F04, symSize: 0x1C }
  - { offsetInCU: 0x11F4F, offset: 0x11F4F, size: 0x8, addend: 0x0, symName: __ZSt11__addressofINSt7__cxx1112basic_stringIcSt11char_traitsIcESaIcEEEEPT_RS6_, symObjAddr: 0x3C10, symBinAddr: 0x100006F20, symSize: 0x14 }
  - { offsetInCU: 0x11EB1, offset: 0x11EB1, size: 0x8, addend: 0x0, symName: __ZNSt11_Tuple_implILm0EJPSt6vectorINSt7__cxx1112basic_stringIcSt11char_traitsIcESaIcEEESaIS6_EESt14default_deleteIS8_EEE7_M_headERSC_, symObjAddr: 0x3BD8, symBinAddr: 0x100006EE8, symSize: 0x1C }
  - { offsetInCU: 0x11EB9, offset: 0x11EB9, size: 0x8, addend: 0x0, symName: __ZSt12__get_helperILm1ESt14default_deleteISt6vectorINSt7__cxx1112basic_stringIcSt11char_traitsIcESaIcEEESaIS7_EEEJEERT0_RSt11_Tuple_implIXT_EJSB_DpT1_EE, symObjAddr: 0x3BF4, symBinAddr: 0x100006F04, symSize: 0x1C }
  - { offsetInCU: 0x11F75, offset: 0x11F75, size: 0x8, addend: 0x0, symName: __ZSt3getILm0EJP15LiteratureEntrySt14default_deleteIS0_EEERKNSt13tuple_elementIXT_ESt5tupleIJDpT0_EEE4typeERKS8_, symObjAddr: 0x3BBC, symBinAddr: 0x100006ECC, symSize: 0x1C }
  - { offsetInCU: 0x11F7D, offset: 0x11F7D, size: 0x8, addend: 0x0, symName: __ZNSt11_Tuple_implILm0EJPSt6vectorINSt7__cxx1112basic_stringIcSt11char_traitsIcESaIcEEESaIS6_EESt14default_deleteIS8_EEE7_M_headERSC_, symObjAddr: 0x3BD8, symBinAddr: 0x100006EE8, symSize: 0x1C }
  - { offsetInCU: 0x12025, offset: 0x12025, size: 0x8, addend: 0x0, symName: __ZNSt11_Tuple_implILm0EJP15LiteratureEntrySt14default_deleteIS0_EEEC2IRS1_JS2_I6ThesisEEvEEOT_DpOT0_, symObjAddr: 0x3B68, symBinAddr: 0x100006E78, symSize: 0x54 }
  - { offsetInCU: 0x1202D, offset: 0x1202D, size: 0x8, addend: 0x0, symName: __ZSt3getILm0EJP15LiteratureEntrySt14default_deleteIS0_EEERKNSt13tuple_elementIXT_ESt5tupleIJDpT0_EEE4typeERKS8_, symObjAddr: 0x3BBC, symBinAddr: 0x100006ECC, symSize: 0x1C }
  - { offsetInCU: 0x120CF, offset: 0x120CF, size: 0x8, addend: 0x0, symName: __ZSt3getILm1EJP6ThesisSt14default_deleteIS0_EEERNSt13tuple_elementIXT_ESt5tupleIJDpT0_EEE4typeERS8_, symObjAddr: 0x3B4C, symBinAddr: 0x100006E5C, symSize: 0x1C }
  - { offsetInCU: 0x120D7, offset: 0x120D7, size: 0x8, addend: 0x0, symName: __ZNSt11_Tuple_implILm0EJP15LiteratureEntrySt14default_deleteIS0_EEEC2IRS1_JS2_I6ThesisEEvEEOT_DpOT0_, symObjAddr: 0x3B68, symBinAddr: 0x100006E78, symSize: 0x54 }
  - { offsetInCU: 0x12141, offset: 0x12141, size: 0x8, addend: 0x0, symName: __ZSt12__get_helperILm0EP6ThesisJSt14default_deleteIS0_EEERT0_RSt11_Tuple_implIXT_EJS4_DpT1_EE, symObjAddr: 0x3B30, symBinAddr: 0x100006E40, symSize: 0x1C }
  - { offsetInCU: 0x12149, offset: 0x12149, size: 0x8, addend: 0x0, symName: __ZSt3getILm1EJP6ThesisSt14default_deleteIS0_EEERNSt13tuple_elementIXT_ESt5tupleIJDpT0_EEE4typeERS8_, symObjAddr: 0x3B4C, symBinAddr: 0x100006E5C, symSize: 0x1C }
  - { offsetInCU: 0x12175, offset: 0x12175, size: 0x8, addend: 0x0, symName: __ZNSt5tupleIJP6ThesisSt14default_deleteIS0_EEEC1ILb1ELb1EEEv, symObjAddr: 0x3B10, symBinAddr: 0x100006E20, symSize: 0x20 }
  - { offsetInCU: 0x1217D, offset: 0x1217D, size: 0x8, addend: 0x0, symName: __ZSt12__get_helperILm0EP6ThesisJSt14default_deleteIS0_EEERT0_RSt11_Tuple_implIXT_EJS4_DpT1_EE, symObjAddr: 0x3B30, symBinAddr: 0x100006E40, symSize: 0x1C }
  - { offsetInCU: 0x12230, offset: 0x12230, size: 0x8, addend: 0x0, symName: __ZNSt11_Tuple_implILm0EJP15LiteratureEntrySt14default_deleteIS0_EEEC2IRS1_JS2_I7JournalEEvEEOT_DpOT0_, symObjAddr: 0x3ABC, symBinAddr: 0x100006DCC, symSize: 0x54 }
  - { offsetInCU: 0x12238, offset: 0x12238, size: 0x8, addend: 0x0, symName: __ZNSt5tupleIJP6ThesisSt14default_deleteIS0_EEEC1ILb1ELb1EEEv, symObjAddr: 0x3B10, symBinAddr: 0x100006E20, symSize: 0x20 }
  - { offsetInCU: 0x122DC, offset: 0x122DC, size: 0x8, addend: 0x0, symName: __ZSt3getILm1EJP7JournalSt14default_deleteIS0_EEERNSt13tuple_elementIXT_ESt5tupleIJDpT0_EEE4typeERS8_, symObjAddr: 0x3AA0, symBinAddr: 0x100006DB0, symSize: 0x1C }
  - { offsetInCU: 0x122E4, offset: 0x122E4, size: 0x8, addend: 0x0, symName: __ZNSt11_Tuple_implILm0EJP15LiteratureEntrySt14default_deleteIS0_EEEC2IRS1_JS2_I7JournalEEvEEOT_DpOT0_, symObjAddr: 0x3ABC, symBinAddr: 0x100006DCC, symSize: 0x54 }
  - { offsetInCU: 0x1234E, offset: 0x1234E, size: 0x8, addend: 0x0, symName: __ZSt12__get_helperILm0EP7JournalJSt14default_deleteIS0_EEERT0_RSt11_Tuple_implIXT_EJS4_DpT1_EE, symObjAddr: 0x3A84, symBinAddr: 0x100006D94, symSize: 0x1C }
  - { offsetInCU: 0x12356, offset: 0x12356, size: 0x8, addend: 0x0, symName: __ZSt3getILm1EJP7JournalSt14default_deleteIS0_EEERNSt13tuple_elementIXT_ESt5tupleIJDpT0_EEE4typeERS8_, symObjAddr: 0x3AA0, symBinAddr: 0x100006DB0, symSize: 0x1C }
  - { offsetInCU: 0x12380, offset: 0x12380, size: 0x8, addend: 0x0, symName: __ZNSt5tupleIJP7JournalSt14default_deleteIS0_EEEC1ILb1ELb1EEEv, symObjAddr: 0x3A64, symBinAddr: 0x100006D74, symSize: 0x20 }
  - { offsetInCU: 0x12388, offset: 0x12388, size: 0x8, addend: 0x0, symName: __ZSt12__get_helperILm0EP7JournalJSt14default_deleteIS0_EEERT0_RSt11_Tuple_implIXT_EJS4_DpT1_EE, symObjAddr: 0x3A84, symBinAddr: 0x100006D94, symSize: 0x1C }
  - { offsetInCU: 0x1237F, offset: 0x1237F, size: 0x8, addend: 0x0, symName: __ZNK9__gnu_cxx17__normal_iteratorIPSt10unique_ptrI15LiteratureEntrySt14default_deleteIS2_EESt6vectorIS5_SaIS5_EEEmiEl, symObjAddr: 0x3A20, symBinAddr: 0x100006D30, symSize: 0x44 }
  - { offsetInCU: 0x12387, offset: 0x12387, size: 0x8, addend: 0x0, symName: __ZNSt5tupleIJP7JournalSt14default_deleteIS0_EEEC1ILb1ELb1EEEv, symObjAddr: 0x3A64, symBinAddr: 0x100006D74, symSize: 0x20 }
  - { offsetInCU: 0x123C2, offset: 0x123C2, size: 0x8, addend: 0x0, symName: __ZNSt16allocator_traitsISaISt10unique_ptrI15LiteratureEntrySt14default_deleteIS1_EEEE7destroyIS4_EEvRS5_PT_, symObjAddr: 0x39F8, symBinAddr: 0x100006D08, symSize: 0x28 }
  - { offsetInCU: 0x123CA, offset: 0x123CA, size: 0x8, addend: 0x0, symName: __ZNK9__gnu_cxx17__normal_iteratorIPSt10unique_ptrI15LiteratureEntrySt14default_deleteIS2_EESt6vectorIS5_SaIS5_EEEmiEl, symObjAddr: 0x3A20, symBinAddr: 0x100006D30, symSize: 0x44 }
  - { offsetInCU: 0x12415, offset: 0x12415, size: 0x8, addend: 0x0, symName: __ZNSt6vectorISt10unique_ptrI15LiteratureEntrySt14default_deleteIS1_EESaIS4_EE11_S_relocateEPS4_S7_S7_RS5_, symObjAddr: 0x39C4, symBinAddr: 0x100006CD4, symSize: 0x34 }
  - { offsetInCU: 0x1241D, offset: 0x1241D, size: 0x8, addend: 0x0, symName: __ZNSt16allocator_traitsISaISt10unique_ptrI15LiteratureEntrySt14default_deleteIS1_EEEE7destroyIS4_EEvRS5_PT_, symObjAddr: 0x39F8, symBinAddr: 0x100006D08, symSize: 0x28 }
  - { offsetInCU: 0x12483, offset: 0x12483, size: 0x8, addend: 0x0, symName: __ZNSt12_Vector_baseISt10unique_ptrI15LiteratureEntrySt14default_deleteIS1_EESaIS4_EE11_M_allocateEm, symObjAddr: 0x398C, symBinAddr: 0x100006C9C, symSize: 0x38 }
  - { offsetInCU: 0x1248B, offset: 0x1248B, size: 0x8, addend: 0x0, symName: __ZNSt6vectorISt10unique_ptrI15LiteratureEntrySt14default_deleteIS1_EESaIS4_EE11_S_relocateEPS4_S7_S7_RS5_, symObjAddr: 0x39C4, symBinAddr: 0x100006CD4, symSize: 0x34 }
  - { offsetInCU: 0x125C1, offset: 0x125C1, size: 0x8, addend: 0x0, symName: __ZN9__gnu_cxxmiIPSt10unique_ptrI15LiteratureEntrySt14default_deleteIS2_EESt6vectorIS5_SaIS5_EEEENS_17__normal_iteratorIT_T0_E15difference_typeERKSD_SG_, symObjAddr: 0x394C, symBinAddr: 0x100006C5C, symSize: 0x40 }
  - { offsetInCU: 0x125C9, offset: 0x125C9, size: 0x8, addend: 0x0, symName: __ZNSt12_Vector_baseISt10unique_ptrI15LiteratureEntrySt14default_deleteIS1_EESaIS4_EE11_M_allocateEm, symObjAddr: 0x398C, symBinAddr: 0x100006C9C, symSize: 0x38 }
  - { offsetInCU: 0x1253D, offset: 0x1253D, size: 0x8, addend: 0x0, symName: __ZNKSt6vectorISt10unique_ptrI15LiteratureEntrySt14default_deleteIS1_EESaIS4_EE12_M_check_lenEmPKc, symObjAddr: 0x3880, symBinAddr: 0x100006B90, symSize: 0xCC }
  - { offsetInCU: 0x12545, offset: 0x12545, size: 0x8, addend: 0x0, symName: __ZN9__gnu_cxxmiIPSt10unique_ptrI15LiteratureEntrySt14default_deleteIS2_EESt6vectorIS5_SaIS5_EEEENS_17__normal_iteratorIT_T0_E15difference_typeERKSD_SG_, symObjAddr: 0x394C, symBinAddr: 0x100006C5C, symSize: 0x40 }
  - { offsetInCU: 0x125A8, offset: 0x125A8, size: 0x8, addend: 0x0, symName: __ZN9__gnu_cxx13new_allocatorISt10unique_ptrI15LiteratureEntrySt14default_deleteIS2_EEE9constructIS5_JS5_EEEvPT_DpOT0_, symObjAddr: 0x3834, symBinAddr: 0x100006B44, symSize: 0x4C }
  - { offsetInCU: 0x125B0, offset: 0x125B0, size: 0x8, addend: 0x0, symName: __ZNKSt6vectorISt10unique_ptrI15LiteratureEntrySt14default_deleteIS1_EESaIS4_EE12_M_check_lenEmPKc, symObjAddr: 0x3880, symBinAddr: 0x100006B90, symSize: 0xCC }
  - { offsetInCU: 0x1267C, offset: 0x1267C, size: 0x8, addend: 0x0, symName: __ZNSt10unique_ptrI15LiteratureEntrySt14default_deleteIS0_EEC1EOS3_, symObjAddr: 0x380C, symBinAddr: 0x100006B1C, symSize: 0x28 }
  - { offsetInCU: 0x12684, offset: 0x12684, size: 0x8, addend: 0x0, symName: __ZN9__gnu_cxx13new_allocatorISt10unique_ptrI15LiteratureEntrySt14default_deleteIS2_EEE9constructIS5_JS5_EEEvPT_DpOT0_, symObjAddr: 0x3834, symBinAddr: 0x100006B44, symSize: 0x4C }
  - { offsetInCU: 0x126E5, offset: 0x126E5, size: 0x8, addend: 0x0, symName: __ZNSt15__uniq_ptr_dataI15LiteratureEntrySt14default_deleteIS0_ELb1ELb1EEC1EOS3_, symObjAddr: 0x37E4, symBinAddr: 0x100006AF4, symSize: 0x28 }
  - { offsetInCU: 0x126ED, offset: 0x126ED, size: 0x8, addend: 0x0, symName: __ZNSt10unique_ptrI15LiteratureEntrySt14default_deleteIS0_EEC1EOS3_, symObjAddr: 0x380C, symBinAddr: 0x100006B1C, symSize: 0x28 }
  - { offsetInCU: 0x12792, offset: 0x12792, size: 0x8, addend: 0x0, symName: __ZSt3getILm1EJP15LiteratureEntrySt14default_deleteIS0_EEERNSt13tuple_elementIXT_ESt5tupleIJDpT0_EEE4typeERS8_, symObjAddr: 0x37C8, symBinAddr: 0x100006AD8, symSize: 0x1C }
  - { offsetInCU: 0x1279A, offset: 0x1279A, size: 0x8, addend: 0x0, symName: __ZNSt15__uniq_ptr_dataI15LiteratureEntrySt14default_deleteIS0_ELb1ELb1EEC1EOS3_, symObjAddr: 0x37E4, symBinAddr: 0x100006AF4, symSize: 0x28 }
  - { offsetInCU: 0x127BF, offset: 0x127BF, size: 0x8, addend: 0x0, symName: __ZSt12__get_helperILm0EP15LiteratureEntryJSt14default_deleteIS0_EEERT0_RSt11_Tuple_implIXT_EJS4_DpT1_EE, symObjAddr: 0x37AC, symBinAddr: 0x100006ABC, symSize: 0x1C }
  - { offsetInCU: 0x127C7, offset: 0x127C7, size: 0x8, addend: 0x0, symName: __ZSt3getILm1EJP15LiteratureEntrySt14default_deleteIS0_EEERNSt13tuple_elementIXT_ESt5tupleIJDpT0_EEE4typeERS8_, symObjAddr: 0x37C8, symBinAddr: 0x100006AD8, symSize: 0x1C }
  - { offsetInCU: 0x1286F, offset: 0x1286F, size: 0x8, addend: 0x0, symName: __ZNSt11_Tuple_implILm0EJP15LiteratureEntrySt14default_deleteIS0_EEEC2IRS1_JS2_I4BookEEvEEOT_DpOT0_, symObjAddr: 0x3758, symBinAddr: 0x100006A68, symSize: 0x54 }
  - { offsetInCU: 0x12877, offset: 0x12877, size: 0x8, addend: 0x0, symName: __ZSt12__get_helperILm0EP15LiteratureEntryJSt14default_deleteIS0_EEERT0_RSt11_Tuple_implIXT_EJS4_DpT1_EE, symObjAddr: 0x37AC, symBinAddr: 0x100006ABC, symSize: 0x1C }
  - { offsetInCU: 0x128D9, offset: 0x128D9, size: 0x8, addend: 0x0, symName: __ZSt7forwardIRP15LiteratureEntryEOT_RNSt16remove_referenceIS3_E4typeE, symObjAddr: 0x3744, symBinAddr: 0x100006A54, symSize: 0x14 }
  - { offsetInCU: 0x128E1, offset: 0x128E1, size: 0x8, addend: 0x0, symName: __ZNSt11_Tuple_implILm0EJP15LiteratureEntrySt14default_deleteIS0_EEEC2IRS1_JS2_I4BookEEvEEOT_DpOT0_, symObjAddr: 0x3758, symBinAddr: 0x100006A68, symSize: 0x54 }
  - { offsetInCU: 0x12969, offset: 0x12969, size: 0x8, addend: 0x0, symName: __ZSt3getILm1EJP4BookSt14default_deleteIS0_EEERNSt13tuple_elementIXT_ESt5tupleIJDpT0_EEE4typeERS8_, symObjAddr: 0x3728, symBinAddr: 0x100006A38, symSize: 0x1C }
  - { offsetInCU: 0x12971, offset: 0x12971, size: 0x8, addend: 0x0, symName: __ZSt7forwardIRP15LiteratureEntryEOT_RNSt16remove_referenceIS3_E4typeE, symObjAddr: 0x3744, symBinAddr: 0x100006A54, symSize: 0x14 }
  - { offsetInCU: 0x129DB, offset: 0x129DB, size: 0x8, addend: 0x0, symName: __ZSt12__get_helperILm0EP4BookJSt14default_deleteIS0_EEERT0_RSt11_Tuple_implIXT_EJS4_DpT1_EE, symObjAddr: 0x370C, symBinAddr: 0x100006A1C, symSize: 0x1C }
  - { offsetInCU: 0x129E3, offset: 0x129E3, size: 0x8, addend: 0x0, symName: __ZSt3getILm1EJP4BookSt14default_deleteIS0_EEERNSt13tuple_elementIXT_ESt5tupleIJDpT0_EEE4typeERS8_, symObjAddr: 0x3728, symBinAddr: 0x100006A38, symSize: 0x1C }
  - { offsetInCU: 0x12A13, offset: 0x12A13, size: 0x8, addend: 0x0, symName: __ZNSt5tupleIJP4BookSt14default_deleteIS0_EEEC1ILb1ELb1EEEv, symObjAddr: 0x36EC, symBinAddr: 0x1000069FC, symSize: 0x20 }
  - { offsetInCU: 0x12A1B, offset: 0x12A1B, size: 0x8, addend: 0x0, symName: __ZSt12__get_helperILm0EP4BookJSt14default_deleteIS0_EEERT0_RSt11_Tuple_implIXT_EJS4_DpT1_EE, symObjAddr: 0x370C, symBinAddr: 0x100006A1C, symSize: 0x1C }
  - { offsetInCU: 0x12ACA, offset: 0x12ACA, size: 0x8, addend: 0x0, symName: __ZSt25__uninitialized_default_nIPNSt7__cxx1112basic_stringIcSt11char_traitsIcESaIcEEEmET_S7_T0_, symObjAddr: 0x36C0, symBinAddr: 0x1000069D0, symSize: 0x2C }
  - { offsetInCU: 0x12AD2, offset: 0x12AD2, size: 0x8, addend: 0x0, symName: __ZNSt5tupleIJP4BookSt14default_deleteIS0_EEEC1ILb1ELb1EEEv, symObjAddr: 0x36EC, symBinAddr: 0x1000069FC, symSize: 0x20 }
  - { offsetInCU: 0x12A96, offset: 0x12A96, size: 0x8, addend: 0x0, symName: __ZNSt16allocator_traitsISaINSt7__cxx1112basic_stringIcSt11char_traitsIcESaIcEEEEE8max_sizeERKS6_, symObjAddr: 0x36A4, symBinAddr: 0x1000069B4, symSize: 0x1C }
  - { offsetInCU: 0x12A9E, offset: 0x12A9E, size: 0x8, addend: 0x0, symName: __ZSt25__uninitialized_default_nIPNSt7__cxx1112basic_stringIcSt11char_traitsIcESaIcEEEmET_S7_T0_, symObjAddr: 0x36C0, symBinAddr: 0x1000069D0, symSize: 0x2C }
  - { offsetInCU: 0x12AC8, offset: 0x12AC8, size: 0x8, addend: 0x0, symName: __ZNSt12_Destroy_auxILb0EE9__destroyIPSt10unique_ptrI15LiteratureEntrySt14default_deleteIS3_EEEEvT_S8_, symObjAddr: 0x3658, symBinAddr: 0x100006968, symSize: 0x4C }
  - { offsetInCU: 0x12AD0, offset: 0x12AD0, size: 0x8, addend: 0x0, symName: __ZNSt16allocator_traitsISaINSt7__cxx1112basic_stringIcSt11char_traitsIcESaIcEEEEE8max_sizeERKS6_, symObjAddr: 0x36A4, symBinAddr: 0x1000069B4, symSize: 0x1C }
  - { offsetInCU: 0x12B19, offset: 0x12B19, size: 0x8, addend: 0x0, symName: __ZN9__gnu_cxx13new_allocatorISt10unique_ptrI15LiteratureEntrySt14default_deleteIS2_EEE10deallocateEPS5_m, symObjAddr: 0x3628, symBinAddr: 0x100006938, symSize: 0x30 }
  - { offsetInCU: 0x12B21, offset: 0x12B21, size: 0x8, addend: 0x0, symName: __ZNSt12_Destroy_auxILb0EE9__destroyIPSt10unique_ptrI15LiteratureEntrySt14default_deleteIS3_EEEEvT_S8_, symObjAddr: 0x3658, symBinAddr: 0x100006968, symSize: 0x4C }
  - { offsetInCU: 0x12B6E, offset: 0x12B6E, size: 0x8, addend: 0x0, symName: __ZN9__gnu_cxx13new_allocatorINSt7__cxx1112basic_stringIcSt11char_traitsIcESaIcEEEE7destroyIS6_EEvPT_, symObjAddr: 0x3604, symBinAddr: 0x100006914, symSize: 0x24 }
  - { offsetInCU: 0x12B76, offset: 0x12B76, size: 0x8, addend: 0x0, symName: __ZN9__gnu_cxx13new_allocatorISt10unique_ptrI15LiteratureEntrySt14default_deleteIS2_EEE10deallocateEPS5_m, symObjAddr: 0x3628, symBinAddr: 0x100006938, symSize: 0x30 }
  - { offsetInCU: 0x12BBD, offset: 0x12BBD, size: 0x8, addend: 0x0, symName: __ZNSt6vectorINSt7__cxx1112basic_stringIcSt11char_traitsIcESaIcEEESaIS5_EE14_S_do_relocateEPS5_S8_S8_RS6_St17integral_constantIbLb1EE, symObjAddr: 0x35CC, symBinAddr: 0x1000068DC, symSize: 0x38 }
  - { offsetInCU: 0x12BC5, offset: 0x12BC5, size: 0x8, addend: 0x0, symName: __ZN9__gnu_cxx13new_allocatorINSt7__cxx1112basic_stringIcSt11char_traitsIcESaIcEEEE7destroyIS6_EEvPT_, symObjAddr: 0x3604, symBinAddr: 0x100006914, symSize: 0x24 }
  - { offsetInCU: 0x12C37, offset: 0x12C37, size: 0x8, addend: 0x0, symName: __ZNSt16allocator_traitsISaINSt7__cxx1112basic_stringIcSt11char_traitsIcESaIcEEEEE8allocateERS6_m, symObjAddr: 0x35A4, symBinAddr: 0x1000068B4, symSize: 0x28 }
  - { offsetInCU: 0x12C3F, offset: 0x12C3F, size: 0x8, addend: 0x0, symName: __ZNSt6vectorINSt7__cxx1112basic_stringIcSt11char_traitsIcESaIcEEESaIS5_EE14_S_do_relocateEPS5_S8_S8_RS6_St17integral_constantIbLb1EE, symObjAddr: 0x35CC, symBinAddr: 0x1000068DC, symSize: 0x38 }
  - { offsetInCU: 0x12C7D, offset: 0x12C7D, size: 0x8, addend: 0x0, symName: __ZNKSt6vectorINSt7__cxx1112basic_stringIcSt11char_traitsIcESaIcEEESaIS5_EE4sizeEv, symObjAddr: 0x357C, symBinAddr: 0x10000688C, symSize: 0x28 }
  - { offsetInCU: 0x12C85, offset: 0x12C85, size: 0x8, addend: 0x0, symName: __ZNSt16allocator_traitsISaINSt7__cxx1112basic_stringIcSt11char_traitsIcESaIcEEEEE8allocateERS6_m, symObjAddr: 0x35A4, symBinAddr: 0x1000068B4, symSize: 0x28 }
  - { offsetInCU: 0x12CAC, offset: 0x12CAC, size: 0x8, addend: 0x0, symName: __ZNKSt6vectorINSt7__cxx1112basic_stringIcSt11char_traitsIcESaIcEEESaIS5_EE8max_sizeEv, symObjAddr: 0x355C, symBinAddr: 0x10000686C, symSize: 0x20 }
  - { offsetInCU: 0x12CB4, offset: 0x12CB4, size: 0x8, addend: 0x0, symName: __ZNKSt6vectorINSt7__cxx1112basic_stringIcSt11char_traitsIcESaIcEEESaIS5_EE4sizeEv, symObjAddr: 0x357C, symBinAddr: 0x10000688C, symSize: 0x28 }
  - { offsetInCU: 0x12CDB, offset: 0x12CDB, size: 0x8, addend: 0x0, symName: __ZNSt12_Destroy_auxILb0EE9__destroyIPNSt7__cxx1112basic_stringIcSt11char_traitsIcESaIcEEEEEvT_S9_, symObjAddr: 0x3510, symBinAddr: 0x100006820, symSize: 0x4C }
  - { offsetInCU: 0x12CE3, offset: 0x12CE3, size: 0x8, addend: 0x0, symName: __ZNKSt6vectorINSt7__cxx1112basic_stringIcSt11char_traitsIcESaIcEEESaIS5_EE8max_sizeEv, symObjAddr: 0x355C, symBinAddr: 0x10000686C, symSize: 0x20 }
  - { offsetInCU: 0x12D2C, offset: 0x12D2C, size: 0x8, addend: 0x0, symName: __ZN9__gnu_cxx13new_allocatorINSt7__cxx1112basic_stringIcSt11char_traitsIcESaIcEEEE10deallocateEPS6_m, symObjAddr: 0x34E0, symBinAddr: 0x1000067F0, symSize: 0x30 }
  - { offsetInCU: 0x12D34, offset: 0x12D34, size: 0x8, addend: 0x0, symName: __ZNSt12_Destroy_auxILb0EE9__destroyIPNSt7__cxx1112basic_stringIcSt11char_traitsIcESaIcEEEEEvT_S9_, symObjAddr: 0x3510, symBinAddr: 0x100006820, symSize: 0x4C }
  - { offsetInCU: 0x12FDA, offset: 0x12FDA, size: 0x8, addend: 0x0, symName: __ZSt3getILm1EJPSt6vectorINSt7__cxx1112basic_stringIcSt11char_traitsIcESaIcEEESaIS6_EESt14default_deleteIS8_EEERNSt13tuple_elementIXT_ESt5tupleIJDpT0_EEE4typeERSG_, symObjAddr: 0x34C4, symBinAddr: 0x1000067D4, symSize: 0x1C }
  - { offsetInCU: 0x12FE2, offset: 0x12FE2, size: 0x8, addend: 0x0, symName: __ZN9__gnu_cxx13new_allocatorINSt7__cxx1112basic_stringIcSt11char_traitsIcESaIcEEEE10deallocateEPS6_m, symObjAddr: 0x34E0, symBinAddr: 0x1000067F0, symSize: 0x30 }
  - { offsetInCU: 0x12FBB, offset: 0x12FBB, size: 0x8, addend: 0x0, symName: __ZSt12__get_helperILm0EPSt6vectorINSt7__cxx1112basic_stringIcSt11char_traitsIcESaIcEEESaIS6_EEJSt14default_deleteIS8_EEERT0_RSt11_Tuple_implIXT_EJSC_DpT1_EE, symObjAddr: 0x34A8, symBinAddr: 0x1000067B8, symSize: 0x1C }
  - { offsetInCU: 0x12FC3, offset: 0x12FC3, size: 0x8, addend: 0x0, symName: __ZSt3getILm1EJPSt6vectorINSt7__cxx1112basic_stringIcSt11char_traitsIcESaIcEEESaIS6_EESt14default_deleteIS8_EEERNSt13tuple_elementIXT_ESt5tupleIJDpT0_EEE4typeERSG_, symObjAddr: 0x34C4, symBinAddr: 0x1000067D4, symSize: 0x1C }
  - { offsetInCU: 0x12EFC, offset: 0x12EFC, size: 0x8, addend: 0x0, symName: __ZNSt10_Head_baseILm1ESt14default_deleteISt6vectorINSt7__cxx1112basic_stringIcSt11char_traitsIcESaIcEEESaIS7_EEELb1EEC2Ev, symObjAddr: 0x3494, symBinAddr: 0x1000067A4, symSize: 0x14 }
  - { offsetInCU: 0x12F04, offset: 0x12F04, size: 0x8, addend: 0x0, symName: __ZSt12__get_helperILm0EPSt6vectorINSt7__cxx1112basic_stringIcSt11char_traitsIcESaIcEEESaIS6_EEJSt14default_deleteIS8_EEERT0_RSt11_Tuple_implIXT_EJSC_DpT1_EE, symObjAddr: 0x34A8, symBinAddr: 0x1000067B8, symSize: 0x1C }
  - { offsetInCU: 0x12EB0, offset: 0x12EB0, size: 0x8, addend: 0x0, symName: __ZNKSt15__uniq_ptr_implI15LiteratureEntrySt14default_deleteIS0_EE6_M_ptrEv, symObjAddr: 0x3474, symBinAddr: 0x100006784, symSize: 0x20 }
  - { offsetInCU: 0x12EB8, offset: 0x12EB8, size: 0x8, addend: 0x0, symName: __ZNSt10_Head_baseILm1ESt14default_deleteISt6vectorINSt7__cxx1112basic_stringIcSt11char_traitsIcESaIcEEESaIS7_EEELb1EEC2Ev, symObjAddr: 0x3494, symBinAddr: 0x1000067A4, symSize: 0x14 }
  - { offsetInCU: 0x12F8D, offset: 0x12F8D, size: 0x8, addend: 0x0, symName: __ZNSt5tupleIJP15LiteratureEntrySt14default_deleteIS0_EEEC1IRS1_S2_I6ThesisELb1EEEOT_OT0_, symObjAddr: 0x3424, symBinAddr: 0x100006734, symSize: 0x50 }
  - { offsetInCU: 0x12F95, offset: 0x12F95, size: 0x8, addend: 0x0, symName: __ZNKSt15__uniq_ptr_implI15LiteratureEntrySt14default_deleteIS0_EE6_M_ptrEv, symObjAddr: 0x3474, symBinAddr: 0x100006784, symSize: 0x20 }
  - { offsetInCU: 0x12F94, offset: 0x12F94, size: 0x8, addend: 0x0, symName: __ZNSt15__uniq_ptr_implI6ThesisSt14default_deleteIS0_EE7releaseEv, symObjAddr: 0x33F0, symBinAddr: 0x100006700, symSize: 0x34 }
  - { offsetInCU: 0x12F9C, offset: 0x12F9C, size: 0x8, addend: 0x0, symName: __ZNSt5tupleIJP15LiteratureEntrySt14default_deleteIS0_EEEC1IRS1_S2_I6ThesisELb1EEEOT_OT0_, symObjAddr: 0x3424, symBinAddr: 0x100006734, symSize: 0x50 }
  - { offsetInCU: 0x12FD6, offset: 0x12FD6, size: 0x8, addend: 0x0, symName: __ZNSt15__uniq_ptr_implI6ThesisSt14default_deleteIS0_EE10_M_deleterEv, symObjAddr: 0x33D4, symBinAddr: 0x1000066E4, symSize: 0x1C }
  - { offsetInCU: 0x12FDE, offset: 0x12FDE, size: 0x8, addend: 0x0, symName: __ZNSt15__uniq_ptr_implI6ThesisSt14default_deleteIS0_EE7releaseEv, symObjAddr: 0x33F0, symBinAddr: 0x100006700, symSize: 0x34 }
  - { offsetInCU: 0x130AC, offset: 0x130AC, size: 0x8, addend: 0x0, symName: __ZSt3getILm0EJP6ThesisSt14default_deleteIS0_EEERNSt13tuple_elementIXT_ESt5tupleIJDpT0_EEE4typeERS8_, symObjAddr: 0x33B8, symBinAddr: 0x1000066C8, symSize: 0x1C }
  - { offsetInCU: 0x130B4, offset: 0x130B4, size: 0x8, addend: 0x0, symName: __ZNSt15__uniq_ptr_implI6ThesisSt14default_deleteIS0_EE10_M_deleterEv, symObjAddr: 0x33D4, symBinAddr: 0x1000066E4, symSize: 0x1C }
  - { offsetInCU: 0x130EB, offset: 0x130EB, size: 0x8, addend: 0x0, symName: __ZNSt15__uniq_ptr_implI6ThesisSt14default_deleteIS0_EEC2EPS0_, symObjAddr: 0x337C, symBinAddr: 0x10000668C, symSize: 0x3C }
  - { offsetInCU: 0x130F3, offset: 0x130F3, size: 0x8, addend: 0x0, symName: __ZSt3getILm0EJP6ThesisSt14default_deleteIS0_EEERNSt13tuple_elementIXT_ESt5tupleIJDpT0_EEE4typeERS8_, symObjAddr: 0x33B8, symBinAddr: 0x1000066C8, symSize: 0x1C }
  - { offsetInCU: 0x13196, offset: 0x13196, size: 0x8, addend: 0x0, symName: __ZNSt5tupleIJP15LiteratureEntrySt14default_deleteIS0_EEEC1IRS1_S2_I7JournalELb1EEEOT_OT0_, symObjAddr: 0x332C, symBinAddr: 0x10000663C, symSize: 0x50 }
  - { offsetInCU: 0x1319E, offset: 0x1319E, size: 0x8, addend: 0x0, symName: __ZNSt15__uniq_ptr_implI6ThesisSt14default_deleteIS0_EEC2EPS0_, symObjAddr: 0x337C, symBinAddr: 0x10000668C, symSize: 0x3C }
  - { offsetInCU: 0x1319C, offset: 0x1319C, size: 0x8, addend: 0x0, symName: __ZNSt15__uniq_ptr_implI7JournalSt14default_deleteIS0_EE7releaseEv, symObjAddr: 0x32F8, symBinAddr: 0x100006608, symSize: 0x34 }
  - { offsetInCU: 0x131A4, offset: 0x131A4, size: 0x8, addend: 0x0, symName: __ZNSt5tupleIJP15LiteratureEntrySt14default_deleteIS0_EEEC1IRS1_S2_I7JournalELb1EEEOT_OT0_, symObjAddr: 0x332C, symBinAddr: 0x10000663C, symSize: 0x50 }
  - { offsetInCU: 0x131DE, offset: 0x131DE, size: 0x8, addend: 0x0, symName: __ZNSt15__uniq_ptr_implI7JournalSt14default_deleteIS0_EE10_M_deleterEv, symObjAddr: 0x32DC, symBinAddr: 0x1000065EC, symSize: 0x1C }
  - { offsetInCU: 0x131E6, offset: 0x131E6, size: 0x8, addend: 0x0, symName: __ZNSt15__uniq_ptr_implI7JournalSt14default_deleteIS0_EE7releaseEv, symObjAddr: 0x32F8, symBinAddr: 0x100006608, symSize: 0x34 }
  - { offsetInCU: 0x132B7, offset: 0x132B7, size: 0x8, addend: 0x0, symName: __ZSt3getILm0EJP7JournalSt14default_deleteIS0_EEERNSt13tuple_elementIXT_ESt5tupleIJDpT0_EEE4typeERS8_, symObjAddr: 0x32C0, symBinAddr: 0x1000065D0, symSize: 0x1C }
  - { offsetInCU: 0x132BF, offset: 0x132BF, size: 0x8, addend: 0x0, symName: __ZNSt15__uniq_ptr_implI7JournalSt14default_deleteIS0_EE10_M_deleterEv, symObjAddr: 0x32DC, symBinAddr: 0x1000065EC, symSize: 0x1C }
  - { offsetInCU: 0x132F4, offset: 0x132F4, size: 0x8, addend: 0x0, symName: __ZNSt15__uniq_ptr_implI7JournalSt14default_deleteIS0_EEC2EPS0_, symObjAddr: 0x3284, symBinAddr: 0x100006594, symSize: 0x3C }
  - { offsetInCU: 0x132FC, offset: 0x132FC, size: 0x8, addend: 0x0, symName: __ZSt3getILm0EJP7JournalSt14default_deleteIS0_EEERNSt13tuple_elementIXT_ESt5tupleIJDpT0_EEE4typeERS8_, symObjAddr: 0x32C0, symBinAddr: 0x1000065D0, symSize: 0x1C }
  - { offsetInCU: 0x132EF, offset: 0x132EF, size: 0x8, addend: 0x0, symName: __ZNSt6vectorISt10unique_ptrI15LiteratureEntrySt14default_deleteIS1_EESaIS4_EE4backEv, symObjAddr: 0x324C, symBinAddr: 0x10000655C, symSize: 0x38 }
  - { offsetInCU: 0x132F7, offset: 0x132F7, size: 0x8, addend: 0x0, symName: __ZNSt15__uniq_ptr_implI7JournalSt14default_deleteIS0_EEC2EPS0_, symObjAddr: 0x3284, symBinAddr: 0x100006594, symSize: 0x3C }
  - { offsetInCU: 0x1331E, offset: 0x1331E, size: 0x8, addend: 0x0, symName: __ZNSt6vectorISt10unique_ptrI15LiteratureEntrySt14default_deleteIS1_EESaIS4_EE17_M_realloc_insertIJS4_EEEvN9__gnu_cxx17__normal_iteratorIPS4_S6_EEDpOT_, symObjAddr: 0x30D4, symBinAddr: 0x1000063E4, symSize: 0x178 }
  - { offsetInCU: 0x13326, offset: 0x13326, size: 0x8, addend: 0x0, symName: __ZNSt6vectorISt10unique_ptrI15LiteratureEntrySt14default_deleteIS1_EESaIS4_EE4backEv, symObjAddr: 0x324C, symBinAddr: 0x10000655C, symSize: 0x38 }
  - { offsetInCU: 0x133FD, offset: 0x133FD, size: 0x8, addend: 0x0, symName: __ZNSt16allocator_traitsISaISt10unique_ptrI15LiteratureEntrySt14default_deleteIS1_EEEE9constructIS4_JS4_EEEvRS5_PT_DpOT0_, symObjAddr: 0x309C, symBinAddr: 0x1000063AC, symSize: 0x38 }
  - { offsetInCU: 0x13405, offset: 0x13405, size: 0x8, addend: 0x0, symName: __ZNSt6vectorISt10unique_ptrI15LiteratureEntrySt14default_deleteIS1_EESaIS4_EE17_M_realloc_insertIJS4_EEEvN9__gnu_cxx17__normal_iteratorIPS4_S6_EEDpOT_, symObjAddr: 0x30D4, symBinAddr: 0x1000063E4, symSize: 0x178 }
  - { offsetInCU: 0x1350B, offset: 0x1350B, size: 0x8, addend: 0x0, symName: __ZSt7forwardISt10unique_ptrI15LiteratureEntrySt14default_deleteIS1_EEEOT_RNSt16remove_referenceIS5_E4typeE, symObjAddr: 0x3088, symBinAddr: 0x100006398, symSize: 0x14 }
  - { offsetInCU: 0x13513, offset: 0x13513, size: 0x8, addend: 0x0, symName: __ZNSt16allocator_traitsISaISt10unique_ptrI15LiteratureEntrySt14default_deleteIS1_EEEE9constructIS4_JS4_EEEvRS5_PT_DpOT0_, symObjAddr: 0x309C, symBinAddr: 0x1000063AC, symSize: 0x38 }
  - { offsetInCU: 0x134C5, offset: 0x134C5, size: 0x8, addend: 0x0, symName: __ZNSt15__uniq_ptr_implI15LiteratureEntrySt14default_deleteIS0_EE10_M_deleterEv, symObjAddr: 0x306C, symBinAddr: 0x10000637C, symSize: 0x1C }
  - { offsetInCU: 0x134CD, offset: 0x134CD, size: 0x8, addend: 0x0, symName: __ZSt7forwardISt10unique_ptrI15LiteratureEntrySt14default_deleteIS1_EEEOT_RNSt16remove_referenceIS5_E4typeE, symObjAddr: 0x3088, symBinAddr: 0x100006398, symSize: 0x14 }
  - { offsetInCU: 0x1356B, offset: 0x1356B, size: 0x8, addend: 0x0, symName: __ZSt3getILm0EJP15LiteratureEntrySt14default_deleteIS0_EEERNSt13tuple_elementIXT_ESt5tupleIJDpT0_EEE4typeERS8_, symObjAddr: 0x3050, symBinAddr: 0x100006360, symSize: 0x1C }
  - { offsetInCU: 0x13573, offset: 0x13573, size: 0x8, addend: 0x0, symName: __ZNSt15__uniq_ptr_implI15LiteratureEntrySt14default_deleteIS0_EE10_M_deleterEv, symObjAddr: 0x306C, symBinAddr: 0x10000637C, symSize: 0x1C }
  - { offsetInCU: 0x1360F, offset: 0x1360F, size: 0x8, addend: 0x0, symName: __ZNSt5tupleIJP15LiteratureEntrySt14default_deleteIS0_EEEC1IRS1_S2_I4BookELb1EEEOT_OT0_, symObjAddr: 0x3000, symBinAddr: 0x100006310, symSize: 0x50 }
  - { offsetInCU: 0x13617, offset: 0x13617, size: 0x8, addend: 0x0, symName: __ZSt3getILm0EJP15LiteratureEntrySt14default_deleteIS0_EEERNSt13tuple_elementIXT_ESt5tupleIJDpT0_EEE4typeERS8_, symObjAddr: 0x3050, symBinAddr: 0x100006360, symSize: 0x1C }
  - { offsetInCU: 0x13618, offset: 0x13618, size: 0x8, addend: 0x0, symName: __ZNSt15__uniq_ptr_implI4BookSt14default_deleteIS0_EE7releaseEv, symObjAddr: 0x2FCC, symBinAddr: 0x1000062DC, symSize: 0x34 }
  - { offsetInCU: 0x13620, offset: 0x13620, size: 0x8, addend: 0x0, symName: __ZNSt5tupleIJP15LiteratureEntrySt14default_deleteIS0_EEEC1IRS1_S2_I4BookELb1EEEOT_OT0_, symObjAddr: 0x3000, symBinAddr: 0x100006310, symSize: 0x50 }
  - { offsetInCU: 0x1365A, offset: 0x1365A, size: 0x8, addend: 0x0, symName: __ZNSt15__uniq_ptr_implI4BookSt14default_deleteIS0_EE10_M_deleterEv, symObjAddr: 0x2FB0, symBinAddr: 0x1000062C0, symSize: 0x1C }
  - { offsetInCU: 0x13662, offset: 0x13662, size: 0x8, addend: 0x0, symName: __ZNSt15__uniq_ptr_implI4BookSt14default_deleteIS0_EE7releaseEv, symObjAddr: 0x2FCC, symBinAddr: 0x1000062DC, symSize: 0x34 }
  - { offsetInCU: 0x1372A, offset: 0x1372A, size: 0x8, addend: 0x0, symName: __ZSt3getILm0EJP4BookSt14default_deleteIS0_EEERNSt13tuple_elementIXT_ESt5tupleIJDpT0_EEE4typeERS8_, symObjAddr: 0x2F94, symBinAddr: 0x1000062A4, symSize: 0x1C }
  - { offsetInCU: 0x13732, offset: 0x13732, size: 0x8, addend: 0x0, symName: __ZNSt15__uniq_ptr_implI4BookSt14default_deleteIS0_EE10_M_deleterEv, symObjAddr: 0x2FB0, symBinAddr: 0x1000062C0, symSize: 0x1C }
  - { offsetInCU: 0x1376D, offset: 0x1376D, size: 0x8, addend: 0x0, symName: __ZNSt15__uniq_ptr_implI4BookSt14default_deleteIS0_EEC2EPS0_, symObjAddr: 0x2F58, symBinAddr: 0x100006268, symSize: 0x3C }
  - { offsetInCU: 0x13775, offset: 0x13775, size: 0x8, addend: 0x0, symName: __ZSt3getILm0EJP4BookSt14default_deleteIS0_EEERNSt13tuple_elementIXT_ESt5tupleIJDpT0_EEE4typeERS8_, symObjAddr: 0x2F94, symBinAddr: 0x1000062A4, symSize: 0x1C }
  - { offsetInCU: 0x13811, offset: 0x13811, size: 0x8, addend: 0x0, symName: __ZNSt11_Tuple_implILm1EJSt14default_deleteISt6vectorINSt7__cxx1112basic_stringIcSt11char_traitsIcESaIcEEESaIS7_EEEEEC2EOSB_, symObjAddr: 0x2F40, symBinAddr: 0x100006250, symSize: 0x18 }
  - { offsetInCU: 0x13819, offset: 0x13819, size: 0x8, addend: 0x0, symName: __ZNSt15__uniq_ptr_implI4BookSt14default_deleteIS0_EEC2EPS0_, symObjAddr: 0x2F58, symBinAddr: 0x100006268, symSize: 0x3C }
  - { offsetInCU: 0x13A1A, offset: 0x13A1A, size: 0x8, addend: 0x0, symName: __ZSt4moveIRSt5tupleIJPSt6vectorINSt7__cxx1112basic_stringIcSt11char_traitsIcESaIcEEESaIS7_EESt14default_deleteIS9_EEEEONSt16remove_referenceIT_E4typeEOSG_, symObjAddr: 0x2F2C, symBinAddr: 0x10000623C, symSize: 0x14 }
  - { offsetInCU: 0x13A22, offset: 0x13A22, size: 0x8, addend: 0x0, symName: __ZNSt11_Tuple_implILm1EJSt14default_deleteISt6vectorINSt7__cxx1112basic_stringIcSt11char_traitsIcESaIcEEESaIS7_EEEEEC2EOSB_, symObjAddr: 0x2F40, symBinAddr: 0x100006250, symSize: 0x18 }
  - { offsetInCU: 0x138C9, offset: 0x138C9, size: 0x8, addend: 0x0, symName: __ZNSt15__uniq_ptr_implISt6vectorINSt7__cxx1112basic_stringIcSt11char_traitsIcESaIcEEESaIS6_EESt14default_deleteIS8_EEC2EPS8_, symObjAddr: 0x2EF0, symBinAddr: 0x100006200, symSize: 0x3C }
  - { offsetInCU: 0x138D1, offset: 0x138D1, size: 0x8, addend: 0x0, symName: __ZSt4moveIRSt5tupleIJPSt6vectorINSt7__cxx1112basic_stringIcSt11char_traitsIcESaIcEEESaIS7_EESt14default_deleteIS9_EEEEONSt16remove_referenceIT_E4typeEOSG_, symObjAddr: 0x2F2C, symBinAddr: 0x10000623C, symSize: 0x14 }
  - { offsetInCU: 0x1396D, offset: 0x1396D, size: 0x8, addend: 0x0, symName: __ZSt27__uninitialized_default_n_aIPNSt7__cxx1112basic_stringIcSt11char_traitsIcESaIcEEEmS5_ET_S7_T0_RSaIT1_E, symObjAddr: 0x2EC8, symBinAddr: 0x1000061D8, symSize: 0x28 }
  - { offsetInCU: 0x13975, offset: 0x13975, size: 0x8, addend: 0x0, symName: __ZNSt15__uniq_ptr_implISt6vectorINSt7__cxx1112basic_stringIcSt11char_traitsIcESaIcEEESaIS6_EESt14default_deleteIS8_EEC2EPS8_, symObjAddr: 0x2EF0, symBinAddr: 0x100006200, symSize: 0x3C }
  - { offsetInCU: 0x1390C, offset: 0x1390C, size: 0x8, addend: 0x0, symName: __ZNSt12_Vector_baseINSt7__cxx1112basic_stringIcSt11char_traitsIcESaIcEEESaIS5_EE17_M_create_storageEm, symObjAddr: 0x2E68, symBinAddr: 0x100006178, symSize: 0x60 }
  - { offsetInCU: 0x13914, offset: 0x13914, size: 0x8, addend: 0x0, symName: __ZSt27__uninitialized_default_n_aIPNSt7__cxx1112basic_stringIcSt11char_traitsIcESaIcEEEmS5_ET_S7_T0_RSaIT1_E, symObjAddr: 0x2EC8, symBinAddr: 0x1000061D8, symSize: 0x28 }
  - { offsetInCU: 0x139DF, offset: 0x139DF, size: 0x8, addend: 0x0, symName: __ZNSt12_Vector_baseINSt7__cxx1112basic_stringIcSt11char_traitsIcESaIcEEESaIS5_EE12_Vector_implC1ERKS6_, symObjAddr: 0x2E38, symBinAddr: 0x100006148, symSize: 0x30 }
  - { offsetInCU: 0x139E7, offset: 0x139E7, size: 0x8, addend: 0x0, symName: __ZNSt12_Vector_baseINSt7__cxx1112basic_stringIcSt11char_traitsIcESaIcEEESaIS5_EE17_M_create_storageEm, symObjAddr: 0x2E68, symBinAddr: 0x100006178, symSize: 0x60 }
  - { offsetInCU: 0x139B2, offset: 0x139B2, size: 0x8, addend: 0x0, symName: __ZNSt6vectorINSt7__cxx1112basic_stringIcSt11char_traitsIcESaIcEEESaIS5_EE11_S_max_sizeERKS6_, symObjAddr: 0x2E00, symBinAddr: 0x100006110, symSize: 0x38 }
  - { offsetInCU: 0x139BA, offset: 0x139BA, size: 0x8, addend: 0x0, symName: __ZNSt12_Vector_baseINSt7__cxx1112basic_stringIcSt11char_traitsIcESaIcEEESaIS5_EE12_Vector_implC1ERKS6_, symObjAddr: 0x2E38, symBinAddr: 0x100006148, symSize: 0x30 }
  - { offsetInCU: 0x13A87, offset: 0x13A87, size: 0x8, addend: 0x0, symName: __ZSt8_DestroyIPSt10unique_ptrI15LiteratureEntrySt14default_deleteIS1_EEEvT_S6_, symObjAddr: 0x2DD8, symBinAddr: 0x1000060E8, symSize: 0x28 }
  - { offsetInCU: 0x13A8F, offset: 0x13A8F, size: 0x8, addend: 0x0, symName: __ZNSt6vectorINSt7__cxx1112basic_stringIcSt11char_traitsIcESaIcEEESaIS5_EE11_S_max_sizeERKS6_, symObjAddr: 0x2E00, symBinAddr: 0x100006110, symSize: 0x38 }
  - { offsetInCU: 0x13A61, offset: 0x13A61, size: 0x8, addend: 0x0, symName: __ZNSt16allocator_traitsISaISt10unique_ptrI15LiteratureEntrySt14default_deleteIS1_EEEE10deallocateERS5_PS4_m, symObjAddr: 0x2DA8, symBinAddr: 0x1000060B8, symSize: 0x30 }
  - { offsetInCU: 0x13A69, offset: 0x13A69, size: 0x8, addend: 0x0, symName: __ZSt8_DestroyIPSt10unique_ptrI15LiteratureEntrySt14default_deleteIS1_EEEvT_S6_, symObjAddr: 0x2DD8, symBinAddr: 0x1000060E8, symSize: 0x28 }
  - { offsetInCU: 0x13B2F, offset: 0x13B2F, size: 0x8, addend: 0x0, symName: __ZN9__gnu_cxx13new_allocatorISt10unique_ptrI15LiteratureEntrySt14default_deleteIS2_EEEC2Ev, symObjAddr: 0x2D94, symBinAddr: 0x1000060A4, symSize: 0x14 }
  - { offsetInCU: 0x13B37, offset: 0x13B37, size: 0x8, addend: 0x0, symName: __ZNSt16allocator_traitsISaISt10unique_ptrI15LiteratureEntrySt14default_deleteIS1_EEEE10deallocateERS5_PS4_m, symObjAddr: 0x2DA8, symBinAddr: 0x1000060B8, symSize: 0x30 }
  - { offsetInCU: 0x13B7F, offset: 0x13B7F, size: 0x8, addend: 0x0, symName: __ZN9__gnu_cxx13new_allocatorINSt7__cxx1112basic_stringIcSt11char_traitsIcESaIcEEEEC2ERKS7_, symObjAddr: 0x2D7C, symBinAddr: 0x10000608C, symSize: 0x18 }
  - { offsetInCU: 0x13B87, offset: 0x13B87, size: 0x8, addend: 0x0, symName: __ZN9__gnu_cxx13new_allocatorISt10unique_ptrI15LiteratureEntrySt14default_deleteIS2_EEEC2Ev, symObjAddr: 0x2D94, symBinAddr: 0x1000060A4, symSize: 0x14 }
  - { offsetInCU: 0x13B5E, offset: 0x13B5E, size: 0x8, addend: 0x0, symName: __ZNSt16allocator_traitsISaINSt7__cxx1112basic_stringIcSt11char_traitsIcESaIcEEEEE7destroyIS5_EEvRS6_PT_, symObjAddr: 0x2D54, symBinAddr: 0x100006064, symSize: 0x28 }
  - { offsetInCU: 0x13B66, offset: 0x13B66, size: 0x8, addend: 0x0, symName: __ZN9__gnu_cxx13new_allocatorINSt7__cxx1112basic_stringIcSt11char_traitsIcESaIcEEEEC2ERKS7_, symObjAddr: 0x2D7C, symBinAddr: 0x10000608C, symSize: 0x18 }
  - { offsetInCU: 0x13BB1, offset: 0x13BB1, size: 0x8, addend: 0x0, symName: __ZNSt6vectorINSt7__cxx1112basic_stringIcSt11char_traitsIcESaIcEEESaIS5_EE11_S_relocateEPS5_S8_S8_RS6_, symObjAddr: 0x2D20, symBinAddr: 0x100006030, symSize: 0x34 }
  - { offsetInCU: 0x13BB9, offset: 0x13BB9, size: 0x8, addend: 0x0, symName: __ZNSt16allocator_traitsISaINSt7__cxx1112basic_stringIcSt11char_traitsIcESaIcEEEEE7destroyIS5_EEvRS6_PT_, symObjAddr: 0x2D54, symBinAddr: 0x100006064, symSize: 0x28 }
  - { offsetInCU: 0x13C1F, offset: 0x13C1F, size: 0x8, addend: 0x0, symName: __ZNSt12_Vector_baseINSt7__cxx1112basic_stringIcSt11char_traitsIcESaIcEEESaIS5_EE11_M_allocateEm, symObjAddr: 0x2CE8, symBinAddr: 0x100005FF8, symSize: 0x38 }
  - { offsetInCU: 0x13C27, offset: 0x13C27, size: 0x8, addend: 0x0, symName: __ZNSt6vectorINSt7__cxx1112basic_stringIcSt11char_traitsIcESaIcEEESaIS5_EE11_S_relocateEPS5_S8_S8_RS6_, symObjAddr: 0x2D20, symBinAddr: 0x100006030, symSize: 0x34 }
  - { offsetInCU: 0x13D59, offset: 0x13D59, size: 0x8, addend: 0x0, symName: __ZN9__gnu_cxxmiIPNSt7__cxx1112basic_stringIcSt11char_traitsIcESaIcEEESt6vectorIS6_SaIS6_EEEENS_17__normal_iteratorIT_T0_E15difference_typeERKSE_SH_, symObjAddr: 0x2CA8, symBinAddr: 0x100005FB8, symSize: 0x40 }
  - { offsetInCU: 0x13D61, offset: 0x13D61, size: 0x8, addend: 0x0, symName: __ZNSt12_Vector_baseINSt7__cxx1112basic_stringIcSt11char_traitsIcESaIcEEESaIS5_EE11_M_allocateEm, symObjAddr: 0x2CE8, symBinAddr: 0x100005FF8, symSize: 0x38 }
  - { offsetInCU: 0x13CD9, offset: 0x13CD9, size: 0x8, addend: 0x0, symName: __ZNKSt6vectorINSt7__cxx1112basic_stringIcSt11char_traitsIcESaIcEEESaIS5_EE12_M_check_lenEmPKc, symObjAddr: 0x2BDC, symBinAddr: 0x100005EEC, symSize: 0xCC }
  - { offsetInCU: 0x13CE1, offset: 0x13CE1, size: 0x8, addend: 0x0, symName: __ZN9__gnu_cxxmiIPNSt7__cxx1112basic_stringIcSt11char_traitsIcESaIcEEESt6vectorIS6_SaIS6_EEEENS_17__normal_iteratorIT_T0_E15difference_typeERKSE_SH_, symObjAddr: 0x2CA8, symBinAddr: 0x100005FB8, symSize: 0x40 }
  - { offsetInCU: 0x13D44, offset: 0x13D44, size: 0x8, addend: 0x0, symName: __ZN9__gnu_cxx13new_allocatorINSt7__cxx1112basic_stringIcSt11char_traitsIcESaIcEEEE9constructIS6_JRKS6_EEEvPT_DpOT0_, symObjAddr: 0x2B68, symBinAddr: 0x100005E78, symSize: 0x74 }
  - { offsetInCU: 0x13D4C, offset: 0x13D4C, size: 0x8, addend: 0x0, symName: __ZNKSt6vectorINSt7__cxx1112basic_stringIcSt11char_traitsIcESaIcEEESaIS5_EE12_M_check_lenEmPKc, symObjAddr: 0x2BDC, symBinAddr: 0x100005EEC, symSize: 0xCC }
  - { offsetInCU: 0x13E51, offset: 0x13E51, size: 0x8, addend: 0x0, symName: __ZSt7forwardIRKNSt7__cxx1112basic_stringIcSt11char_traitsIcESaIcEEEEOT_RNSt16remove_referenceIS8_E4typeE, symObjAddr: 0x2B54, symBinAddr: 0x100005E64, symSize: 0x14 }
  - { offsetInCU: 0x13E59, offset: 0x13E59, size: 0x8, addend: 0x0, symName: __ZN9__gnu_cxx13new_allocatorINSt7__cxx1112basic_stringIcSt11char_traitsIcESaIcEEEE9constructIS6_JRKS6_EEEvPT_DpOT0_, symObjAddr: 0x2B68, symBinAddr: 0x100005E78, symSize: 0x74 }
  - { offsetInCU: 0x13E7E, offset: 0x13E7E, size: 0x8, addend: 0x0, symName: __ZSt8_DestroyIPNSt7__cxx1112basic_stringIcSt11char_traitsIcESaIcEEEEvT_S7_, symObjAddr: 0x2B2C, symBinAddr: 0x100005E3C, symSize: 0x28 }
  - { offsetInCU: 0x13E86, offset: 0x13E86, size: 0x8, addend: 0x0, symName: __ZSt7forwardIRKNSt7__cxx1112basic_stringIcSt11char_traitsIcESaIcEEEEOT_RNSt16remove_referenceIS8_E4typeE, symObjAddr: 0x2B54, symBinAddr: 0x100005E64, symSize: 0x14 }
  - { offsetInCU: 0x13E5C, offset: 0x13E5C, size: 0x8, addend: 0x0, symName: __ZNSt16allocator_traitsISaINSt7__cxx1112basic_stringIcSt11char_traitsIcESaIcEEEEE10deallocateERS6_PS5_m, symObjAddr: 0x2AFC, symBinAddr: 0x100005E0C, symSize: 0x30 }
  - { offsetInCU: 0x13E64, offset: 0x13E64, size: 0x8, addend: 0x0, symName: __ZSt8_DestroyIPNSt7__cxx1112basic_stringIcSt11char_traitsIcESaIcEEEEvT_S7_, symObjAddr: 0x2B2C, symBinAddr: 0x100005E3C, symSize: 0x28 }
  - { offsetInCU: 0x13EB6, offset: 0x13EB6, size: 0x8, addend: 0x0, symName: __ZNSt15__uniq_ptr_implISt6vectorINSt7__cxx1112basic_stringIcSt11char_traitsIcESaIcEEESaIS6_EESt14default_deleteIS8_EE10_M_deleterEv, symObjAddr: 0x2AE0, symBinAddr: 0x100005DF0, symSize: 0x1C }
  - { offsetInCU: 0x13EBE, offset: 0x13EBE, size: 0x8, addend: 0x0, symName: __ZNSt16allocator_traitsISaINSt7__cxx1112basic_stringIcSt11char_traitsIcESaIcEEEEE10deallocateERS6_PS5_m, symObjAddr: 0x2AFC, symBinAddr: 0x100005E0C, symSize: 0x30 }
  - { offsetInCU: 0x1413E, offset: 0x1413E, size: 0x8, addend: 0x0, symName: __ZSt3getILm0EJPSt6vectorINSt7__cxx1112basic_stringIcSt11char_traitsIcESaIcEEESaIS6_EESt14default_deleteIS8_EEERNSt13tuple_elementIXT_ESt5tupleIJDpT0_EEE4typeERSG_, symObjAddr: 0x2AC4, symBinAddr: 0x100005DD4, symSize: 0x1C }
  - { offsetInCU: 0x14146, offset: 0x14146, size: 0x8, addend: 0x0, symName: __ZNSt15__uniq_ptr_implISt6vectorINSt7__cxx1112basic_stringIcSt11char_traitsIcESaIcEEESaIS6_EESt14default_deleteIS8_EE10_M_deleterEv, symObjAddr: 0x2AE0, symBinAddr: 0x100005DF0, symSize: 0x1C }
  - { offsetInCU: 0x13FE4, offset: 0x13FE4, size: 0x8, addend: 0x0, symName: __ZNSt10_Head_baseILm0EPSt6vectorINSt7__cxx1112basic_stringIcSt11char_traitsIcESaIcEEESaIS6_EELb0EEC2Ev, symObjAddr: 0x2AA8, symBinAddr: 0x100005DB8, symSize: 0x1C }
  - { offsetInCU: 0x13FEC, offset: 0x13FEC, size: 0x8, addend: 0x0, symName: __ZSt3getILm0EJPSt6vectorINSt7__cxx1112basic_stringIcSt11char_traitsIcESaIcEEESaIS6_EESt14default_deleteIS8_EEERNSt13tuple_elementIXT_ESt5tupleIJDpT0_EEE4typeERSG_, symObjAddr: 0x2AC4, symBinAddr: 0x100005DD4, symSize: 0x1C }
  - { offsetInCU: 0x1403D, offset: 0x1403D, size: 0x8, addend: 0x0, symName: __ZNSt11_Tuple_implILm1EJSt14default_deleteISt6vectorINSt7__cxx1112basic_stringIcSt11char_traitsIcESaIcEEESaIS7_EEEEEC2Ev, symObjAddr: 0x2A88, symBinAddr: 0x100005D98, symSize: 0x20 }
  - { offsetInCU: 0x14045, offset: 0x14045, size: 0x8, addend: 0x0, symName: __ZNSt10_Head_baseILm0EPSt6vectorINSt7__cxx1112basic_stringIcSt11char_traitsIcESaIcEEESaIS6_EELb0EEC2Ev, symObjAddr: 0x2AA8, symBinAddr: 0x100005DB8, symSize: 0x1C }
  - { offsetInCU: 0x13FF2, offset: 0x13FF2, size: 0x8, addend: 0x0, symName: __ZNKSt10unique_ptrI15LiteratureEntrySt14default_deleteIS0_EE3getEv, symObjAddr: 0x2A6C, symBinAddr: 0x100005D7C, symSize: 0x1C }
  - { offsetInCU: 0x13FFA, offset: 0x13FFA, size: 0x8, addend: 0x0, symName: __ZNSt11_Tuple_implILm1EJSt14default_deleteISt6vectorINSt7__cxx1112basic_stringIcSt11char_traitsIcESaIcEEESaIS7_EEEEEC2Ev, symObjAddr: 0x2A88, symBinAddr: 0x100005D98, symSize: 0x20 }
  - { offsetInCU: 0x14021, offset: 0x14021, size: 0x8, addend: 0x0, symName: __ZNK9__gnu_cxx17__normal_iteratorIPSt10unique_ptrI15LiteratureEntrySt14default_deleteIS2_EESt6vectorIS5_SaIS5_EEE4baseEv, symObjAddr: 0x2A58, symBinAddr: 0x100005D68, symSize: 0x14 }
  - { offsetInCU: 0x14029, offset: 0x14029, size: 0x8, addend: 0x0, symName: __ZNKSt10unique_ptrI15LiteratureEntrySt14default_deleteIS0_EE3getEv, symObjAddr: 0x2A6C, symBinAddr: 0x100005D7C, symSize: 0x1C }
  - { offsetInCU: 0x140F3, offset: 0x140F3, size: 0x8, addend: 0x0, symName: __ZN9__gnu_cxx17__normal_iteratorIPSt10unique_ptrI15LiteratureEntrySt14default_deleteIS2_EESt6vectorIS5_SaIS5_EEEC1ERKS6_, symObjAddr: 0x2A30, symBinAddr: 0x100005D40, symSize: 0x28 }
  - { offsetInCU: 0x140FB, offset: 0x140FB, size: 0x8, addend: 0x0, symName: __ZNK9__gnu_cxx17__normal_iteratorIPSt10unique_ptrI15LiteratureEntrySt14default_deleteIS2_EESt6vectorIS5_SaIS5_EEE4baseEv, symObjAddr: 0x2A58, symBinAddr: 0x100005D68, symSize: 0x14 }
  - { offsetInCU: 0x14153, offset: 0x14153, size: 0x8, addend: 0x0, symName: __ZNSt15__uniq_ptr_implI15LiteratureEntrySt14default_deleteIS0_EEC2IS1_I6ThesisEEEPS0_OT_, symObjAddr: 0x29E4, symBinAddr: 0x100005CF4, symSize: 0x4C }
  - { offsetInCU: 0x1415B, offset: 0x1415B, size: 0x8, addend: 0x0, symName: __ZN9__gnu_cxx17__normal_iteratorIPSt10unique_ptrI15LiteratureEntrySt14default_deleteIS2_EESt6vectorIS5_SaIS5_EEEC1ERKS6_, symObjAddr: 0x2A30, symBinAddr: 0x100005D40, symSize: 0x28 }
  - { offsetInCU: 0x141C5, offset: 0x141C5, size: 0x8, addend: 0x0, symName: __ZSt7forwardISt14default_deleteI6ThesisEEOT_RNSt16remove_referenceIS3_E4typeE, symObjAddr: 0x29D0, symBinAddr: 0x100005CE0, symSize: 0x14 }
  - { offsetInCU: 0x141CD, offset: 0x141CD, size: 0x8, addend: 0x0, symName: __ZNSt15__uniq_ptr_implI15LiteratureEntrySt14default_deleteIS0_EEC2IS1_I6ThesisEEEPS0_OT_, symObjAddr: 0x29E4, symBinAddr: 0x100005CF4, symSize: 0x4C }
  - { offsetInCU: 0x141A1, offset: 0x141A1, size: 0x8, addend: 0x0, symName: __ZNSt10unique_ptrI6ThesisSt14default_deleteIS0_EE7releaseEv, symObjAddr: 0x29B4, symBinAddr: 0x100005CC4, symSize: 0x1C }
  - { offsetInCU: 0x141A9, offset: 0x141A9, size: 0x8, addend: 0x0, symName: __ZSt7forwardISt14default_deleteI6ThesisEEOT_RNSt16remove_referenceIS3_E4typeE, symObjAddr: 0x29D0, symBinAddr: 0x100005CE0, symSize: 0x14 }
  - { offsetInCU: 0x141D0, offset: 0x141D0, size: 0x8, addend: 0x0, symName: __ZNKSt14default_deleteI6ThesisEclEPS0_, symObjAddr: 0x297C, symBinAddr: 0x100005C8C, symSize: 0x38 }
  - { offsetInCU: 0x141D8, offset: 0x141D8, size: 0x8, addend: 0x0, symName: __ZNSt10unique_ptrI6ThesisSt14default_deleteIS0_EE7releaseEv, symObjAddr: 0x29B4, symBinAddr: 0x100005CC4, symSize: 0x1C }
  - { offsetInCU: 0x1425E, offset: 0x1425E, size: 0x8, addend: 0x0, symName: __ZSt4moveIRP6ThesisEONSt16remove_referenceIT_E4typeEOS4_, symObjAddr: 0x2968, symBinAddr: 0x100005C78, symSize: 0x14 }
  - { offsetInCU: 0x14266, offset: 0x14266, size: 0x8, addend: 0x0, symName: __ZNKSt14default_deleteI6ThesisEclEPS0_, symObjAddr: 0x297C, symBinAddr: 0x100005C8C, symSize: 0x38 }
  - { offsetInCU: 0x14266, offset: 0x14266, size: 0x8, addend: 0x0, symName: __ZNSt10unique_ptrI6ThesisSt14default_deleteIS0_EE11get_deleterEv, symObjAddr: 0x294C, symBinAddr: 0x100005C5C, symSize: 0x1C }
  - { offsetInCU: 0x1426E, offset: 0x1426E, size: 0x8, addend: 0x0, symName: __ZSt4moveIRP6ThesisEONSt16remove_referenceIT_E4typeEOS4_, symObjAddr: 0x2968, symBinAddr: 0x100005C78, symSize: 0x14 }
  - { offsetInCU: 0x14295, offset: 0x14295, size: 0x8, addend: 0x0, symName: __ZNSt15__uniq_ptr_implI6ThesisSt14default_deleteIS0_EE6_M_ptrEv, symObjAddr: 0x2930, symBinAddr: 0x100005C40, symSize: 0x1C }
  - { offsetInCU: 0x1429D, offset: 0x1429D, size: 0x8, addend: 0x0, symName: __ZNSt10unique_ptrI6ThesisSt14default_deleteIS0_EE11get_deleterEv, symObjAddr: 0x294C, symBinAddr: 0x100005C5C, symSize: 0x1C }
  - { offsetInCU: 0x1433B, offset: 0x1433B, size: 0x8, addend: 0x0, symName: __ZNSt10unique_ptrI6ThesisSt14default_deleteIS0_EEC1IS2_vEEPS0_, symObjAddr: 0x2908, symBinAddr: 0x100005C18, symSize: 0x28 }
  - { offsetInCU: 0x14343, offset: 0x14343, size: 0x8, addend: 0x0, symName: __ZNSt15__uniq_ptr_implI6ThesisSt14default_deleteIS0_EE6_M_ptrEv, symObjAddr: 0x2930, symBinAddr: 0x100005C40, symSize: 0x1C }
  - { offsetInCU: 0x143CB, offset: 0x143CB, size: 0x8, addend: 0x0, symName: __ZNSt15__uniq_ptr_dataI6ThesisSt14default_deleteIS0_ELb1ELb1EECI1St15__uniq_ptr_implIS0_S2_EEPS0_, symObjAddr: 0x28E0, symBinAddr: 0x100005BF0, symSize: 0x28 }
  - { offsetInCU: 0x143D3, offset: 0x143D3, size: 0x8, addend: 0x0, symName: __ZNSt10unique_ptrI6ThesisSt14default_deleteIS0_EEC1IS2_vEEPS0_, symObjAddr: 0x2908, symBinAddr: 0x100005C18, symSize: 0x28 }
  - { offsetInCU: 0x14443, offset: 0x14443, size: 0x8, addend: 0x0, symName: __ZNSt15__uniq_ptr_implI15LiteratureEntrySt14default_deleteIS0_EEC2IS1_I7JournalEEEPS0_OT_, symObjAddr: 0x2894, symBinAddr: 0x100005BA4, symSize: 0x4C }
  - { offsetInCU: 0x1444B, offset: 0x1444B, size: 0x8, addend: 0x0, symName: __ZNSt15__uniq_ptr_dataI6ThesisSt14default_deleteIS0_ELb1ELb1EECI1St15__uniq_ptr_implIS0_S2_EEPS0_, symObjAddr: 0x28E0, symBinAddr: 0x100005BF0, symSize: 0x28 }
  - { offsetInCU: 0x144B6, offset: 0x144B6, size: 0x8, addend: 0x0, symName: __ZSt7forwardISt14default_deleteI7JournalEEOT_RNSt16remove_referenceIS3_E4typeE, symObjAddr: 0x2880, symBinAddr: 0x100005B90, symSize: 0x14 }
  - { offsetInCU: 0x144BE, offset: 0x144BE, size: 0x8, addend: 0x0, symName: __ZNSt15__uniq_ptr_implI15LiteratureEntrySt14default_deleteIS0_EEC2IS1_I7JournalEEEPS0_OT_, symObjAddr: 0x2894, symBinAddr: 0x100005BA4, symSize: 0x4C }
  - { offsetInCU: 0x14490, offset: 0x14490, size: 0x8, addend: 0x0, symName: __ZNSt10unique_ptrI7JournalSt14default_deleteIS0_EE7releaseEv, symObjAddr: 0x2864, symBinAddr: 0x100005B74, symSize: 0x1C }
  - { offsetInCU: 0x14498, offset: 0x14498, size: 0x8, addend: 0x0, symName: __ZSt7forwardISt14default_deleteI7JournalEEOT_RNSt16remove_referenceIS3_E4typeE, symObjAddr: 0x2880, symBinAddr: 0x100005B90, symSize: 0x14 }
  - { offsetInCU: 0x144BF, offset: 0x144BF, size: 0x8, addend: 0x0, symName: __ZNKSt14default_deleteI7JournalEclEPS0_, symObjAddr: 0x282C, symBinAddr: 0x100005B3C, symSize: 0x38 }
  - { offsetInCU: 0x144C7, offset: 0x144C7, size: 0x8, addend: 0x0, symName: __ZNSt10unique_ptrI7JournalSt14default_deleteIS0_EE7releaseEv, symObjAddr: 0x2864, symBinAddr: 0x100005B74, symSize: 0x1C }
  - { offsetInCU: 0x1454F, offset: 0x1454F, size: 0x8, addend: 0x0, symName: __ZSt4moveIRP7JournalEONSt16remove_referenceIT_E4typeEOS4_, symObjAddr: 0x2818, symBinAddr: 0x100005B28, symSize: 0x14 }
  - { offsetInCU: 0x14557, offset: 0x14557, size: 0x8, addend: 0x0, symName: __ZNKSt14default_deleteI7JournalEclEPS0_, symObjAddr: 0x282C, symBinAddr: 0x100005B3C, symSize: 0x38 }
  - { offsetInCU: 0x14555, offset: 0x14555, size: 0x8, addend: 0x0, symName: __ZNSt10unique_ptrI7JournalSt14default_deleteIS0_EE11get_deleterEv, symObjAddr: 0x27FC, symBinAddr: 0x100005B0C, symSize: 0x1C }
  - { offsetInCU: 0x1455D, offset: 0x1455D, size: 0x8, addend: 0x0, symName: __ZSt4moveIRP7JournalEONSt16remove_referenceIT_E4typeEOS4_, symObjAddr: 0x2818, symBinAddr: 0x100005B28, symSize: 0x14 }
  - { offsetInCU: 0x14584, offset: 0x14584, size: 0x8, addend: 0x0, symName: __ZNSt15__uniq_ptr_implI7JournalSt14default_deleteIS0_EE6_M_ptrEv, symObjAddr: 0x27E0, symBinAddr: 0x100005AF0, symSize: 0x1C }
  - { offsetInCU: 0x1458C, offset: 0x1458C, size: 0x8, addend: 0x0, symName: __ZNSt10unique_ptrI7JournalSt14default_deleteIS0_EE11get_deleterEv, symObjAddr: 0x27FC, symBinAddr: 0x100005B0C, symSize: 0x1C }
  - { offsetInCU: 0x1462B, offset: 0x1462B, size: 0x8, addend: 0x0, symName: __ZNSt10unique_ptrI7JournalSt14default_deleteIS0_EEC1IS2_vEEPS0_, symObjAddr: 0x27B8, symBinAddr: 0x100005AC8, symSize: 0x28 }
  - { offsetInCU: 0x14633, offset: 0x14633, size: 0x8, addend: 0x0, symName: __ZNSt15__uniq_ptr_implI7JournalSt14default_deleteIS0_EE6_M_ptrEv, symObjAddr: 0x27E0, symBinAddr: 0x100005AF0, symSize: 0x1C }
  - { offsetInCU: 0x146BB, offset: 0x146BB, size: 0x8, addend: 0x0, symName: __ZNSt15__uniq_ptr_dataI7JournalSt14default_deleteIS0_ELb1ELb1EECI1St15__uniq_ptr_implIS0_S2_EEPS0_, symObjAddr: 0x2790, symBinAddr: 0x100005AA0, symSize: 0x28 }
  - { offsetInCU: 0x146C3, offset: 0x146C3, size: 0x8, addend: 0x0, symName: __ZNSt10unique_ptrI7JournalSt14default_deleteIS0_EEC1IS2_vEEPS0_, symObjAddr: 0x27B8, symBinAddr: 0x100005AC8, symSize: 0x28 }
  - { offsetInCU: 0x14692, offset: 0x14692, size: 0x8, addend: 0x0, symName: __ZNSt6vectorISt10unique_ptrI15LiteratureEntrySt14default_deleteIS1_EESaIS4_EE12emplace_backIJS4_EEERS4_DpOT_, symObjAddr: 0x26F0, symBinAddr: 0x100005A00, symSize: 0xA0 }
  - { offsetInCU: 0x1469A, offset: 0x1469A, size: 0x8, addend: 0x0, symName: __ZNSt15__uniq_ptr_dataI7JournalSt14default_deleteIS0_ELb1ELb1EECI1St15__uniq_ptr_implIS0_S2_EEPS0_, symObjAddr: 0x2790, symBinAddr: 0x100005AA0, symSize: 0x28 }
  - { offsetInCU: 0x14776, offset: 0x14776, size: 0x8, addend: 0x0, symName: __ZSt4moveIRSt10unique_ptrI15LiteratureEntrySt14default_deleteIS1_EEEONSt16remove_referenceIT_E4typeEOS7_, symObjAddr: 0x26DC, symBinAddr: 0x1000059EC, symSize: 0x14 }
  - { offsetInCU: 0x1477E, offset: 0x1477E, size: 0x8, addend: 0x0, symName: __ZNSt6vectorISt10unique_ptrI15LiteratureEntrySt14default_deleteIS1_EESaIS4_EE12emplace_backIJS4_EEERS4_DpOT_, symObjAddr: 0x26F0, symBinAddr: 0x100005A00, symSize: 0xA0 }
  - { offsetInCU: 0x14735, offset: 0x14735, size: 0x8, addend: 0x0, symName: __ZNKSt14default_deleteI15LiteratureEntryEclEPS0_, symObjAddr: 0x26A4, symBinAddr: 0x1000059B4, symSize: 0x38 }
  - { offsetInCU: 0x1473D, offset: 0x1473D, size: 0x8, addend: 0x0, symName: __ZSt4moveIRSt10unique_ptrI15LiteratureEntrySt14default_deleteIS1_EEEONSt16remove_referenceIT_E4typeEOS7_, symObjAddr: 0x26DC, symBinAddr: 0x1000059EC, symSize: 0x14 }
  - { offsetInCU: 0x147D6, offset: 0x147D6, size: 0x8, addend: 0x0, symName: __ZSt4moveIRP15LiteratureEntryEONSt16remove_referenceIT_E4typeEOS4_, symObjAddr: 0x2690, symBinAddr: 0x1000059A0, symSize: 0x14 }
  - { offsetInCU: 0x147DE, offset: 0x147DE, size: 0x8, addend: 0x0, symName: __ZNKSt14default_deleteI15LiteratureEntryEclEPS0_, symObjAddr: 0x26A4, symBinAddr: 0x1000059B4, symSize: 0x38 }
  - { offsetInCU: 0x147CB, offset: 0x147CB, size: 0x8, addend: 0x0, symName: __ZNSt10unique_ptrI15LiteratureEntrySt14default_deleteIS0_EE11get_deleterEv, symObjAddr: 0x2674, symBinAddr: 0x100005984, symSize: 0x1C }
  - { offsetInCU: 0x147D3, offset: 0x147D3, size: 0x8, addend: 0x0, symName: __ZSt4moveIRP15LiteratureEntryEONSt16remove_referenceIT_E4typeEOS4_, symObjAddr: 0x2690, symBinAddr: 0x1000059A0, symSize: 0x14 }
  - { offsetInCU: 0x147FA, offset: 0x147FA, size: 0x8, addend: 0x0, symName: __ZNSt15__uniq_ptr_implI15LiteratureEntrySt14default_deleteIS0_EE6_M_ptrEv, symObjAddr: 0x2658, symBinAddr: 0x100005968, symSize: 0x1C }
  - { offsetInCU: 0x14802, offset: 0x14802, size: 0x8, addend: 0x0, symName: __ZNSt10unique_ptrI15LiteratureEntrySt14default_deleteIS0_EE11get_deleterEv, symObjAddr: 0x2674, symBinAddr: 0x100005984, symSize: 0x1C }
  - { offsetInCU: 0x148C6, offset: 0x148C6, size: 0x8, addend: 0x0, symName: __ZNSt15__uniq_ptr_implI15LiteratureEntrySt14default_deleteIS0_EEC2IS1_I4BookEEEPS0_OT_, symObjAddr: 0x260C, symBinAddr: 0x10000591C, symSize: 0x4C }
  - { offsetInCU: 0x148CE, offset: 0x148CE, size: 0x8, addend: 0x0, symName: __ZNSt15__uniq_ptr_implI15LiteratureEntrySt14default_deleteIS0_EE6_M_ptrEv, symObjAddr: 0x2658, symBinAddr: 0x100005968, symSize: 0x1C }
  - { offsetInCU: 0x14936, offset: 0x14936, size: 0x8, addend: 0x0, symName: __ZSt7forwardISt14default_deleteI4BookEEOT_RNSt16remove_referenceIS3_E4typeE, symObjAddr: 0x25F8, symBinAddr: 0x100005908, symSize: 0x14 }
  - { offsetInCU: 0x1493E, offset: 0x1493E, size: 0x8, addend: 0x0, symName: __ZNSt15__uniq_ptr_implI15LiteratureEntrySt14default_deleteIS0_EEC2IS1_I4BookEEEPS0_OT_, symObjAddr: 0x260C, symBinAddr: 0x10000591C, symSize: 0x4C }
  - { offsetInCU: 0x14916, offset: 0x14916, size: 0x8, addend: 0x0, symName: __ZNSt10unique_ptrI4BookSt14default_deleteIS0_EE7releaseEv, symObjAddr: 0x25DC, symBinAddr: 0x1000058EC, symSize: 0x1C }
  - { offsetInCU: 0x1491E, offset: 0x1491E, size: 0x8, addend: 0x0, symName: __ZSt7forwardISt14default_deleteI4BookEEOT_RNSt16remove_referenceIS3_E4typeE, symObjAddr: 0x25F8, symBinAddr: 0x100005908, symSize: 0x14 }
  - { offsetInCU: 0x14945, offset: 0x14945, size: 0x8, addend: 0x0, symName: __ZNKSt14default_deleteI4BookEclEPS0_, symObjAddr: 0x25A4, symBinAddr: 0x1000058B4, symSize: 0x38 }
  - { offsetInCU: 0x1494D, offset: 0x1494D, size: 0x8, addend: 0x0, symName: __ZNSt10unique_ptrI4BookSt14default_deleteIS0_EE7releaseEv, symObjAddr: 0x25DC, symBinAddr: 0x1000058EC, symSize: 0x1C }
  - { offsetInCU: 0x149CF, offset: 0x149CF, size: 0x8, addend: 0x0, symName: __ZSt4moveIRP4BookEONSt16remove_referenceIT_E4typeEOS4_, symObjAddr: 0x2590, symBinAddr: 0x1000058A0, symSize: 0x14 }
  - { offsetInCU: 0x149D7, offset: 0x149D7, size: 0x8, addend: 0x0, symName: __ZNKSt14default_deleteI4BookEclEPS0_, symObjAddr: 0x25A4, symBinAddr: 0x1000058B4, symSize: 0x38 }
  - { offsetInCU: 0x149DB, offset: 0x149DB, size: 0x8, addend: 0x0, symName: __ZNSt10unique_ptrI4BookSt14default_deleteIS0_EE11get_deleterEv, symObjAddr: 0x2574, symBinAddr: 0x100005884, symSize: 0x1C }
  - { offsetInCU: 0x149E3, offset: 0x149E3, size: 0x8, addend: 0x0, symName: __ZSt4moveIRP4BookEONSt16remove_referenceIT_E4typeEOS4_, symObjAddr: 0x2590, symBinAddr: 0x1000058A0, symSize: 0x14 }
  - { offsetInCU: 0x14A0A, offset: 0x14A0A, size: 0x8, addend: 0x0, symName: __ZNSt15__uniq_ptr_implI4BookSt14default_deleteIS0_EE6_M_ptrEv, symObjAddr: 0x2558, symBinAddr: 0x100005868, symSize: 0x1C }
  - { offsetInCU: 0x14A12, offset: 0x14A12, size: 0x8, addend: 0x0, symName: __ZNSt10unique_ptrI4BookSt14default_deleteIS0_EE11get_deleterEv, symObjAddr: 0x2574, symBinAddr: 0x100005884, symSize: 0x1C }
  - { offsetInCU: 0x14AAE, offset: 0x14AAE, size: 0x8, addend: 0x0, symName: __ZNSt10unique_ptrI4BookSt14default_deleteIS0_EEC1IS2_vEEPS0_, symObjAddr: 0x2530, symBinAddr: 0x100005840, symSize: 0x28 }
  - { offsetInCU: 0x14AB6, offset: 0x14AB6, size: 0x8, addend: 0x0, symName: __ZNSt15__uniq_ptr_implI4BookSt14default_deleteIS0_EE6_M_ptrEv, symObjAddr: 0x2558, symBinAddr: 0x100005868, symSize: 0x1C }
  - { offsetInCU: 0x14B3E, offset: 0x14B3E, size: 0x8, addend: 0x0, symName: __ZNSt15__uniq_ptr_dataI4BookSt14default_deleteIS0_ELb1ELb1EECI1St15__uniq_ptr_implIS0_S2_EEPS0_, symObjAddr: 0x2508, symBinAddr: 0x100005818, symSize: 0x28 }
  - { offsetInCU: 0x14B46, offset: 0x14B46, size: 0x8, addend: 0x0, symName: __ZNSt10unique_ptrI4BookSt14default_deleteIS0_EEC1IS2_vEEPS0_, symObjAddr: 0x2530, symBinAddr: 0x100005840, symSize: 0x28 }
  - { offsetInCU: 0x14BBE, offset: 0x14BBE, size: 0x8, addend: 0x0, symName: __ZNSt15__uniq_ptr_implISt6vectorINSt7__cxx1112basic_stringIcSt11char_traitsIcESaIcEEESaIS6_EESt14default_deleteIS8_EEC2EOSB_, symObjAddr: 0x24C0, symBinAddr: 0x1000057D0, symSize: 0x48 }
  - { offsetInCU: 0x14BC6, offset: 0x14BC6, size: 0x8, addend: 0x0, symName: __ZNSt15__uniq_ptr_dataI4BookSt14default_deleteIS0_ELb1ELb1EECI1St15__uniq_ptr_implIS0_S2_EEPS0_, symObjAddr: 0x2508, symBinAddr: 0x100005818, symSize: 0x28 }
  - { offsetInCU: 0x14C12, offset: 0x14C12, size: 0x8, addend: 0x0, symName: __ZNSt5tupleIJPSt6vectorINSt7__cxx1112basic_stringIcSt11char_traitsIcESaIcEEESaIS6_EESt14default_deleteIS8_EEEC1EOSC_, symObjAddr: 0x2498, symBinAddr: 0x1000057A8, symSize: 0x28 }
  - { offsetInCU: 0x14C1A, offset: 0x14C1A, size: 0x8, addend: 0x0, symName: __ZNSt15__uniq_ptr_implISt6vectorINSt7__cxx1112basic_stringIcSt11char_traitsIcESaIcEEESaIS6_EESt14default_deleteIS8_EEC2EOSB_, symObjAddr: 0x24C0, symBinAddr: 0x1000057D0, symSize: 0x48 }
  - { offsetInCU: 0x14C79, offset: 0x14C79, size: 0x8, addend: 0x0, symName: __ZNSt11_Tuple_implILm0EJPSt6vectorINSt7__cxx1112basic_stringIcSt11char_traitsIcESaIcEEESaIS6_EESt14default_deleteIS8_EEEC2EOSC_, symObjAddr: 0x2460, symBinAddr: 0x100005770, symSize: 0x38 }
  - { offsetInCU: 0x14C81, offset: 0x14C81, size: 0x8, addend: 0x0, symName: __ZNSt5tupleIJPSt6vectorINSt7__cxx1112basic_stringIcSt11char_traitsIcESaIcEEESaIS6_EESt14default_deleteIS8_EEEC1EOSC_, symObjAddr: 0x2498, symBinAddr: 0x1000057A8, symSize: 0x28 }
  - { offsetInCU: 0x14C7A, offset: 0x14C7A, size: 0x8, addend: 0x0, symName: __ZSt7forwardIfEOT_RNSt16remove_referenceIS0_E4typeE, symObjAddr: 0x244C, symBinAddr: 0x10000575C, symSize: 0x14 }
  - { offsetInCU: 0x14C82, offset: 0x14C82, size: 0x8, addend: 0x0, symName: __ZNSt11_Tuple_implILm0EJPSt6vectorINSt7__cxx1112basic_stringIcSt11char_traitsIcESaIcEEESaIS6_EESt14default_deleteIS8_EEEC2EOSC_, symObjAddr: 0x2460, symBinAddr: 0x100005770, symSize: 0x38 }
  - { offsetInCU: 0x14D80, offset: 0x14D80, size: 0x8, addend: 0x0, symName: __ZSt7forwardISt10unique_ptrISt6vectorINSt7__cxx1112basic_stringIcSt11char_traitsIcESaIcEEESaIS7_EESt14default_deleteIS9_EEEOT_RNSt16remove_referenceISD_E4typeE, symObjAddr: 0x2438, symBinAddr: 0x100005748, symSize: 0x14 }
  - { offsetInCU: 0x14D88, offset: 0x14D88, size: 0x8, addend: 0x0, symName: __ZSt7forwardIfEOT_RNSt16remove_referenceIS0_E4typeE, symObjAddr: 0x244C, symBinAddr: 0x10000575C, symSize: 0x14 }
  - { offsetInCU: 0x14D7C, offset: 0x14D7C, size: 0x8, addend: 0x0, symName: __ZSt7forwardIRNSt7__cxx1112basic_stringIcSt11char_traitsIcESaIcEEEEOT_RNSt16remove_referenceIS7_E4typeE, symObjAddr: 0x2424, symBinAddr: 0x100005734, symSize: 0x14 }
  - { offsetInCU: 0x14D84, offset: 0x14D84, size: 0x8, addend: 0x0, symName: __ZSt7forwardISt10unique_ptrISt6vectorINSt7__cxx1112basic_stringIcSt11char_traitsIcESaIcEEESaIS7_EESt14default_deleteIS9_EEEOT_RNSt16remove_referenceISD_E4typeE, symObjAddr: 0x2438, symBinAddr: 0x100005748, symSize: 0x14 }
  - { offsetInCU: 0x14DEF, offset: 0x14DEF, size: 0x8, addend: 0x0, symName: __ZNSt10unique_ptrISt6vectorINSt7__cxx1112basic_stringIcSt11char_traitsIcESaIcEEESaIS6_EESt14default_deleteIS8_EEC1ISA_vEEPS8_, symObjAddr: 0x23FC, symBinAddr: 0x10000570C, symSize: 0x28 }
  - { offsetInCU: 0x14DF7, offset: 0x14DF7, size: 0x8, addend: 0x0, symName: __ZSt7forwardIRNSt7__cxx1112basic_stringIcSt11char_traitsIcESaIcEEEEOT_RNSt16remove_referenceIS7_E4typeE, symObjAddr: 0x2424, symBinAddr: 0x100005734, symSize: 0x14 }
  - { offsetInCU: 0x14E7F, offset: 0x14E7F, size: 0x8, addend: 0x0, symName: __ZNSt15__uniq_ptr_dataISt6vectorINSt7__cxx1112basic_stringIcSt11char_traitsIcESaIcEEESaIS6_EESt14default_deleteIS8_ELb1ELb1EECI1St15__uniq_ptr_implIS8_SA_EEPS8_, symObjAddr: 0x23D4, symBinAddr: 0x1000056E4, symSize: 0x28 }
  - { offsetInCU: 0x14E87, offset: 0x14E87, size: 0x8, addend: 0x0, symName: __ZNSt10unique_ptrISt6vectorINSt7__cxx1112basic_stringIcSt11char_traitsIcESaIcEEESaIS6_EESt14default_deleteIS8_EEC1ISA_vEEPS8_, symObjAddr: 0x23FC, symBinAddr: 0x10000570C, symSize: 0x28 }
  - { offsetInCU: 0x14ECE, offset: 0x14ECE, size: 0x8, addend: 0x0, symName: __ZSt7forwardISt6vectorINSt7__cxx1112basic_stringIcSt11char_traitsIcESaIcEEESaIS6_EEEOT_RNSt16remove_referenceIS9_E4typeE, symObjAddr: 0x23C0, symBinAddr: 0x1000056D0, symSize: 0x14 }
  - { offsetInCU: 0x14ED6, offset: 0x14ED6, size: 0x8, addend: 0x0, symName: __ZNSt15__uniq_ptr_dataISt6vectorINSt7__cxx1112basic_stringIcSt11char_traitsIcESaIcEEESaIS6_EESt14default_deleteIS8_ELb1ELb1EECI1St15__uniq_ptr_implIS8_SA_EEPS8_, symObjAddr: 0x23D4, symBinAddr: 0x1000056E4, symSize: 0x28 }
  - { offsetInCU: 0x14E6C, offset: 0x14E6C, size: 0x8, addend: 0x0, symName: __ZNK9__gnu_cxx17__normal_iteratorIPNSt7__cxx1112basic_stringIcSt11char_traitsIcESaIcEEESt6vectorIS6_SaIS6_EEE4baseEv, symObjAddr: 0x23AC, symBinAddr: 0x1000056BC, symSize: 0x14 }
  - { offsetInCU: 0x14E74, offset: 0x14E74, size: 0x8, addend: 0x0, symName: __ZSt7forwardISt6vectorINSt7__cxx1112basic_stringIcSt11char_traitsIcESaIcEEESaIS6_EEEOT_RNSt16remove_referenceIS9_E4typeE, symObjAddr: 0x23C0, symBinAddr: 0x1000056D0, symSize: 0x14 }
  - { offsetInCU: 0x14F3A, offset: 0x14F3A, size: 0x8, addend: 0x0, symName: __ZN9__gnu_cxx17__normal_iteratorIPNSt7__cxx1112basic_stringIcSt11char_traitsIcESaIcEEESt6vectorIS6_SaIS6_EEEC1ERKS7_, symObjAddr: 0x2384, symBinAddr: 0x100005694, symSize: 0x28 }
  - { offsetInCU: 0x14F42, offset: 0x14F42, size: 0x8, addend: 0x0, symName: __ZNK9__gnu_cxx17__normal_iteratorIPNSt7__cxx1112basic_stringIcSt11char_traitsIcESaIcEEESt6vectorIS6_SaIS6_EEE4baseEv, symObjAddr: 0x23AC, symBinAddr: 0x1000056BC, symSize: 0x14 }
  - { offsetInCU: 0x14EFF, offset: 0x14EFF, size: 0x8, addend: 0x0, symName: __ZNSt6vectorINSt7__cxx1112basic_stringIcSt11char_traitsIcESaIcEEESaIS5_EE21_M_default_initializeEm, symObjAddr: 0x2334, symBinAddr: 0x100005644, symSize: 0x50 }
  - { offsetInCU: 0x14F07, offset: 0x14F07, size: 0x8, addend: 0x0, symName: __ZN9__gnu_cxx17__normal_iteratorIPNSt7__cxx1112basic_stringIcSt11char_traitsIcESaIcEEESt6vectorIS6_SaIS6_EEEC1ERKS7_, symObjAddr: 0x2384, symBinAddr: 0x100005694, symSize: 0x28 }
  - { offsetInCU: 0x14FD7, offset: 0x14FD7, size: 0x8, addend: 0x0, symName: __ZNSt12_Vector_baseINSt7__cxx1112basic_stringIcSt11char_traitsIcESaIcEEESaIS5_EEC2EmRKS6_, symObjAddr: 0x22E0, symBinAddr: 0x1000055F0, symSize: 0x54 }
  - { offsetInCU: 0x14FDF, offset: 0x14FDF, size: 0x8, addend: 0x0, symName: __ZNSt6vectorINSt7__cxx1112basic_stringIcSt11char_traitsIcESaIcEEESaIS5_EE21_M_default_initializeEm, symObjAddr: 0x2334, symBinAddr: 0x100005644, symSize: 0x50 }
  - { offsetInCU: 0x14FC3, offset: 0x14FC3, size: 0x8, addend: 0x0, symName: __ZNSt6vectorINSt7__cxx1112basic_stringIcSt11char_traitsIcESaIcEEESaIS5_EE17_S_check_init_lenEmRKS6_, symObjAddr: 0x2278, symBinAddr: 0x100005588, symSize: 0x68 }
  - { offsetInCU: 0x14FCB, offset: 0x14FCB, size: 0x8, addend: 0x0, symName: __ZNSt12_Vector_baseINSt7__cxx1112basic_stringIcSt11char_traitsIcESaIcEEESaIS5_EEC2EmRKS6_, symObjAddr: 0x22E0, symBinAddr: 0x1000055F0, symSize: 0x54 }
  - { offsetInCU: 0x15079, offset: 0x15079, size: 0x8, addend: 0x0, symName: __ZN9__gnu_cxx13new_allocatorINSt7__cxx1112basic_stringIcSt11char_traitsIcESaIcEEEEC2Ev, symObjAddr: 0x2264, symBinAddr: 0x100005574, symSize: 0x14 }
  - { offsetInCU: 0x15081, offset: 0x15081, size: 0x8, addend: 0x0, symName: __ZNSt6vectorINSt7__cxx1112basic_stringIcSt11char_traitsIcESaIcEEESaIS5_EE17_S_check_init_lenEmRKS6_, symObjAddr: 0x2278, symBinAddr: 0x100005588, symSize: 0x68 }
  - { offsetInCU: 0x150FA, offset: 0x150FA, size: 0x8, addend: 0x0, symName: __ZSt8_DestroyIPSt10unique_ptrI15LiteratureEntrySt14default_deleteIS1_EES4_EvT_S6_RSaIT0_E, symObjAddr: 0x2238, symBinAddr: 0x100005548, symSize: 0x2C }
  - { offsetInCU: 0x15102, offset: 0x15102, size: 0x8, addend: 0x0, symName: __ZN9__gnu_cxx13new_allocatorINSt7__cxx1112basic_stringIcSt11char_traitsIcESaIcEEEEC2Ev, symObjAddr: 0x2264, symBinAddr: 0x100005574, symSize: 0x14 }
  - { offsetInCU: 0x150C1, offset: 0x150C1, size: 0x8, addend: 0x0, symName: __ZNSt12_Vector_baseISt10unique_ptrI15LiteratureEntrySt14default_deleteIS1_EESaIS4_EE19_M_get_Tp_allocatorEv, symObjAddr: 0x2224, symBinAddr: 0x100005534, symSize: 0x14 }
  - { offsetInCU: 0x150C9, offset: 0x150C9, size: 0x8, addend: 0x0, symName: __ZSt8_DestroyIPSt10unique_ptrI15LiteratureEntrySt14default_deleteIS1_EES4_EvT_S6_RSaIT0_E, symObjAddr: 0x2238, symBinAddr: 0x100005548, symSize: 0x2C }
  - { offsetInCU: 0x150F0, offset: 0x150F0, size: 0x8, addend: 0x0, symName: __ZNSt12_Vector_baseISt10unique_ptrI15LiteratureEntrySt14default_deleteIS1_EESaIS4_EE13_M_deallocateEPS4_m, symObjAddr: 0x21E8, symBinAddr: 0x1000054F8, symSize: 0x3C }
  - { offsetInCU: 0x150F8, offset: 0x150F8, size: 0x8, addend: 0x0, symName: __ZNSt12_Vector_baseISt10unique_ptrI15LiteratureEntrySt14default_deleteIS1_EESaIS4_EE19_M_get_Tp_allocatorEv, symObjAddr: 0x2224, symBinAddr: 0x100005534, symSize: 0x14 }
  - { offsetInCU: 0x151C9, offset: 0x151C9, size: 0x8, addend: 0x0, symName: __ZN9__gnu_cxx13new_allocatorISt10unique_ptrI15LiteratureEntrySt14default_deleteIS2_EEED2Ev, symObjAddr: 0x21D4, symBinAddr: 0x1000054E4, symSize: 0x14 }
  - { offsetInCU: 0x151D1, offset: 0x151D1, size: 0x8, addend: 0x0, symName: __ZNSt12_Vector_baseISt10unique_ptrI15LiteratureEntrySt14default_deleteIS1_EESaIS4_EE13_M_deallocateEPS4_m, symObjAddr: 0x21E8, symBinAddr: 0x1000054F8, symSize: 0x3C }
  - { offsetInCU: 0x15221, offset: 0x15221, size: 0x8, addend: 0x0, symName: __ZNSt12_Vector_baseISt10unique_ptrI15LiteratureEntrySt14default_deleteIS1_EESaIS4_EE17_Vector_impl_dataC2Ev, symObjAddr: 0x21A8, symBinAddr: 0x1000054B8, symSize: 0x2C }
  - { offsetInCU: 0x15229, offset: 0x15229, size: 0x8, addend: 0x0, symName: __ZN9__gnu_cxx13new_allocatorISt10unique_ptrI15LiteratureEntrySt14default_deleteIS2_EEED2Ev, symObjAddr: 0x21D4, symBinAddr: 0x1000054E4, symSize: 0x14 }
  - { offsetInCU: 0x15240, offset: 0x15240, size: 0x8, addend: 0x0, symName: __ZNSaISt10unique_ptrI15LiteratureEntrySt14default_deleteIS0_EEEC2Ev, symObjAddr: 0x2188, symBinAddr: 0x100005498, symSize: 0x20 }
  - { offsetInCU: 0x15248, offset: 0x15248, size: 0x8, addend: 0x0, symName: __ZNSt12_Vector_baseISt10unique_ptrI15LiteratureEntrySt14default_deleteIS1_EESaIS4_EE17_Vector_impl_dataC2Ev, symObjAddr: 0x21A8, symBinAddr: 0x1000054B8, symSize: 0x2C }
  - { offsetInCU: 0x152BE, offset: 0x152BE, size: 0x8, addend: 0x0, symName: __ZNSt12_Vector_baseINSt7__cxx1112basic_stringIcSt11char_traitsIcESaIcEEESaIS5_EE17_Vector_impl_dataC2EOS8_, symObjAddr: 0x2118, symBinAddr: 0x100005428, symSize: 0x70 }
  - { offsetInCU: 0x152C6, offset: 0x152C6, size: 0x8, addend: 0x0, symName: __ZNSaISt10unique_ptrI15LiteratureEntrySt14default_deleteIS0_EEEC2Ev, symObjAddr: 0x2188, symBinAddr: 0x100005498, symSize: 0x20 }
  - { offsetInCU: 0x152FA, offset: 0x152FA, size: 0x8, addend: 0x0, symName: __ZNSaINSt7__cxx1112basic_stringIcSt11char_traitsIcESaIcEEEEC1ERKS5_, symObjAddr: 0x20F0, symBinAddr: 0x100005400, symSize: 0x28 }
  - { offsetInCU: 0x15302, offset: 0x15302, size: 0x8, addend: 0x0, symName: __ZNSt12_Vector_baseINSt7__cxx1112basic_stringIcSt11char_traitsIcESaIcEEESaIS5_EE17_Vector_impl_dataC2EOS8_, symObjAddr: 0x2118, symBinAddr: 0x100005428, symSize: 0x70 }
  - { offsetInCU: 0x15334, offset: 0x15334, size: 0x8, addend: 0x0, symName: __ZNSaINSt7__cxx1112basic_stringIcSt11char_traitsIcESaIcEEEEC2ERKS5_, symObjAddr: 0x20C8, symBinAddr: 0x1000053D8, symSize: 0x28 }
  - { offsetInCU: 0x1533C, offset: 0x1533C, size: 0x8, addend: 0x0, symName: __ZNSaINSt7__cxx1112basic_stringIcSt11char_traitsIcESaIcEEEEC1ERKS5_, symObjAddr: 0x20F0, symBinAddr: 0x100005400, symSize: 0x28 }
  - { offsetInCU: 0x15439, offset: 0x15439, size: 0x8, addend: 0x0, symName: __ZSt4moveIRNSt12_Vector_baseINSt7__cxx1112basic_stringIcSt11char_traitsIcESaIcEEESaIS6_EE12_Vector_implEEONSt16remove_referenceIT_E4typeEOSC_, symObjAddr: 0x20B4, symBinAddr: 0x1000053C4, symSize: 0x14 }
  - { offsetInCU: 0x15441, offset: 0x15441, size: 0x8, addend: 0x0, symName: __ZNSaINSt7__cxx1112basic_stringIcSt11char_traitsIcESaIcEEEEC2ERKS5_, symObjAddr: 0x20C8, symBinAddr: 0x1000053D8, symSize: 0x28 }
  - { offsetInCU: 0x15388, offset: 0x15388, size: 0x8, addend: 0x0, symName: __ZNSt6vectorINSt7__cxx1112basic_stringIcSt11char_traitsIcESaIcEEESaIS5_EE17_M_realloc_insertIJRKS5_EEEvN9__gnu_cxx17__normal_iteratorIPS5_S7_EEDpOT_, symObjAddr: 0x1ECC, symBinAddr: 0x1000051DC, symSize: 0x1E8 }
  - { offsetInCU: 0x15390, offset: 0x15390, size: 0x8, addend: 0x0, symName: __ZSt4moveIRNSt12_Vector_baseINSt7__cxx1112basic_stringIcSt11char_traitsIcESaIcEEESaIS6_EE12_Vector_implEEONSt16remove_referenceIT_E4typeEOSC_, symObjAddr: 0x20B4, symBinAddr: 0x1000053C4, symSize: 0x14 }
  - { offsetInCU: 0x15467, offset: 0x15467, size: 0x8, addend: 0x0, symName: __ZNSt16allocator_traitsISaINSt7__cxx1112basic_stringIcSt11char_traitsIcESaIcEEEEE9constructIS5_JRKS5_EEEvRS6_PT_DpOT0_, symObjAddr: 0x1E94, symBinAddr: 0x1000051A4, symSize: 0x38 }
  - { offsetInCU: 0x1546F, offset: 0x1546F, size: 0x8, addend: 0x0, symName: __ZNSt6vectorINSt7__cxx1112basic_stringIcSt11char_traitsIcESaIcEEESaIS5_EE17_M_realloc_insertIJRKS5_EEEvN9__gnu_cxx17__normal_iteratorIPS5_S7_EEDpOT_, symObjAddr: 0x1ECC, symBinAddr: 0x1000051DC, symSize: 0x1E8 }
  - { offsetInCU: 0x15581, offset: 0x15581, size: 0x8, addend: 0x0, symName: __ZSt8_DestroyIPNSt7__cxx1112basic_stringIcSt11char_traitsIcESaIcEEES5_EvT_S7_RSaIT0_E, symObjAddr: 0x1E68, symBinAddr: 0x100005178, symSize: 0x2C }
  - { offsetInCU: 0x15589, offset: 0x15589, size: 0x8, addend: 0x0, symName: __ZNSt16allocator_traitsISaINSt7__cxx1112basic_stringIcSt11char_traitsIcESaIcEEEEE9constructIS5_JRKS5_EEEvRS6_PT_DpOT0_, symObjAddr: 0x1E94, symBinAddr: 0x1000051A4, symSize: 0x38 }
  - { offsetInCU: 0x1554C, offset: 0x1554C, size: 0x8, addend: 0x0, symName: __ZNSt12_Vector_baseINSt7__cxx1112basic_stringIcSt11char_traitsIcESaIcEEESaIS5_EE19_M_get_Tp_allocatorEv, symObjAddr: 0x1E54, symBinAddr: 0x100005164, symSize: 0x14 }
  - { offsetInCU: 0x15554, offset: 0x15554, size: 0x8, addend: 0x0, symName: __ZSt8_DestroyIPNSt7__cxx1112basic_stringIcSt11char_traitsIcESaIcEEES5_EvT_S7_RSaIT0_E, symObjAddr: 0x1E68, symBinAddr: 0x100005178, symSize: 0x2C }
  - { offsetInCU: 0x1557B, offset: 0x1557B, size: 0x8, addend: 0x0, symName: __ZNSt12_Vector_baseINSt7__cxx1112basic_stringIcSt11char_traitsIcESaIcEEESaIS5_EE13_M_deallocateEPS5_m, symObjAddr: 0x1E18, symBinAddr: 0x100005128, symSize: 0x3C }
  - { offsetInCU: 0x15583, offset: 0x15583, size: 0x8, addend: 0x0, symName: __ZNSt12_Vector_baseINSt7__cxx1112basic_stringIcSt11char_traitsIcESaIcEEESaIS5_EE19_M_get_Tp_allocatorEv, symObjAddr: 0x1E54, symBinAddr: 0x100005164, symSize: 0x14 }
  - { offsetInCU: 0x15650, offset: 0x15650, size: 0x8, addend: 0x0, symName: __ZN9__gnu_cxx13new_allocatorINSt7__cxx1112basic_stringIcSt11char_traitsIcESaIcEEEED2Ev, symObjAddr: 0x1E04, symBinAddr: 0x100005114, symSize: 0x14 }
  - { offsetInCU: 0x15658, offset: 0x15658, size: 0x8, addend: 0x0, symName: __ZNSt12_Vector_baseINSt7__cxx1112basic_stringIcSt11char_traitsIcESaIcEEESaIS5_EE13_M_deallocateEPS5_m, symObjAddr: 0x1E18, symBinAddr: 0x100005128, symSize: 0x3C }
  - { offsetInCU: 0x156A8, offset: 0x156A8, size: 0x8, addend: 0x0, symName: __ZNSt12_Vector_baseINSt7__cxx1112basic_stringIcSt11char_traitsIcESaIcEEESaIS5_EE17_Vector_impl_dataC2Ev, symObjAddr: 0x1DD8, symBinAddr: 0x1000050E8, symSize: 0x2C }
  - { offsetInCU: 0x156B0, offset: 0x156B0, size: 0x8, addend: 0x0, symName: __ZN9__gnu_cxx13new_allocatorINSt7__cxx1112basic_stringIcSt11char_traitsIcESaIcEEEED2Ev, symObjAddr: 0x1E04, symBinAddr: 0x100005114, symSize: 0x14 }
  - { offsetInCU: 0x1566E, offset: 0x1566E, size: 0x8, addend: 0x0, symName: __ZNKSt14default_deleteISt6vectorINSt7__cxx1112basic_stringIcSt11char_traitsIcESaIcEEESaIS6_EEEclEPS8_, symObjAddr: 0x1D94, symBinAddr: 0x1000050A4, symSize: 0x44 }
  - { offsetInCU: 0x15676, offset: 0x15676, size: 0x8, addend: 0x0, symName: __ZNSt12_Vector_baseINSt7__cxx1112basic_stringIcSt11char_traitsIcESaIcEEESaIS5_EE17_Vector_impl_dataC2Ev, symObjAddr: 0x1DD8, symBinAddr: 0x1000050E8, symSize: 0x2C }
  - { offsetInCU: 0x15763, offset: 0x15763, size: 0x8, addend: 0x0, symName: __ZSt4moveIRPSt6vectorINSt7__cxx1112basic_stringIcSt11char_traitsIcESaIcEEESaIS6_EEEONSt16remove_referenceIT_E4typeEOSC_, symObjAddr: 0x1D80, symBinAddr: 0x100005090, symSize: 0x14 }
  - { offsetInCU: 0x1576B, offset: 0x1576B, size: 0x8, addend: 0x0, symName: __ZNKSt14default_deleteISt6vectorINSt7__cxx1112basic_stringIcSt11char_traitsIcESaIcEEESaIS6_EEEclEPS8_, symObjAddr: 0x1D94, symBinAddr: 0x1000050A4, symSize: 0x44 }
  - { offsetInCU: 0x15704, offset: 0x15704, size: 0x8, addend: 0x0, symName: __ZNSt10unique_ptrISt6vectorINSt7__cxx1112basic_stringIcSt11char_traitsIcESaIcEEESaIS6_EESt14default_deleteIS8_EE11get_deleterEv, symObjAddr: 0x1D64, symBinAddr: 0x100005074, symSize: 0x1C }
  - { offsetInCU: 0x1570C, offset: 0x1570C, size: 0x8, addend: 0x0, symName: __ZSt4moveIRPSt6vectorINSt7__cxx1112basic_stringIcSt11char_traitsIcESaIcEEESaIS6_EEEONSt16remove_referenceIT_E4typeEOSC_, symObjAddr: 0x1D80, symBinAddr: 0x100005090, symSize: 0x14 }
  - { offsetInCU: 0x15733, offset: 0x15733, size: 0x8, addend: 0x0, symName: __ZNSt15__uniq_ptr_implISt6vectorINSt7__cxx1112basic_stringIcSt11char_traitsIcESaIcEEESaIS6_EESt14default_deleteIS8_EE6_M_ptrEv, symObjAddr: 0x1D48, symBinAddr: 0x100005058, symSize: 0x1C }
  - { offsetInCU: 0x1573B, offset: 0x1573B, size: 0x8, addend: 0x0, symName: __ZNSt10unique_ptrISt6vectorINSt7__cxx1112basic_stringIcSt11char_traitsIcESaIcEEESaIS6_EESt14default_deleteIS8_EE11get_deleterEv, symObjAddr: 0x1D64, symBinAddr: 0x100005074, symSize: 0x1C }
  - { offsetInCU: 0x157F8, offset: 0x157F8, size: 0x8, addend: 0x0, symName: __ZNSt11_Tuple_implILm0EJPSt6vectorINSt7__cxx1112basic_stringIcSt11char_traitsIcESaIcEEESaIS6_EESt14default_deleteIS8_EEEC2Ev, symObjAddr: 0x1D20, symBinAddr: 0x100005030, symSize: 0x28 }
  - { offsetInCU: 0x15800, offset: 0x15800, size: 0x8, addend: 0x0, symName: __ZNSt15__uniq_ptr_implISt6vectorINSt7__cxx1112basic_stringIcSt11char_traitsIcESaIcEEESaIS6_EESt14default_deleteIS8_EE6_M_ptrEv, symObjAddr: 0x1D48, symBinAddr: 0x100005058, symSize: 0x1C }
  - { offsetInCU: 0x1583A, offset: 0x1583A, size: 0x8, addend: 0x0, symName: __ZSt4moveIRNSt7__cxx1112basic_stringIcSt11char_traitsIcESaIcEEEEONSt16remove_referenceIT_E4typeEOS8_, symObjAddr: 0x1D0C, symBinAddr: 0x10000501C, symSize: 0x14 }
  - { offsetInCU: 0x15842, offset: 0x15842, size: 0x8, addend: 0x0, symName: __ZNSt11_Tuple_implILm0EJPSt6vectorINSt7__cxx1112basic_stringIcSt11char_traitsIcESaIcEEESaIS6_EESt14default_deleteIS8_EEEC2Ev, symObjAddr: 0x1D20, symBinAddr: 0x100005030, symSize: 0x28 }
  - { offsetInCU: 0x157FD, offset: 0x157FD, size: 0x8, addend: 0x0, symName: __ZNKSt10unique_ptrI15LiteratureEntrySt14default_deleteIS0_EEptEv, symObjAddr: 0x1CF0, symBinAddr: 0x100005000, symSize: 0x1C }
  - { offsetInCU: 0x15805, offset: 0x15805, size: 0x8, addend: 0x0, symName: __ZSt4moveIRNSt7__cxx1112basic_stringIcSt11char_traitsIcESaIcEEEEONSt16remove_referenceIT_E4typeEOS8_, symObjAddr: 0x1D0C, symBinAddr: 0x10000501C, symSize: 0x14 }
  - { offsetInCU: 0x1582C, offset: 0x1582C, size: 0x8, addend: 0x0, symName: __ZNK9__gnu_cxx17__normal_iteratorIPSt10unique_ptrI15LiteratureEntrySt14default_deleteIS2_EESt6vectorIS5_SaIS5_EEEdeEv, symObjAddr: 0x1CD8, symBinAddr: 0x100004FE8, symSize: 0x18 }
  - { offsetInCU: 0x15834, offset: 0x15834, size: 0x8, addend: 0x0, symName: __ZNKSt10unique_ptrI15LiteratureEntrySt14default_deleteIS0_EEptEv, symObjAddr: 0x1CF0, symBinAddr: 0x100005000, symSize: 0x1C }
  - { offsetInCU: 0x1585B, offset: 0x1585B, size: 0x8, addend: 0x0, symName: __ZN9__gnu_cxx17__normal_iteratorIPSt10unique_ptrI15LiteratureEntrySt14default_deleteIS2_EESt6vectorIS5_SaIS5_EEEppEv, symObjAddr: 0x1CB0, symBinAddr: 0x100004FC0, symSize: 0x28 }
  - { offsetInCU: 0x15863, offset: 0x15863, size: 0x8, addend: 0x0, symName: __ZNK9__gnu_cxx17__normal_iteratorIPSt10unique_ptrI15LiteratureEntrySt14default_deleteIS2_EESt6vectorIS5_SaIS5_EEEdeEv, symObjAddr: 0x1CD8, symBinAddr: 0x100004FE8, symSize: 0x18 }
  - { offsetInCU: 0x15973, offset: 0x15973, size: 0x8, addend: 0x0, symName: __ZN9__gnu_cxxneIPSt10unique_ptrI15LiteratureEntrySt14default_deleteIS2_EESt6vectorIS5_SaIS5_EEEEbRKNS_17__normal_iteratorIT_T0_EESF_, symObjAddr: 0x1C6C, symBinAddr: 0x100004F7C, symSize: 0x44 }
  - { offsetInCU: 0x1597B, offset: 0x1597B, size: 0x8, addend: 0x0, symName: __ZN9__gnu_cxx17__normal_iteratorIPSt10unique_ptrI15LiteratureEntrySt14default_deleteIS2_EESt6vectorIS5_SaIS5_EEEppEv, symObjAddr: 0x1CB0, symBinAddr: 0x100004FC0, symSize: 0x28 }
  - { offsetInCU: 0x158F7, offset: 0x158F7, size: 0x8, addend: 0x0, symName: __ZNSt6vectorISt10unique_ptrI15LiteratureEntrySt14default_deleteIS1_EESaIS4_EE3endEv, symObjAddr: 0x1C44, symBinAddr: 0x100004F54, symSize: 0x28 }
  - { offsetInCU: 0x158FF, offset: 0x158FF, size: 0x8, addend: 0x0, symName: __ZN9__gnu_cxxneIPSt10unique_ptrI15LiteratureEntrySt14default_deleteIS2_EESt6vectorIS5_SaIS5_EEEEbRKNS_17__normal_iteratorIT_T0_EESF_, symObjAddr: 0x1C6C, symBinAddr: 0x100004F7C, symSize: 0x44 }
  - { offsetInCU: 0x15926, offset: 0x15926, size: 0x8, addend: 0x0, symName: __ZNSt6vectorISt10unique_ptrI15LiteratureEntrySt14default_deleteIS1_EESaIS4_EE5beginEv, symObjAddr: 0x1C20, symBinAddr: 0x100004F30, symSize: 0x24 }
  - { offsetInCU: 0x1592E, offset: 0x1592E, size: 0x8, addend: 0x0, symName: __ZNSt6vectorISt10unique_ptrI15LiteratureEntrySt14default_deleteIS1_EESaIS4_EE3endEv, symObjAddr: 0x1C44, symBinAddr: 0x100004F54, symSize: 0x28 }
  - { offsetInCU: 0x15ACF, offset: 0x15ACF, size: 0x8, addend: 0x0, symName: __ZNSt10unique_ptrI15LiteratureEntrySt14default_deleteIS0_EEC1I6ThesisS1_IS5_EvEEOS_IT_T0_E, symObjAddr: 0x1BD0, symBinAddr: 0x100004EE0, symSize: 0x50 }
  - { offsetInCU: 0x15AD7, offset: 0x15AD7, size: 0x8, addend: 0x0, symName: __ZNSt6vectorISt10unique_ptrI15LiteratureEntrySt14default_deleteIS1_EESaIS4_EE5beginEv, symObjAddr: 0x1C20, symBinAddr: 0x100004F30, symSize: 0x24 }
  - { offsetInCU: 0x15B80, offset: 0x15B80, size: 0x8, addend: 0x0, symName: __ZNSt15__uniq_ptr_dataI15LiteratureEntrySt14default_deleteIS0_ELb1ELb1EECI1St15__uniq_ptr_implIS0_S2_EIS1_I6ThesisEEEPS0_OT_, symObjAddr: 0x1BA0, symBinAddr: 0x100004EB0, symSize: 0x30 }
  - { offsetInCU: 0x15B88, offset: 0x15B88, size: 0x8, addend: 0x0, symName: __ZNSt10unique_ptrI15LiteratureEntrySt14default_deleteIS0_EEC1I6ThesisS1_IS5_EvEEOS_IT_T0_E, symObjAddr: 0x1BD0, symBinAddr: 0x100004EE0, symSize: 0x50 }
  - { offsetInCU: 0x15BC6, offset: 0x15BC6, size: 0x8, addend: 0x0, symName: __ZNSt10unique_ptrI6ThesisSt14default_deleteIS0_EED1Ev, symObjAddr: 0x1B38, symBinAddr: 0x100004E48, symSize: 0x68 }
  - { offsetInCU: 0x15BCE, offset: 0x15BCE, size: 0x8, addend: 0x0, symName: __ZNSt15__uniq_ptr_dataI15LiteratureEntrySt14default_deleteIS0_ELb1ELb1EECI1St15__uniq_ptr_implIS0_S2_EIS1_I6ThesisEEEPS0_OT_, symObjAddr: 0x1BA0, symBinAddr: 0x100004EB0, symSize: 0x30 }
  - { offsetInCU: 0x160CC, offset: 0x160CC, size: 0x8, addend: 0x0, symName: __ZSt11make_uniqueI6ThesisJRNSt7__cxx1112basic_stringIcSt11char_traitsIcESaIcEEESt10unique_ptrISt6vectorIS6_SaIS6_EESt14default_deleteISB_EEiS7_SE_EENSt9_MakeUniqIT_E15__single_objectEDpOT0_, symObjAddr: 0x1A1C, symBinAddr: 0x100004D2C, symSize: 0x11C }
  - { offsetInCU: 0x160D4, offset: 0x160D4, size: 0x8, addend: 0x0, symName: __ZNSt10unique_ptrI6ThesisSt14default_deleteIS0_EED1Ev, symObjAddr: 0x1B38, symBinAddr: 0x100004E48, symSize: 0x68 }
  - { offsetInCU: 0x15D44, offset: 0x15D44, size: 0x8, addend: 0x0, symName: __ZNSt10unique_ptrI15LiteratureEntrySt14default_deleteIS0_EEC1I7JournalS1_IS5_EvEEOS_IT_T0_E, symObjAddr: 0x19CC, symBinAddr: 0x100004CDC, symSize: 0x50 }
  - { offsetInCU: 0x15D4C, offset: 0x15D4C, size: 0x8, addend: 0x0, symName: __ZSt11make_uniqueI6ThesisJRNSt7__cxx1112basic_stringIcSt11char_traitsIcESaIcEEESt10unique_ptrISt6vectorIS6_SaIS6_EESt14default_deleteISB_EEiS7_SE_EENSt9_MakeUniqIT_E15__single_objectEDpOT0_, symObjAddr: 0x1A1C, symBinAddr: 0x100004D2C, symSize: 0x11C }
  - { offsetInCU: 0x15DF5, offset: 0x15DF5, size: 0x8, addend: 0x0, symName: __ZNSt15__uniq_ptr_dataI15LiteratureEntrySt14default_deleteIS0_ELb1ELb1EECI1St15__uniq_ptr_implIS0_S2_EIS1_I7JournalEEEPS0_OT_, symObjAddr: 0x199C, symBinAddr: 0x100004CAC, symSize: 0x30 }
  - { offsetInCU: 0x15DFD, offset: 0x15DFD, size: 0x8, addend: 0x0, symName: __ZNSt10unique_ptrI15LiteratureEntrySt14default_deleteIS0_EEC1I7JournalS1_IS5_EvEEOS_IT_T0_E, symObjAddr: 0x19CC, symBinAddr: 0x100004CDC, symSize: 0x50 }
  - { offsetInCU: 0x15E3B, offset: 0x15E3B, size: 0x8, addend: 0x0, symName: __ZNSt10unique_ptrI7JournalSt14default_deleteIS0_EED1Ev, symObjAddr: 0x1934, symBinAddr: 0x100004C44, symSize: 0x68 }
  - { offsetInCU: 0x15E43, offset: 0x15E43, size: 0x8, addend: 0x0, symName: __ZNSt15__uniq_ptr_dataI15LiteratureEntrySt14default_deleteIS0_ELb1ELb1EECI1St15__uniq_ptr_implIS0_S2_EIS1_I7JournalEEEPS0_OT_, symObjAddr: 0x199C, symBinAddr: 0x100004CAC, symSize: 0x30 }
  - { offsetInCU: 0x161A2, offset: 0x161A2, size: 0x8, addend: 0x0, symName: __ZSt11make_uniqueI7JournalJRNSt7__cxx1112basic_stringIcSt11char_traitsIcESaIcEEESt10unique_ptrISt6vectorIS6_SaIS6_EESt14default_deleteISB_EEifS7_iEENSt9_MakeUniqIT_E15__single_objectEDpOT0_, symObjAddr: 0x17F4, symBinAddr: 0x100004B04, symSize: 0x140 }
  - { offsetInCU: 0x161AA, offset: 0x161AA, size: 0x8, addend: 0x0, symName: __ZNSt10unique_ptrI7JournalSt14default_deleteIS0_EED1Ev, symObjAddr: 0x1934, symBinAddr: 0x100004C44, symSize: 0x68 }
  - { offsetInCU: 0x15F31, offset: 0x15F31, size: 0x8, addend: 0x0, symName: __ZNSt6vectorISt10unique_ptrI15LiteratureEntrySt14default_deleteIS1_EESaIS4_EE9push_backEOS4_, symObjAddr: 0x17C4, symBinAddr: 0x100004AD4, symSize: 0x30 }
  - { offsetInCU: 0x15F39, offset: 0x15F39, size: 0x8, addend: 0x0, symName: __ZSt11make_uniqueI7JournalJRNSt7__cxx1112basic_stringIcSt11char_traitsIcESaIcEEESt10unique_ptrISt6vectorIS6_SaIS6_EESt14default_deleteISB_EEifS7_iEENSt9_MakeUniqIT_E15__single_objectEDpOT0_, symObjAddr: 0x17F4, symBinAddr: 0x100004B04, symSize: 0x140 }
  - { offsetInCU: 0x15FEE, offset: 0x15FEE, size: 0x8, addend: 0x0, symName: __ZNSt10unique_ptrI15LiteratureEntrySt14default_deleteIS0_EED1Ev, symObjAddr: 0x175C, symBinAddr: 0x100004A6C, symSize: 0x68 }
  - { offsetInCU: 0x15FF6, offset: 0x15FF6, size: 0x8, addend: 0x0, symName: __ZNSt6vectorISt10unique_ptrI15LiteratureEntrySt14default_deleteIS1_EESaIS4_EE9push_backEOS4_, symObjAddr: 0x17C4, symBinAddr: 0x100004AD4, symSize: 0x30 }
  - { offsetInCU: 0x160B2, offset: 0x160B2, size: 0x8, addend: 0x0, symName: __ZNSt10unique_ptrI15LiteratureEntrySt14default_deleteIS0_EEC1I4BookS1_IS5_EvEEOS_IT_T0_E, symObjAddr: 0x170C, symBinAddr: 0x100004A1C, symSize: 0x50 }
  - { offsetInCU: 0x160BA, offset: 0x160BA, size: 0x8, addend: 0x0, symName: __ZNSt10unique_ptrI15LiteratureEntrySt14default_deleteIS0_EED1Ev, symObjAddr: 0x175C, symBinAddr: 0x100004A6C, symSize: 0x68 }
  - { offsetInCU: 0x16163, offset: 0x16163, size: 0x8, addend: 0x0, symName: __ZNSt15__uniq_ptr_dataI15LiteratureEntrySt14default_deleteIS0_ELb1ELb1EECI1St15__uniq_ptr_implIS0_S2_EIS1_I4BookEEEPS0_OT_, symObjAddr: 0x16DC, symBinAddr: 0x1000049EC, symSize: 0x30 }
  - { offsetInCU: 0x1616B, offset: 0x1616B, size: 0x8, addend: 0x0, symName: __ZNSt10unique_ptrI15LiteratureEntrySt14default_deleteIS0_EEC1I4BookS1_IS5_EvEEOS_IT_T0_E, symObjAddr: 0x170C, symBinAddr: 0x100004A1C, symSize: 0x50 }
  - { offsetInCU: 0x161A9, offset: 0x161A9, size: 0x8, addend: 0x0, symName: __ZNSt10unique_ptrI4BookSt14default_deleteIS0_EED1Ev, symObjAddr: 0x1674, symBinAddr: 0x100004984, symSize: 0x68 }
  - { offsetInCU: 0x161B1, offset: 0x161B1, size: 0x8, addend: 0x0, symName: __ZNSt15__uniq_ptr_dataI15LiteratureEntrySt14default_deleteIS0_ELb1ELb1EECI1St15__uniq_ptr_implIS0_S2_EIS1_I4BookEEEPS0_OT_, symObjAddr: 0x16DC, symBinAddr: 0x1000049EC, symSize: 0x30 }
  - { offsetInCU: 0x1655C, offset: 0x1655C, size: 0x8, addend: 0x0, symName: __ZSt11make_uniqueI4BookJRNSt7__cxx1112basic_stringIcSt11char_traitsIcESaIcEEESt10unique_ptrISt6vectorIS6_SaIS6_EESt14default_deleteISB_EEiS7_S7_fEENSt9_MakeUniqIT_E15__single_objectEDpOT0_, symObjAddr: 0x1558, symBinAddr: 0x100004868, symSize: 0x11C }
  - { offsetInCU: 0x16564, offset: 0x16564, size: 0x8, addend: 0x0, symName: __ZNSt10unique_ptrI4BookSt14default_deleteIS0_EED1Ev, symObjAddr: 0x1674, symBinAddr: 0x100004984, symSize: 0x68 }
  - { offsetInCU: 0x16338, offset: 0x16338, size: 0x8, addend: 0x0, symName: __ZNSt10unique_ptrISt6vectorINSt7__cxx1112basic_stringIcSt11char_traitsIcESaIcEEESaIS6_EESt14default_deleteIS8_EEC1EOSB_, symObjAddr: 0x1530, symBinAddr: 0x100004840, symSize: 0x28 }
  - { offsetInCU: 0x16340, offset: 0x16340, size: 0x8, addend: 0x0, symName: __ZSt11make_uniqueI4BookJRNSt7__cxx1112basic_stringIcSt11char_traitsIcESaIcEEESt10unique_ptrISt6vectorIS6_SaIS6_EESt14default_deleteISB_EEiS7_S7_fEENSt9_MakeUniqIT_E15__single_objectEDpOT0_, symObjAddr: 0x1558, symBinAddr: 0x100004868, symSize: 0x11C }
  - { offsetInCU: 0x163A1, offset: 0x163A1, size: 0x8, addend: 0x0, symName: __ZNSt15__uniq_ptr_dataISt6vectorINSt7__cxx1112basic_stringIcSt11char_traitsIcESaIcEEESaIS6_EESt14default_deleteIS8_ELb1ELb1EEC1EOSB_, symObjAddr: 0x1508, symBinAddr: 0x100004818, symSize: 0x28 }
  - { offsetInCU: 0x163A9, offset: 0x163A9, size: 0x8, addend: 0x0, symName: __ZNSt10unique_ptrISt6vectorINSt7__cxx1112basic_stringIcSt11char_traitsIcESaIcEEESaIS6_EESt14default_deleteIS8_EEC1EOSB_, symObjAddr: 0x1530, symBinAddr: 0x100004840, symSize: 0x28 }
  - { offsetInCU: 0x16440, offset: 0x16440, size: 0x8, addend: 0x0, symName: __ZSt4moveIRSt10unique_ptrISt6vectorINSt7__cxx1112basic_stringIcSt11char_traitsIcESaIcEEESaIS7_EESt14default_deleteIS9_EEEONSt16remove_referenceIT_E4typeEOSF_, symObjAddr: 0x14F4, symBinAddr: 0x100004804, symSize: 0x14 }
  - { offsetInCU: 0x16448, offset: 0x16448, size: 0x8, addend: 0x0, symName: __ZNSt15__uniq_ptr_dataISt6vectorINSt7__cxx1112basic_stringIcSt11char_traitsIcESaIcEEESaIS6_EESt14default_deleteIS8_ELb1ELb1EEC1EOSB_, symObjAddr: 0x1508, symBinAddr: 0x100004818, symSize: 0x28 }
  - { offsetInCU: 0x16535, offset: 0x16535, size: 0x8, addend: 0x0, symName: __ZSt11make_uniqueISt6vectorINSt7__cxx1112basic_stringIcSt11char_traitsIcESaIcEEESaIS6_EEJS8_EENSt9_MakeUniqIT_E15__single_objectEDpOT0_, symObjAddr: 0x1498, symBinAddr: 0x1000047A8, symSize: 0x5C }
  - { offsetInCU: 0x1653D, offset: 0x1653D, size: 0x8, addend: 0x0, symName: __ZSt4moveIRSt10unique_ptrISt6vectorINSt7__cxx1112basic_stringIcSt11char_traitsIcESaIcEEESaIS7_EESt14default_deleteIS9_EEEONSt16remove_referenceIT_E4typeEOSF_, symObjAddr: 0x14F4, symBinAddr: 0x100004804, symSize: 0x14 }
  - { offsetInCU: 0x16403, offset: 0x16403, size: 0x8, addend: 0x0, symName: __ZNSt6vectorINSt7__cxx1112basic_stringIcSt11char_traitsIcESaIcEEESaIS5_EEixEm, symObjAddr: 0x1470, symBinAddr: 0x100004780, symSize: 0x28 }
  - { offsetInCU: 0x1640B, offset: 0x1640B, size: 0x8, addend: 0x0, symName: __ZSt11make_uniqueISt6vectorINSt7__cxx1112basic_stringIcSt11char_traitsIcESaIcEEESaIS6_EEJS8_EENSt9_MakeUniqIT_E15__single_objectEDpOT0_, symObjAddr: 0x1498, symBinAddr: 0x1000047A8, symSize: 0x5C }
  - { offsetInCU: 0x16446, offset: 0x16446, size: 0x8, addend: 0x0, symName: __ZNK9__gnu_cxx17__normal_iteratorIPNSt7__cxx1112basic_stringIcSt11char_traitsIcESaIcEEESt6vectorIS6_SaIS6_EEEdeEv, symObjAddr: 0x1458, symBinAddr: 0x100004768, symSize: 0x18 }
  - { offsetInCU: 0x1644E, offset: 0x1644E, size: 0x8, addend: 0x0, symName: __ZNSt6vectorINSt7__cxx1112basic_stringIcSt11char_traitsIcESaIcEEESaIS5_EEixEm, symObjAddr: 0x1470, symBinAddr: 0x100004780, symSize: 0x28 }
  - { offsetInCU: 0x16475, offset: 0x16475, size: 0x8, addend: 0x0, symName: __ZN9__gnu_cxx17__normal_iteratorIPNSt7__cxx1112basic_stringIcSt11char_traitsIcESaIcEEESt6vectorIS6_SaIS6_EEEppEv, symObjAddr: 0x1430, symBinAddr: 0x100004740, symSize: 0x28 }
  - { offsetInCU: 0x1647D, offset: 0x1647D, size: 0x8, addend: 0x0, symName: __ZNK9__gnu_cxx17__normal_iteratorIPNSt7__cxx1112basic_stringIcSt11char_traitsIcESaIcEEESt6vectorIS6_SaIS6_EEEdeEv, symObjAddr: 0x1458, symBinAddr: 0x100004768, symSize: 0x18 }
  - { offsetInCU: 0x16589, offset: 0x16589, size: 0x8, addend: 0x0, symName: __ZN9__gnu_cxxneIPNSt7__cxx1112basic_stringIcSt11char_traitsIcESaIcEEESt6vectorIS6_SaIS6_EEEEbRKNS_17__normal_iteratorIT_T0_EESG_, symObjAddr: 0x13EC, symBinAddr: 0x1000046FC, symSize: 0x44 }
  - { offsetInCU: 0x16591, offset: 0x16591, size: 0x8, addend: 0x0, symName: __ZN9__gnu_cxx17__normal_iteratorIPNSt7__cxx1112basic_stringIcSt11char_traitsIcESaIcEEESt6vectorIS6_SaIS6_EEEppEv, symObjAddr: 0x1430, symBinAddr: 0x100004740, symSize: 0x28 }
  - { offsetInCU: 0x16511, offset: 0x16511, size: 0x8, addend: 0x0, symName: __ZNSt6vectorINSt7__cxx1112basic_stringIcSt11char_traitsIcESaIcEEESaIS5_EE3endEv, symObjAddr: 0x13C4, symBinAddr: 0x1000046D4, symSize: 0x28 }
  - { offsetInCU: 0x16519, offset: 0x16519, size: 0x8, addend: 0x0, symName: __ZN9__gnu_cxxneIPNSt7__cxx1112basic_stringIcSt11char_traitsIcESaIcEEESt6vectorIS6_SaIS6_EEEEbRKNS_17__normal_iteratorIT_T0_EESG_, symObjAddr: 0x13EC, symBinAddr: 0x1000046FC, symSize: 0x44 }
  - { offsetInCU: 0x16540, offset: 0x16540, size: 0x8, addend: 0x0, symName: __ZNSt6vectorINSt7__cxx1112basic_stringIcSt11char_traitsIcESaIcEEESaIS5_EE5beginEv, symObjAddr: 0x13A0, symBinAddr: 0x1000046B0, symSize: 0x24 }
  - { offsetInCU: 0x16548, offset: 0x16548, size: 0x8, addend: 0x0, symName: __ZNSt6vectorINSt7__cxx1112basic_stringIcSt11char_traitsIcESaIcEEESaIS5_EE3endEv, symObjAddr: 0x13C4, symBinAddr: 0x1000046D4, symSize: 0x28 }
  - { offsetInCU: 0x165FD, offset: 0x165FD, size: 0x8, addend: 0x0, symName: __ZNSt6vectorINSt7__cxx1112basic_stringIcSt11char_traitsIcESaIcEEESaIS5_EEC1EmRKS6_, symObjAddr: 0x1338, symBinAddr: 0x100004648, symSize: 0x68 }
  - { offsetInCU: 0x16605, offset: 0x16605, size: 0x8, addend: 0x0, symName: __ZNSt6vectorINSt7__cxx1112basic_stringIcSt11char_traitsIcESaIcEEESaIS5_EE5beginEv, symObjAddr: 0x13A0, symBinAddr: 0x1000046B0, symSize: 0x24 }
  - { offsetInCU: 0x16649, offset: 0x16649, size: 0x8, addend: 0x0, symName: __ZNSaINSt7__cxx1112basic_stringIcSt11char_traitsIcESaIcEEEEC1Ev, symObjAddr: 0x1318, symBinAddr: 0x100004628, symSize: 0x20 }
  - { offsetInCU: 0x16651, offset: 0x16651, size: 0x8, addend: 0x0, symName: __ZNSt6vectorINSt7__cxx1112basic_stringIcSt11char_traitsIcESaIcEEESaIS5_EEC1EmRKS6_, symObjAddr: 0x1338, symBinAddr: 0x100004648, symSize: 0x68 }
  - { offsetInCU: 0x16677, offset: 0x16677, size: 0x8, addend: 0x0, symName: __ZNSaINSt7__cxx1112basic_stringIcSt11char_traitsIcESaIcEEEEC2Ev, symObjAddr: 0x12F8, symBinAddr: 0x100004608, symSize: 0x20 }
  - { offsetInCU: 0x1667F, offset: 0x1667F, size: 0x8, addend: 0x0, symName: __ZNSaINSt7__cxx1112basic_stringIcSt11char_traitsIcESaIcEEEEC1Ev, symObjAddr: 0x1318, symBinAddr: 0x100004628, symSize: 0x20 }
  - { offsetInCU: 0x166F7, offset: 0x166F7, size: 0x8, addend: 0x0, symName: __ZSteqIcSt11char_traitsIcESaIcEEbRKNSt7__cxx1112basic_stringIT_T0_T1_EEPKS5_, symObjAddr: 0x12C8, symBinAddr: 0x1000045D8, symSize: 0x30 }
  - { offsetInCU: 0x166FF, offset: 0x166FF, size: 0x8, addend: 0x0, symName: __ZNSaINSt7__cxx1112basic_stringIcSt11char_traitsIcESaIcEEEEC2Ev, symObjAddr: 0x12F8, symBinAddr: 0x100004608, symSize: 0x20 }
  - { offsetInCU: 0x16762, offset: 0x16762, size: 0x8, addend: 0x0, symName: __ZNSt6vectorISt10unique_ptrI15LiteratureEntrySt14default_deleteIS1_EESaIS4_EED1Ev, symObjAddr: 0x1278, symBinAddr: 0x100004588, symSize: 0x50 }
  - { offsetInCU: 0x1676A, offset: 0x1676A, size: 0x8, addend: 0x0, symName: __ZSteqIcSt11char_traitsIcESaIcEEbRKNSt7__cxx1112basic_stringIT_T0_T1_EEPKS5_, symObjAddr: 0x12C8, symBinAddr: 0x1000045D8, symSize: 0x30 }
  - { offsetInCU: 0x167BE, offset: 0x167BE, size: 0x8, addend: 0x0, symName: __ZNSt12_Vector_baseISt10unique_ptrI15LiteratureEntrySt14default_deleteIS1_EESaIS4_EED2Ev, symObjAddr: 0x1228, symBinAddr: 0x100004538, symSize: 0x50 }
  - { offsetInCU: 0x167C6, offset: 0x167C6, size: 0x8, addend: 0x0, symName: __ZNSt6vectorISt10unique_ptrI15LiteratureEntrySt14default_deleteIS1_EESaIS4_EED1Ev, symObjAddr: 0x1278, symBinAddr: 0x100004588, symSize: 0x50 }
  - { offsetInCU: 0x167FE, offset: 0x167FE, size: 0x8, addend: 0x0, symName: __ZNSaISt10unique_ptrI15LiteratureEntrySt14default_deleteIS0_EEED2Ev, symObjAddr: 0x1208, symBinAddr: 0x100004518, symSize: 0x20 }
  - { offsetInCU: 0x16806, offset: 0x16806, size: 0x8, addend: 0x0, symName: __ZNSt12_Vector_baseISt10unique_ptrI15LiteratureEntrySt14default_deleteIS1_EESaIS4_EED2Ev, symObjAddr: 0x1228, symBinAddr: 0x100004538, symSize: 0x50 }
  - { offsetInCU: 0x16868, offset: 0x16868, size: 0x8, addend: 0x0, symName: __ZNSt12_Vector_baseISt10unique_ptrI15LiteratureEntrySt14default_deleteIS1_EESaIS4_EE12_Vector_implC1Ev, symObjAddr: 0x11E0, symBinAddr: 0x1000044F0, symSize: 0x28 }
  - { offsetInCU: 0x16870, offset: 0x16870, size: 0x8, addend: 0x0, symName: __ZNSaISt10unique_ptrI15LiteratureEntrySt14default_deleteIS0_EEED2Ev, symObjAddr: 0x1208, symBinAddr: 0x100004518, symSize: 0x20 }
  - { offsetInCU: 0x168BE, offset: 0x168BE, size: 0x8, addend: 0x0, symName: __ZNSt12_Vector_baseINSt7__cxx1112basic_stringIcSt11char_traitsIcESaIcEEESaIS5_EE12_Vector_implC1EOS8_, symObjAddr: 0x1190, symBinAddr: 0x1000044A0, symSize: 0x50 }
  - { offsetInCU: 0x168C6, offset: 0x168C6, size: 0x8, addend: 0x0, symName: __ZNSt12_Vector_baseISt10unique_ptrI15LiteratureEntrySt14default_deleteIS1_EESaIS4_EE12_Vector_implC1Ev, symObjAddr: 0x11E0, symBinAddr: 0x1000044F0, symSize: 0x28 }
  - { offsetInCU: 0x16892, offset: 0x16892, size: 0x8, addend: 0x0, symName: __ZNSt6vectorINSt7__cxx1112basic_stringIcSt11char_traitsIcESaIcEEESaIS5_EE9push_backERKS5_, symObjAddr: 0x1110, symBinAddr: 0x100004420, symSize: 0x80 }
  - { offsetInCU: 0x1689A, offset: 0x1689A, size: 0x8, addend: 0x0, symName: __ZNSt12_Vector_baseINSt7__cxx1112basic_stringIcSt11char_traitsIcESaIcEEESaIS5_EE12_Vector_implC1EOS8_, symObjAddr: 0x1190, symBinAddr: 0x1000044A0, symSize: 0x50 }
  - { offsetInCU: 0x16A1B, offset: 0x16A1B, size: 0x8, addend: 0x0, symName: __ZNSt6vectorINSt7__cxx1112basic_stringIcSt11char_traitsIcESaIcEEESaIS5_EED1Ev, symObjAddr: 0x10C0, symBinAddr: 0x1000043D0, symSize: 0x50 }
  - { offsetInCU: 0x16A23, offset: 0x16A23, size: 0x8, addend: 0x0, symName: __ZNSt6vectorINSt7__cxx1112basic_stringIcSt11char_traitsIcESaIcEEESaIS5_EE9push_backERKS5_, symObjAddr: 0x1110, symBinAddr: 0x100004420, symSize: 0x80 }
  - { offsetInCU: 0x16A77, offset: 0x16A77, size: 0x8, addend: 0x0, symName: __ZNSt12_Vector_baseINSt7__cxx1112basic_stringIcSt11char_traitsIcESaIcEEESaIS5_EED2Ev, symObjAddr: 0x1070, symBinAddr: 0x100004380, symSize: 0x50 }
  - { offsetInCU: 0x16A7F, offset: 0x16A7F, size: 0x8, addend: 0x0, symName: __ZNSt6vectorINSt7__cxx1112basic_stringIcSt11char_traitsIcESaIcEEESaIS5_EED1Ev, symObjAddr: 0x10C0, symBinAddr: 0x1000043D0, symSize: 0x50 }
  - { offsetInCU: 0x16AB7, offset: 0x16AB7, size: 0x8, addend: 0x0, symName: __ZNSaINSt7__cxx1112basic_stringIcSt11char_traitsIcESaIcEEEED1Ev, symObjAddr: 0x1050, symBinAddr: 0x100004360, symSize: 0x20 }
  - { offsetInCU: 0x16ABF, offset: 0x16ABF, size: 0x8, addend: 0x0, symName: __ZNSt12_Vector_baseINSt7__cxx1112basic_stringIcSt11char_traitsIcESaIcEEESaIS5_EED2Ev, symObjAddr: 0x1070, symBinAddr: 0x100004380, symSize: 0x50 }
  - { offsetInCU: 0x16AE5, offset: 0x16AE5, size: 0x8, addend: 0x0, symName: __ZNSaINSt7__cxx1112basic_stringIcSt11char_traitsIcESaIcEEEED2Ev, symObjAddr: 0x1030, symBinAddr: 0x100004340, symSize: 0x20 }
  - { offsetInCU: 0x16AED, offset: 0x16AED, size: 0x8, addend: 0x0, symName: __ZNSaINSt7__cxx1112basic_stringIcSt11char_traitsIcESaIcEEEED1Ev, symObjAddr: 0x1050, symBinAddr: 0x100004360, symSize: 0x20 }
  - { offsetInCU: 0x16B4F, offset: 0x16B4F, size: 0x8, addend: 0x0, symName: __ZNSt12_Vector_baseINSt7__cxx1112basic_stringIcSt11char_traitsIcESaIcEEESaIS5_EE12_Vector_implC1Ev, symObjAddr: 0x1008, symBinAddr: 0x100004318, symSize: 0x28 }
  - { offsetInCU: 0x16B57, offset: 0x16B57, size: 0x8, addend: 0x0, symName: __ZNSaINSt7__cxx1112basic_stringIcSt11char_traitsIcESaIcEEEED2Ev, symObjAddr: 0x1030, symBinAddr: 0x100004340, symSize: 0x20 }
  - { offsetInCU: 0x16BC9, offset: 0x16BC9, size: 0x8, addend: 0x0, symName: __ZNSt10unique_ptrISt6vectorINSt7__cxx1112basic_stringIcSt11char_traitsIcESaIcEEESaIS6_EESt14default_deleteIS8_EED1Ev, symObjAddr: 0xFA0, symBinAddr: 0x1000042B0, symSize: 0x68 }
  - { offsetInCU: 0x16BD1, offset: 0x16BD1, size: 0x8, addend: 0x0, symName: __ZNSt12_Vector_baseINSt7__cxx1112basic_stringIcSt11char_traitsIcESaIcEEESaIS5_EE12_Vector_implC1Ev, symObjAddr: 0x1008, symBinAddr: 0x100004318, symSize: 0x28 }
  - { offsetInCU: 0x16C5F, offset: 0x16C5F, size: 0x8, addend: 0x0, symName: __ZNSt5tupleIJPSt6vectorINSt7__cxx1112basic_stringIcSt11char_traitsIcESaIcEEESaIS6_EESt14default_deleteIS8_EEEC1ILb1ELb1EEEv, symObjAddr: 0xF80, symBinAddr: 0x100004290, symSize: 0x20 }
  - { offsetInCU: 0x16C67, offset: 0x16C67, size: 0x8, addend: 0x0, symName: __ZNSt10unique_ptrISt6vectorINSt7__cxx1112basic_stringIcSt11char_traitsIcESaIcEEESaIS6_EESt14default_deleteIS8_EED1Ev, symObjAddr: 0xFA0, symBinAddr: 0x1000042B0, symSize: 0x68 }
  - { offsetInCU: 0x16C65, offset: 0x16C65, size: 0x8, addend: 0x0, symName: __ZSt7forwardIiEOT_RNSt16remove_referenceIS0_E4typeE, symObjAddr: 0xF6C, symBinAddr: 0x10000427C, symSize: 0x14 }
  - { offsetInCU: 0x16C6D, offset: 0x16C6D, size: 0x8, addend: 0x0, symName: __ZNSt5tupleIJPSt6vectorINSt7__cxx1112basic_stringIcSt11char_traitsIcESaIcEEESaIS6_EESt14default_deleteIS8_EEEC1ILb1ELb1EEEv, symObjAddr: 0xF80, symBinAddr: 0x100004290, symSize: 0x20 }
  - { offsetInCU: 0x16CA5, offset: 0x16CA5, size: 0x8, addend: 0x0, symName: __ZSt3maxImERKT_S2_S2_, symObjAddr: 0xF34, symBinAddr: 0x100004244, symSize: 0x38 }
  - { offsetInCU: 0x16CAD, offset: 0x16CAD, size: 0x8, addend: 0x0, symName: __ZSt7forwardIiEOT_RNSt16remove_referenceIS0_E4typeE, symObjAddr: 0xF6C, symBinAddr: 0x10000427C, symSize: 0x14 }
  - { offsetInCU: 0x16D22, offset: 0x16D22, size: 0x8, addend: 0x0, symName: __ZN9__gnu_cxx6__stoaIffcJEEET0_PFT_PKT1_PPS3_DpT2_EPKcS5_PmS9_, symObjAddr: 0xE34, symBinAddr: 0x100004144, symSize: 0x100 }
  - { offsetInCU: 0x16D2A, offset: 0x16D2A, size: 0x8, addend: 0x0, symName: __ZSt3maxImERKT_S2_S2_, symObjAddr: 0xF34, symBinAddr: 0x100004244, symSize: 0x38 }
  - { offsetInCU: 0x16E9C, offset: 0x16E9C, size: 0x8, addend: 0x0, symName: __ZZN9__gnu_cxx6__stoaIffcJEEET0_PFT_PKT1_PPS3_DpT2_EPKcS5_PmS9_EN11_Save_errnoC1Ev, symObjAddr: 0xDA0, symBinAddr: 0x1000040B0, symSize: 0x30 }
  - { offsetInCU: 0x16EA4, offset: 0x16EA4, size: 0x8, addend: 0x0, symName: __ZZN9__gnu_cxx6__stoaIffcJEEET0_PFT_PKT1_PPS3_DpT2_EPKcS5_PmS9_EN11_Save_errnoD1Ev, symObjAddr: 0xDD0, symBinAddr: 0x1000040E0, symSize: 0x4C }
  - { offsetInCU: 0x16ECB, offset: 0x16ECB, size: 0x8, addend: 0x0, symName: __ZZN9__gnu_cxx6__stoaIffcJEEET0_PFT_PKT1_PPS3_DpT2_EPKcS5_PmS9_EN11_Save_errnoD1Ev, symObjAddr: 0xDD0, symBinAddr: 0x1000040E0, symSize: 0x4C }
  - { offsetInCU: 0x16ED3, offset: 0x16ED3, size: 0x8, addend: 0x0, symName: __ZZN9__gnu_cxx6__stoaIffcJEEET0_PFT_PKT1_PPS3_DpT2_EPKcS5_PmS9_EN10_Range_chk6_S_chkEfSt17integral_constantIbLb0EE, symObjAddr: 0xE1C, symBinAddr: 0x10000412C, symSize: 0x18 }
  - { offsetInCU: 0x16F3E, offset: 0x16F3E, size: 0x8, addend: 0x0, symName: __ZZN9__gnu_cxx6__stoaIffcJEEET0_PFT_PKT1_PPS3_DpT2_EPKcS5_PmS9_EN10_Range_chk6_S_chkEfSt17integral_constantIbLb0EE, symObjAddr: 0xE1C, symBinAddr: 0x10000412C, symSize: 0x18 }
  - { offsetInCU: 0x16F46, offset: 0x16F46, size: 0x8, addend: 0x0, symName: __ZN9__gnu_cxx6__stoaIffcJEEET0_PFT_PKT1_PPS3_DpT2_EPKcS5_PmS9_, symObjAddr: 0xE34, symBinAddr: 0x100004144, symSize: 0x100 }
  - { offsetInCU: 0x16FD7, offset: 0x16FD7, size: 0x8, addend: 0x0, symName: __ZN9__gnu_cxx6__stoaIlicJiEEET0_PFT_PKT1_PPS3_DpT2_EPKcS5_PmS9_, symObjAddr: 0xCA0, symBinAddr: 0x100003FB0, symSize: 0x100 }
  - { offsetInCU: 0x16FDF, offset: 0x16FDF, size: 0x8, addend: 0x0, symName: __ZZN9__gnu_cxx6__stoaIffcJEEET0_PFT_PKT1_PPS3_DpT2_EPKcS5_PmS9_EN11_Save_errnoC1Ev, symObjAddr: 0xDA0, symBinAddr: 0x1000040B0, symSize: 0x30 }
  - { offsetInCU: 0x17153, offset: 0x17153, size: 0x8, addend: 0x0, symName: __ZZN9__gnu_cxx6__stoaIlicJiEEET0_PFT_PKT1_PPS3_DpT2_EPKcS5_PmS9_EN11_Save_errnoC1Ev, symObjAddr: 0xBE4, symBinAddr: 0x100003EF4, symSize: 0x30 }
  - { offsetInCU: 0x1715B, offset: 0x1715B, size: 0x8, addend: 0x0, symName: __ZZN9__gnu_cxx6__stoaIlicJiEEET0_PFT_PKT1_PPS3_DpT2_EPKcS5_PmS9_EN11_Save_errnoD1Ev, symObjAddr: 0xC14, symBinAddr: 0x100003F24, symSize: 0x4C }
  - { offsetInCU: 0x17182, offset: 0x17182, size: 0x8, addend: 0x0, symName: __ZZN9__gnu_cxx6__stoaIlicJiEEET0_PFT_PKT1_PPS3_DpT2_EPKcS5_PmS9_EN11_Save_errnoD1Ev, symObjAddr: 0xC14, symBinAddr: 0x100003F24, symSize: 0x4C }
  - { offsetInCU: 0x1718A, offset: 0x1718A, size: 0x8, addend: 0x0, symName: __ZZN9__gnu_cxx6__stoaIlicJiEEET0_PFT_PKT1_PPS3_DpT2_EPKcS5_PmS9_EN10_Range_chk6_S_chkElSt17integral_constantIbLb1EE, symObjAddr: 0xC60, symBinAddr: 0x100003F70, symSize: 0x40 }
  - { offsetInCU: 0x1721E, offset: 0x1721E, size: 0x8, addend: 0x0, symName: __ZZN9__gnu_cxx6__stoaIlicJiEEET0_PFT_PKT1_PPS3_DpT2_EPKcS5_PmS9_EN10_Range_chk6_S_chkElSt17integral_constantIbLb1EE, symObjAddr: 0xC60, symBinAddr: 0x100003F70, symSize: 0x40 }
  - { offsetInCU: 0x17226, offset: 0x17226, size: 0x8, addend: 0x0, symName: __ZN9__gnu_cxx6__stoaIlicJiEEET0_PFT_PKT1_PPS3_DpT2_EPKcS5_PmS9_, symObjAddr: 0xCA0, symBinAddr: 0x100003FB0, symSize: 0x100 }
  - { offsetInCU: 0x17238, offset: 0x17238, size: 0x8, addend: 0x0, symName: _main, symObjAddr: 0x2C8, symBinAddr: 0x1000035D8, symSize: 0x91C }
  - { offsetInCU: 0x17240, offset: 0x17240, size: 0x8, addend: 0x0, symName: __ZZN9__gnu_cxx6__stoaIlicJiEEET0_PFT_PKT1_PPS3_DpT2_EPKcS5_PmS9_EN11_Save_errnoC1Ev, symObjAddr: 0xBE4, symBinAddr: 0x100003EF4, symSize: 0x30 }
  - { offsetInCU: 0x17577, offset: 0x17577, size: 0x8, addend: 0x0, symName: __ZNSt6vectorISt10unique_ptrI15LiteratureEntrySt14default_deleteIS1_EESaIS4_EEC1Ev, symObjAddr: 0x2A8, symBinAddr: 0x1000035B8, symSize: 0x20 }
  - { offsetInCU: 0x1757F, offset: 0x1757F, size: 0x8, addend: 0x0, symName: _main, symObjAddr: 0x2C8, symBinAddr: 0x1000035D8, symSize: 0x91C }
  - { offsetInCU: 0x175C5, offset: 0x175C5, size: 0x8, addend: 0x0, symName: __ZNSt12_Vector_baseISt10unique_ptrI15LiteratureEntrySt14default_deleteIS1_EESaIS4_EEC2Ev, symObjAddr: 0x288, symBinAddr: 0x100003598, symSize: 0x20 }
  - { offsetInCU: 0x175CD, offset: 0x175CD, size: 0x8, addend: 0x0, symName: __ZNSt6vectorISt10unique_ptrI15LiteratureEntrySt14default_deleteIS1_EESaIS4_EEC1Ev, symObjAddr: 0x2A8, symBinAddr: 0x1000035B8, symSize: 0x20 }
  - { offsetInCU: 0x1762B, offset: 0x1762B, size: 0x8, addend: 0x0, symName: __ZNSt12_Vector_baseISt10unique_ptrI15LiteratureEntrySt14default_deleteIS1_EESaIS4_EE12_Vector_implD1Ev, symObjAddr: 0x268, symBinAddr: 0x100003578, symSize: 0x20 }
  - { offsetInCU: 0x17633, offset: 0x17633, size: 0x8, addend: 0x0, symName: __ZNSt12_Vector_baseISt10unique_ptrI15LiteratureEntrySt14default_deleteIS1_EESaIS4_EEC2Ev, symObjAddr: 0x288, symBinAddr: 0x100003598, symSize: 0x20 }
  - { offsetInCU: 0x1763C, offset: 0x1763C, size: 0x8, addend: 0x0, symName: __Z5splitRKNSt7__cxx1112basic_stringIcSt11char_traitsIcESaIcEEEc, symObjAddr: 0x198, symBinAddr: 0x1000034A8, symSize: 0xD0 }
  - { offsetInCU: 0x17644, offset: 0x17644, size: 0x8, addend: 0x0, symName: __ZNSt12_Vector_baseISt10unique_ptrI15LiteratureEntrySt14default_deleteIS1_EESaIS4_EE12_Vector_implD1Ev, symObjAddr: 0x268, symBinAddr: 0x100003578, symSize: 0x20 }
  - { offsetInCU: 0x17701, offset: 0x17701, size: 0x8, addend: 0x0, symName: __ZNSt6vectorINSt7__cxx1112basic_stringIcSt11char_traitsIcESaIcEEESaIS5_EEC1EOS7_, symObjAddr: 0x170, symBinAddr: 0x100003480, symSize: 0x28 }
  - { offsetInCU: 0x17709, offset: 0x17709, size: 0x8, addend: 0x0, symName: __Z5splitRKNSt7__cxx1112basic_stringIcSt11char_traitsIcESaIcEEEc, symObjAddr: 0x198, symBinAddr: 0x1000034A8, symSize: 0xD0 }
  - { offsetInCU: 0x17764, offset: 0x17764, size: 0x8, addend: 0x0, symName: __ZNSt12_Vector_baseINSt7__cxx1112basic_stringIcSt11char_traitsIcESaIcEEESaIS5_EEC2EOS7_, symObjAddr: 0x148, symBinAddr: 0x100003458, symSize: 0x28 }
  - { offsetInCU: 0x1776C, offset: 0x1776C, size: 0x8, addend: 0x0, symName: __ZNSt6vectorINSt7__cxx1112basic_stringIcSt11char_traitsIcESaIcEEESaIS5_EEC1EOS7_, symObjAddr: 0x170, symBinAddr: 0x100003480, symSize: 0x28 }
  - { offsetInCU: 0x177AD, offset: 0x177AD, size: 0x8, addend: 0x0, symName: __ZNSt6vectorINSt7__cxx1112basic_stringIcSt11char_traitsIcESaIcEEESaIS5_EEC1Ev, symObjAddr: 0x128, symBinAddr: 0x100003438, symSize: 0x20 }
  - { offsetInCU: 0x177B5, offset: 0x177B5, size: 0x8, addend: 0x0, symName: __ZNSt12_Vector_baseINSt7__cxx1112basic_stringIcSt11char_traitsIcESaIcEEESaIS5_EEC2EOS7_, symObjAddr: 0x148, symBinAddr: 0x100003458, symSize: 0x28 }
  - { offsetInCU: 0x177FB, offset: 0x177FB, size: 0x8, addend: 0x0, symName: __ZNSt12_Vector_baseINSt7__cxx1112basic_stringIcSt11char_traitsIcESaIcEEESaIS5_EEC2Ev, symObjAddr: 0x108, symBinAddr: 0x100003418, symSize: 0x20 }
  - { offsetInCU: 0x17803, offset: 0x17803, size: 0x8, addend: 0x0, symName: __ZNSt6vectorINSt7__cxx1112basic_stringIcSt11char_traitsIcESaIcEEESaIS5_EEC1Ev, symObjAddr: 0x128, symBinAddr: 0x100003438, symSize: 0x20 }
  - { offsetInCU: 0x17861, offset: 0x17861, size: 0x8, addend: 0x0, symName: __ZNSt12_Vector_baseINSt7__cxx1112basic_stringIcSt11char_traitsIcESaIcEEESaIS5_EE12_Vector_implD1Ev, symObjAddr: 0xE8, symBinAddr: 0x1000033F8, symSize: 0x20 }
  - { offsetInCU: 0x17869, offset: 0x17869, size: 0x8, addend: 0x0, symName: __ZNSt12_Vector_baseINSt7__cxx1112basic_stringIcSt11char_traitsIcESaIcEEESaIS5_EEC2Ev, symObjAddr: 0x108, symBinAddr: 0x100003418, symSize: 0x20 }
  - { offsetInCU: 0x1785D, offset: 0x1785D, size: 0x8, addend: 0x0, symName: __ZSt3minImERKT_S2_S2_, symObjAddr: 0xB0, symBinAddr: 0x1000033C0, symSize: 0x38 }
  - { offsetInCU: 0x17865, offset: 0x17865, size: 0x8, addend: 0x0, symName: __ZNSt12_Vector_baseINSt7__cxx1112basic_stringIcSt11char_traitsIcESaIcEEESaIS5_EE12_Vector_implD1Ev, symObjAddr: 0xE8, symBinAddr: 0x1000033F8, symSize: 0x20 }
  - { offsetInCU: 0x178D7, offset: 0x178D7, size: 0x8, addend: 0x0, symName: __ZNSt7__cxx114stofERKNS_12basic_stringIcSt11char_traitsIcESaIcEEEPm, symObjAddr: 0x74, symBinAddr: 0x100003384, symSize: 0x3C }
  - { offsetInCU: 0x178DF, offset: 0x178DF, size: 0x8, addend: 0x0, symName: __ZSt3minImERKT_S2_S2_, symObjAddr: 0xB0, symBinAddr: 0x1000033C0, symSize: 0x38 }
  - { offsetInCU: 0x1792B, offset: 0x1792B, size: 0x8, addend: 0x0, symName: __ZNSt7__cxx114stoiERKNS_12basic_stringIcSt11char_traitsIcESaIcEEEPmi, symObjAddr: 0x30, symBinAddr: 0x100003340, symSize: 0x44 }
  - { offsetInCU: 0x17933, offset: 0x17933, size: 0x8, addend: 0x0, symName: __ZNSt7__cxx114stofERKNS_12basic_stringIcSt11char_traitsIcESaIcEEEPm, symObjAddr: 0x74, symBinAddr: 0x100003384, symSize: 0x3C }
  - { offsetInCU: 0x17951, offset: 0x17951, size: 0x8, addend: 0x0, symName: __ZdlPvS_, symObjAddr: 0x18, symBinAddr: 0x100003328, symSize: 0x18 }
  - { offsetInCU: 0x17959, offset: 0x17959, size: 0x8, addend: 0x0, symName: __ZNSt7__cxx114stoiERKNS_12basic_stringIcSt11char_traitsIcESaIcEEEPmi, symObjAddr: 0x30, symBinAddr: 0x100003340, symSize: 0x44 }
  - { offsetInCU: 0x1798E, offset: 0x1798E, size: 0x8, addend: 0x0, symName: __ZnwmPv, symObjAddr: 0x0, symBinAddr: 0x100003310, symSize: 0x18 }
  - { offsetInCU: 0x17996, offset: 0x17996, size: 0x8, addend: 0x0, symName: __ZdlPvS_, symObjAddr: 0x18, symBinAddr: 0x100003328, symSize: 0x18 }
  - { offsetInCU: 0xE5, offset: 0x17ACC, size: 0x8, addend: 0x0, symName: __ZN9__gnu_cxxL21__default_lock_policyE, symObjAddr: 0x3500, symBinAddr: 0x10000D748, symSize: 0x0 }
  - { offsetInCU: 0x578B, offset: 0x1D172, size: 0x8, addend: 0x0, symName: __ZStL8__ioinit, symObjAddr: 0x410E0, symBinAddr: 0x100018439, symSize: 0x0 }
  - { offsetInCU: 0x5839, offset: 0x1D220, size: 0x8, addend: 0x0, symName: __ZN9__gnu_cxxL21__default_lock_policyE, symObjAddr: 0x3500, symBinAddr: 0x10000D748, symSize: 0x0 }
  - { offsetInCU: 0x58A1, offset: 0x1D288, size: 0x8, addend: 0x0, symName: __ZN6__pstl9execution2v1L3seqE, symObjAddr: 0x3504, symBinAddr: 0x10000D74C, symSize: 0x0 }
  - { offsetInCU: 0x58BB, offset: 0x1D2A2, size: 0x8, addend: 0x0, symName: __ZN6__pstl9execution2v1L3parE, symObjAddr: 0x3505, symBinAddr: 0x10000D74D, symSize: 0x0 }
  - { offsetInCU: 0x58DB, offset: 0x1D2C2, size: 0x8, addend: 0x0, symName: __ZN6__pstl9execution2v1L9par_unseqE, symObjAddr: 0x3506, symBinAddr: 0x10000D74E, symSize: 0x0 }
  - { offsetInCU: 0x58F1, offset: 0x1D2D8, size: 0x8, addend: 0x0, symName: __ZN6__pstl9execution2v1L5unseqE, symObjAddr: 0x3507, symBinAddr: 0x10000D74F, symSize: 0x0 }
  - { offsetInCU: 0x85DD, offset: 0x1FFC4, size: 0x8, addend: 0x0, symName: __GLOBAL__sub_I_LiteratureEntry.cpp, symObjAddr: 0x34E4, symBinAddr: 0x100009F08, symSize: 0x1C }
  - { offsetInCU: 0x85E5, offset: 0x1FFCC, size: 0x8, addend: 0x0, symName: __ZN9__gnu_cxxL21__default_lock_policyE, symObjAddr: 0x3500, symBinAddr: 0x10000D748, symSize: 0x0 }
  - { offsetInCU: 0x85FE, offset: 0x1FFE5, size: 0x8, addend: 0x0, symName: __Z41__static_initialization_and_destruction_0ii, symObjAddr: 0x3484, symBinAddr: 0x100009EA8, symSize: 0x60 }
  - { offsetInCU: 0x8606, offset: 0x1FFED, size: 0x8, addend: 0x0, symName: __GLOBAL__sub_I_LiteratureEntry.cpp, symObjAddr: 0x34E4, symBinAddr: 0x100009F08, symSize: 0x1C }
  - { offsetInCU: 0x8617, offset: 0x1FFFE, size: 0x8, addend: 0x0, symName: __ZNSt11__copy_moveILb1ELb0ESt26random_access_iterator_tagE8__copy_mIPNSt7__cxx1112basic_stringIcSt11char_traitsIcESaIcEEES9_EET0_T_SB_SA_, symObjAddr: 0x3370, symBinAddr: 0x100009E2C, symSize: 0x7C }
  - { offsetInCU: 0x8781, offset: 0x20168, size: 0x8, addend: 0x0, symName: __ZSt14__copy_move_a2ILb1EPNSt7__cxx1112basic_stringIcSt11char_traitsIcESaIcEEES6_ET1_T0_S8_S7_, symObjAddr: 0x32DC, symBinAddr: 0x100009E00, symSize: 0x2C }
  - { offsetInCU: 0x8751, offset: 0x20138, size: 0x8, addend: 0x0, symName: __ZNSt10_Head_baseILm0EPSt6vectorINSt7__cxx1112basic_stringIcSt11char_traitsIcESaIcEEESaIS6_EELb0EE7_M_headERKSA_, symObjAddr: 0x3214, symBinAddr: 0x100009DEC, symSize: 0x14 }
  - { offsetInCU: 0x88B4, offset: 0x2029B, size: 0x8, addend: 0x0, symName: __ZSt12__niter_wrapIN9__gnu_cxx17__normal_iteratorIPNSt7__cxx1112basic_stringIcSt11char_traitsIcESaIcEEESt6vectorIS7_SaIS7_EEEES8_ET_SD_T0_, symObjAddr: 0x31B0, symBinAddr: 0x100009DB0, symSize: 0x3C }
  - { offsetInCU: 0x88AE, offset: 0x20295, size: 0x8, addend: 0x0, symName: __ZSt14__copy_move_a1ILb1EPNSt7__cxx1112basic_stringIcSt11char_traitsIcESaIcEEES6_ET1_T0_S8_S7_, symObjAddr: 0x3184, symBinAddr: 0x100009D84, symSize: 0x2C }
  - { offsetInCU: 0x88B6, offset: 0x2029D, size: 0x8, addend: 0x0, symName: __ZSt12__niter_wrapIN9__gnu_cxx17__normal_iteratorIPNSt7__cxx1112basic_stringIcSt11char_traitsIcESaIcEEESt6vectorIS7_SaIS7_EEEES8_ET_SD_T0_, symObjAddr: 0x31B0, symBinAddr: 0x100009DB0, symSize: 0x3C }
  - { offsetInCU: 0x896C, offset: 0x20353, size: 0x8, addend: 0x0, symName: __ZSt12__niter_baseIPNSt7__cxx1112basic_stringIcSt11char_traitsIcESaIcEEESt6vectorIS5_SaIS5_EEET_N9__gnu_cxx17__normal_iteratorISA_T0_EE, symObjAddr: 0x3164, symBinAddr: 0x100009D64, symSize: 0x20 }
  - { offsetInCU: 0x8974, offset: 0x2035B, size: 0x8, addend: 0x0, symName: __ZSt14__copy_move_a1ILb1EPNSt7__cxx1112basic_stringIcSt11char_traitsIcESaIcEEES6_ET1_T0_S8_S7_, symObjAddr: 0x3184, symBinAddr: 0x100009D84, symSize: 0x2C }
  - { offsetInCU: 0x88D7, offset: 0x202BE, size: 0x8, addend: 0x0, symName: __ZNSt11_Tuple_implILm0EJPSt6vectorINSt7__cxx1112basic_stringIcSt11char_traitsIcESaIcEEESaIS6_EESt14default_deleteIS8_EEE7_M_headERKSC_, symObjAddr: 0x3028, symBinAddr: 0x100009D48, symSize: 0x1C }
  - { offsetInCU: 0x89E6, offset: 0x203CD, size: 0x8, addend: 0x0, symName: __ZSt10_ConstructINSt7__cxx1112basic_stringIcSt11char_traitsIcESaIcEEEJRKS5_EEvPT_DpOT0_, symObjAddr: 0x2F98, symBinAddr: 0x100009CD8, symSize: 0x70 }
  - { offsetInCU: 0x896B, offset: 0x20352, size: 0x8, addend: 0x0, symName: __ZNK9__gnu_cxx17__normal_iteratorIPKNSt7__cxx1112basic_stringIcSt11char_traitsIcESaIcEEESt6vectorIS6_SaIS6_EEEdeEv, symObjAddr: 0x2F80, symBinAddr: 0x100009CC0, symSize: 0x18 }
  - { offsetInCU: 0x8973, offset: 0x2035A, size: 0x8, addend: 0x0, symName: __ZSt10_ConstructINSt7__cxx1112basic_stringIcSt11char_traitsIcESaIcEEEJRKS5_EEvPT_DpOT0_, symObjAddr: 0x2F98, symBinAddr: 0x100009CD8, symSize: 0x70 }
  - { offsetInCU: 0x8B2C, offset: 0x20513, size: 0x8, addend: 0x0, symName: __ZSt13__copy_move_aILb1EN9__gnu_cxx17__normal_iteratorIPNSt7__cxx1112basic_stringIcSt11char_traitsIcESaIcEEESt6vectorIS7_SaIS7_EEEESC_ET1_T0_SE_SD_, symObjAddr: 0x2EA0, symBinAddr: 0x100009C60, symSize: 0x60 }
  - { offsetInCU: 0x8B33, offset: 0x2051A, size: 0x8, addend: 0x0, symName: __ZSt12__miter_baseIN9__gnu_cxx17__normal_iteratorIPNSt7__cxx1112basic_stringIcSt11char_traitsIcESaIcEEESt6vectorIS7_SaIS7_EEEEET_SD_, symObjAddr: 0x2E8C, symBinAddr: 0x100009C4C, symSize: 0x14 }
  - { offsetInCU: 0x8B3B, offset: 0x20522, size: 0x8, addend: 0x0, symName: __ZSt13__copy_move_aILb1EN9__gnu_cxx17__normal_iteratorIPNSt7__cxx1112basic_stringIcSt11char_traitsIcESaIcEEESt6vectorIS7_SaIS7_EEEESC_ET1_T0_SE_SD_, symObjAddr: 0x2EA0, symBinAddr: 0x100009C60, symSize: 0x60 }
  - { offsetInCU: 0x8A7E, offset: 0x20465, size: 0x8, addend: 0x0, symName: __ZSt9__find_ifIN9__gnu_cxx17__normal_iteratorIPNSt7__cxx1112basic_stringIcSt11char_traitsIcESaIcEEESt6vectorIS7_SaIS7_EEEENS0_5__ops10_Iter_predIZN15LiteratureEntry11remove_nameERKS7_EUlSH_E_EEET_SK_SK_T0_St26random_access_iterator_tag, symObjAddr: 0x2CF0, symBinAddr: 0x100009AB0, symSize: 0x19C }
  - { offsetInCU: 0x8A86, offset: 0x2046D, size: 0x8, addend: 0x0, symName: __ZSt12__miter_baseIN9__gnu_cxx17__normal_iteratorIPNSt7__cxx1112basic_stringIcSt11char_traitsIcESaIcEEESt6vectorIS7_SaIS7_EEEEET_SD_, symObjAddr: 0x2E8C, symBinAddr: 0x100009C4C, symSize: 0x14 }
  - { offsetInCU: 0x8C55, offset: 0x2063C, size: 0x8, addend: 0x0, symName: __ZSt19__iterator_categoryIN9__gnu_cxx17__normal_iteratorIPNSt7__cxx1112basic_stringIcSt11char_traitsIcESaIcEEESt6vectorIS7_SaIS7_EEEEENSt15iterator_traitsIT_E17iterator_categoryERKSE_, symObjAddr: 0x2CDC, symBinAddr: 0x100009A9C, symSize: 0x14 }
  - { offsetInCU: 0x8C5D, offset: 0x20644, size: 0x8, addend: 0x0, symName: __ZSt9__find_ifIN9__gnu_cxx17__normal_iteratorIPNSt7__cxx1112basic_stringIcSt11char_traitsIcESaIcEEESt6vectorIS7_SaIS7_EEEENS0_5__ops10_Iter_predIZN15LiteratureEntry11remove_nameERKS7_EUlSH_E_EEET_SK_SK_T0_St26random_access_iterator_tag, symObjAddr: 0x2CF0, symBinAddr: 0x100009AB0, symSize: 0x19C }
  - { offsetInCU: 0x8B5F, offset: 0x20546, size: 0x8, addend: 0x0, symName: __ZN9__gnu_cxx17__normal_iteratorIPKNSt7__cxx1112basic_stringIcSt11char_traitsIcESaIcEEESt6vectorIS6_SaIS6_EEEppEv, symObjAddr: 0x2C10, symBinAddr: 0x100009A74, symSize: 0x28 }
  - { offsetInCU: 0x8B8E, offset: 0x20575, size: 0x8, addend: 0x0, symName: __ZN9__gnu_cxx5__ops16_Iter_equals_valIKNSt7__cxx1112basic_stringIcSt11char_traitsIcESaIcEEEEclINS_17__normal_iteratorIPS8_St6vectorIS7_SaIS7_EEEEEEbT_, symObjAddr: 0x2BD4, symBinAddr: 0x100009A38, symSize: 0x3C }
  - { offsetInCU: 0x8B96, offset: 0x2057D, size: 0x8, addend: 0x0, symName: __ZN9__gnu_cxx17__normal_iteratorIPKNSt7__cxx1112basic_stringIcSt11char_traitsIcESaIcEEESt6vectorIS6_SaIS6_EEEppEv, symObjAddr: 0x2C10, symBinAddr: 0x100009A74, symSize: 0x28 }
  - { offsetInCU: 0x8C86, offset: 0x2066D, size: 0x8, addend: 0x0, symName: __ZSt12__get_helperILm0EPSt6vectorINSt7__cxx1112basic_stringIcSt11char_traitsIcESaIcEEESaIS6_EEJSt14default_deleteIS8_EEERKT0_RKSt11_Tuple_implIXT_EJSC_DpT1_EE, symObjAddr: 0x2BB8, symBinAddr: 0x100009A1C, symSize: 0x1C }
  - { offsetInCU: 0x8C8E, offset: 0x20675, size: 0x8, addend: 0x0, symName: __ZN9__gnu_cxx5__ops16_Iter_equals_valIKNSt7__cxx1112basic_stringIcSt11char_traitsIcESaIcEEEEclINS_17__normal_iteratorIPS8_St6vectorIS7_SaIS7_EEEEEEbT_, symObjAddr: 0x2BD4, symBinAddr: 0x100009A38, symSize: 0x3C }
  - { offsetInCU: 0x8C47, offset: 0x2062E, size: 0x8, addend: 0x0, symName: __ZNSt20__uninitialized_copyILb0EE13__uninit_copyIN9__gnu_cxx17__normal_iteratorIPKNSt7__cxx1112basic_stringIcSt11char_traitsIcESaIcEEESt6vectorIS9_SaIS9_EEEEPS9_EET0_T_SI_SH_, symObjAddr: 0x2AC4, symBinAddr: 0x100009974, symSize: 0xA8 }
  - { offsetInCU: 0x8CCB, offset: 0x206B2, size: 0x8, addend: 0x0, symName: __ZNSt6vectorINSt7__cxx1112basic_stringIcSt11char_traitsIcESaIcEEESaIS5_EE15_M_erase_at_endEPS5_, symObjAddr: 0x2958, symBinAddr: 0x100009900, symSize: 0x74 }
  - { offsetInCU: 0x8EA8, offset: 0x2088F, size: 0x8, addend: 0x0, symName: __ZSt4moveIN9__gnu_cxx17__normal_iteratorIPNSt7__cxx1112basic_stringIcSt11char_traitsIcESaIcEEESt6vectorIS7_SaIS7_EEEESC_ET0_T_SE_SD_, symObjAddr: 0x2910, symBinAddr: 0x1000098B8, symSize: 0x48 }
  - { offsetInCU: 0x8EB0, offset: 0x20897, size: 0x8, addend: 0x0, symName: __ZNSt6vectorINSt7__cxx1112basic_stringIcSt11char_traitsIcESaIcEEESaIS5_EE15_M_erase_at_endEPS5_, symObjAddr: 0x2958, symBinAddr: 0x100009900, symSize: 0x74 }
  - { offsetInCU: 0x8DB5, offset: 0x2079C, size: 0x8, addend: 0x0, symName: __ZN9__gnu_cxx5__ops10_Iter_predIZN15LiteratureEntry11remove_nameERKNSt7__cxx1112basic_stringIcSt11char_traitsIcESaIcEEEEUlSA_E_EclINS_17__normal_iteratorIPS8_St6vectorIS8_SaIS8_EEEEEEbT_, symObjAddr: 0x28D4, symBinAddr: 0x10000987C, symSize: 0x3C }
  - { offsetInCU: 0x8DBD, offset: 0x207A4, size: 0x8, addend: 0x0, symName: __ZSt4moveIN9__gnu_cxx17__normal_iteratorIPNSt7__cxx1112basic_stringIcSt11char_traitsIcESaIcEEESt6vectorIS7_SaIS7_EEEESC_ET0_T_SE_SD_, symObjAddr: 0x2910, symBinAddr: 0x1000098B8, symSize: 0x48 }
  - { offsetInCU: 0x8EEA, offset: 0x208D1, size: 0x8, addend: 0x0, symName: __ZN9__gnu_cxxeqIPNSt7__cxx1112basic_stringIcSt11char_traitsIcESaIcEEESt6vectorIS6_SaIS6_EEEEbRKNS_17__normal_iteratorIT_T0_EESG_, symObjAddr: 0x2890, symBinAddr: 0x100009838, symSize: 0x44 }
  - { offsetInCU: 0x8EF2, offset: 0x208D9, size: 0x8, addend: 0x0, symName: __ZN9__gnu_cxx5__ops10_Iter_predIZN15LiteratureEntry11remove_nameERKNSt7__cxx1112basic_stringIcSt11char_traitsIcESaIcEEEEUlSA_E_EclINS_17__normal_iteratorIPS8_St6vectorIS8_SaIS8_EEEEEEbT_, symObjAddr: 0x28D4, symBinAddr: 0x10000987C, symSize: 0x3C }
  - { offsetInCU: 0x8E7B, offset: 0x20862, size: 0x8, addend: 0x0, symName: __ZSt9__find_ifIN9__gnu_cxx17__normal_iteratorIPNSt7__cxx1112basic_stringIcSt11char_traitsIcESaIcEEESt6vectorIS7_SaIS7_EEEENS0_5__ops10_Iter_predIZN15LiteratureEntry11remove_nameERKS7_EUlSH_E_EEET_SK_SK_T0_, symObjAddr: 0x2850, symBinAddr: 0x1000097F8, symSize: 0x40 }
  - { offsetInCU: 0x8E83, offset: 0x2086A, size: 0x8, addend: 0x0, symName: __ZN9__gnu_cxxeqIPNSt7__cxx1112basic_stringIcSt11char_traitsIcESaIcEEESt6vectorIS6_SaIS6_EEEEbRKNS_17__normal_iteratorIT_T0_EESG_, symObjAddr: 0x2890, symBinAddr: 0x100009838, symSize: 0x44 }
  - { offsetInCU: 0x8F1A, offset: 0x20901, size: 0x8, addend: 0x0, symName: __ZN9__gnu_cxx5__ops10_Iter_predIZN15LiteratureEntry11remove_nameERKNSt7__cxx1112basic_stringIcSt11char_traitsIcESaIcEEEEUlSA_E_EC1ESB_, symObjAddr: 0x281C, symBinAddr: 0x1000097C4, symSize: 0x34 }
  - { offsetInCU: 0x8F22, offset: 0x20909, size: 0x8, addend: 0x0, symName: __ZSt9__find_ifIN9__gnu_cxx17__normal_iteratorIPNSt7__cxx1112basic_stringIcSt11char_traitsIcESaIcEEESt6vectorIS7_SaIS7_EEEENS0_5__ops10_Iter_predIZN15LiteratureEntry11remove_nameERKS7_EUlSH_E_EEET_SK_SK_T0_, symObjAddr: 0x2850, symBinAddr: 0x1000097F8, symSize: 0x40 }
  - { offsetInCU: 0x8FA0, offset: 0x20987, size: 0x8, addend: 0x0, symName: __ZSt4moveIRZN15LiteratureEntry11remove_nameERKNSt7__cxx1112basic_stringIcSt11char_traitsIcESaIcEEEEUlS8_E_EONSt16remove_referenceIT_E4typeEOSC_, symObjAddr: 0x2808, symBinAddr: 0x1000097B0, symSize: 0x14 }
  - { offsetInCU: 0x8FA8, offset: 0x2098F, size: 0x8, addend: 0x0, symName: __ZN9__gnu_cxx5__ops10_Iter_predIZN15LiteratureEntry11remove_nameERKNSt7__cxx1112basic_stringIcSt11char_traitsIcESaIcEEEEUlSA_E_EC1ESB_, symObjAddr: 0x281C, symBinAddr: 0x1000097C4, symSize: 0x34 }
  - { offsetInCU: 0x907B, offset: 0x20A62, size: 0x8, addend: 0x0, symName: __ZSt9__find_ifIN9__gnu_cxx17__normal_iteratorIPKNSt7__cxx1112basic_stringIcSt11char_traitsIcESaIcEEESt6vectorIS7_SaIS7_EEEENS0_5__ops16_Iter_equals_valIS8_EEET_SH_SH_T0_St26random_access_iterator_tag, symObjAddr: 0x2444, symBinAddr: 0x100009614, symSize: 0x19C }
  - { offsetInCU: 0x9195, offset: 0x20B7C, size: 0x8, addend: 0x0, symName: __ZSt19__iterator_categoryIN9__gnu_cxx17__normal_iteratorIPKNSt7__cxx1112basic_stringIcSt11char_traitsIcESaIcEEESt6vectorIS7_SaIS7_EEEEENSt15iterator_traitsIT_E17iterator_categoryERKSF_, symObjAddr: 0x2430, symBinAddr: 0x100009600, symSize: 0x14 }
  - { offsetInCU: 0x919D, offset: 0x20B84, size: 0x8, addend: 0x0, symName: __ZSt9__find_ifIN9__gnu_cxx17__normal_iteratorIPKNSt7__cxx1112basic_stringIcSt11char_traitsIcESaIcEEESt6vectorIS7_SaIS7_EEEENS0_5__ops16_Iter_equals_valIS8_EEET_SH_SH_T0_St26random_access_iterator_tag, symObjAddr: 0x2444, symBinAddr: 0x100009614, symSize: 0x19C }
  - { offsetInCU: 0x9126, offset: 0x20B0D, size: 0x8, addend: 0x0, symName: __ZN9__gnu_cxx5__ops16_Iter_equals_valIKNSt7__cxx1112basic_stringIcSt11char_traitsIcESaIcEEEEC1ERS8_, symObjAddr: 0x240C, symBinAddr: 0x1000095DC, symSize: 0x24 }
  - { offsetInCU: 0x912E, offset: 0x20B15, size: 0x8, addend: 0x0, symName: __ZSt19__iterator_categoryIN9__gnu_cxx17__normal_iteratorIPKNSt7__cxx1112basic_stringIcSt11char_traitsIcESaIcEEESt6vectorIS7_SaIS7_EEEEENSt15iterator_traitsIT_E17iterator_categoryERKSF_, symObjAddr: 0x2430, symBinAddr: 0x100009600, symSize: 0x14 }
  - { offsetInCU: 0x91C3, offset: 0x20BAA, size: 0x8, addend: 0x0, symName: __ZSt3getILm0EJPSt6vectorINSt7__cxx1112basic_stringIcSt11char_traitsIcESaIcEEESaIS6_EESt14default_deleteIS8_EEERKNSt13tuple_elementIXT_ESt5tupleIJDpT0_EEE4typeERKSG_, symObjAddr: 0x23F0, symBinAddr: 0x1000095C0, symSize: 0x1C }
  - { offsetInCU: 0x91CB, offset: 0x20BB2, size: 0x8, addend: 0x0, symName: __ZN9__gnu_cxx5__ops16_Iter_equals_valIKNSt7__cxx1112basic_stringIcSt11char_traitsIcESaIcEEEEC1ERS8_, symObjAddr: 0x240C, symBinAddr: 0x1000095DC, symSize: 0x24 }
  - { offsetInCU: 0x92CC, offset: 0x20CB3, size: 0x8, addend: 0x0, symName: __ZSt18uninitialized_copyIN9__gnu_cxx17__normal_iteratorIPKNSt7__cxx1112basic_stringIcSt11char_traitsIcESaIcEEESt6vectorIS7_SaIS7_EEEEPS7_ET0_T_SG_SF_, symObjAddr: 0x2394, symBinAddr: 0x10000958C, symSize: 0x34 }
  - { offsetInCU: 0x9214, offset: 0x20BFB, size: 0x8, addend: 0x0, symName: __ZNSt16allocator_traitsISaINSt7__cxx1112basic_stringIcSt11char_traitsIcESaIcEEEEE37select_on_container_copy_constructionERKS6_, symObjAddr: 0x2284, symBinAddr: 0x10000955C, symSize: 0x30 }
  - { offsetInCU: 0x92C6, offset: 0x20CAD, size: 0x8, addend: 0x0, symName: __ZSt10__distanceIPKcENSt15iterator_traitsIT_E15difference_typeES3_S3_St26random_access_iterator_tag, symObjAddr: 0x21B0, symBinAddr: 0x100009538, symSize: 0x24 }
  - { offsetInCU: 0x9324, offset: 0x20D0B, size: 0x8, addend: 0x0, symName: __ZSt19__iterator_categoryIPKcENSt15iterator_traitsIT_E17iterator_categoryERKS3_, symObjAddr: 0x219C, symBinAddr: 0x100009524, symSize: 0x14 }
  - { offsetInCU: 0x932C, offset: 0x20D13, size: 0x8, addend: 0x0, symName: __ZSt10__distanceIPKcENSt15iterator_traitsIT_E15difference_typeES3_S3_St26random_access_iterator_tag, symObjAddr: 0x21B0, symBinAddr: 0x100009538, symSize: 0x24 }
  - { offsetInCU: 0x933E, offset: 0x20D25, size: 0x8, addend: 0x0, symName: __ZN9__gnu_cxx17__is_null_pointerIKcEEbPT_, symObjAddr: 0x217C, symBinAddr: 0x100009504, symSize: 0x20 }
  - { offsetInCU: 0x9346, offset: 0x20D2D, size: 0x8, addend: 0x0, symName: __ZSt19__iterator_categoryIPKcENSt15iterator_traitsIT_E17iterator_categoryERKS3_, symObjAddr: 0x219C, symBinAddr: 0x100009524, symSize: 0x14 }
  - { offsetInCU: 0x933C, offset: 0x20D23, size: 0x8, addend: 0x0, symName: __ZNSt6vectorINSt7__cxx1112basic_stringIcSt11char_traitsIcESaIcEEESaIS5_EE8_M_eraseEN9__gnu_cxx17__normal_iteratorIPS5_S7_EESB_, symObjAddr: 0x20C8, symBinAddr: 0x100009450, symSize: 0xB4 }
  - { offsetInCU: 0x9344, offset: 0x20D2B, size: 0x8, addend: 0x0, symName: __ZN9__gnu_cxx17__is_null_pointerIKcEEbPT_, symObjAddr: 0x217C, symBinAddr: 0x100009504, symSize: 0x20 }
  - { offsetInCU: 0x9391, offset: 0x20D78, size: 0x8, addend: 0x0, symName: __ZNK9__gnu_cxx17__normal_iteratorIPNSt7__cxx1112basic_stringIcSt11char_traitsIcESaIcEEESt6vectorIS6_SaIS6_EEEplEl, symObjAddr: 0x2088, symBinAddr: 0x100009410, symSize: 0x40 }
  - { offsetInCU: 0x9399, offset: 0x20D80, size: 0x8, addend: 0x0, symName: __ZNSt6vectorINSt7__cxx1112basic_stringIcSt11char_traitsIcESaIcEEESaIS5_EE8_M_eraseEN9__gnu_cxx17__normal_iteratorIPS5_S7_EESB_, symObjAddr: 0x20C8, symBinAddr: 0x100009450, symSize: 0xB4 }
  - { offsetInCU: 0x94D2, offset: 0x20EB9, size: 0x8, addend: 0x0, symName: __ZN9__gnu_cxxmiIPKNSt7__cxx1112basic_stringIcSt11char_traitsIcESaIcEEESt6vectorIS6_SaIS6_EEEENS_17__normal_iteratorIT_T0_E15difference_typeERKSF_SI_, symObjAddr: 0x2048, symBinAddr: 0x1000093D0, symSize: 0x40 }
  - { offsetInCU: 0x94DA, offset: 0x20EC1, size: 0x8, addend: 0x0, symName: __ZNK9__gnu_cxx17__normal_iteratorIPNSt7__cxx1112basic_stringIcSt11char_traitsIcESaIcEEESt6vectorIS6_SaIS6_EEEplEl, symObjAddr: 0x2088, symBinAddr: 0x100009410, symSize: 0x40 }
  - { offsetInCU: 0x9441, offset: 0x20E28, size: 0x8, addend: 0x0, symName: __ZNKSt6vectorINSt7__cxx1112basic_stringIcSt11char_traitsIcESaIcEEESaIS5_EE6cbeginEv, symObjAddr: 0x2024, symBinAddr: 0x1000093AC, symSize: 0x24 }
  - { offsetInCU: 0x9449, offset: 0x20E30, size: 0x8, addend: 0x0, symName: __ZN9__gnu_cxxmiIPKNSt7__cxx1112basic_stringIcSt11char_traitsIcESaIcEEESt6vectorIS6_SaIS6_EEEENS_17__normal_iteratorIT_T0_E15difference_typeERKSF_SI_, symObjAddr: 0x2048, symBinAddr: 0x1000093D0, symSize: 0x40 }
  - { offsetInCU: 0x9558, offset: 0x20F3F, size: 0x8, addend: 0x0, symName: __ZSt11__remove_ifIN9__gnu_cxx17__normal_iteratorIPNSt7__cxx1112basic_stringIcSt11char_traitsIcESaIcEEESt6vectorIS7_SaIS7_EEEENS0_5__ops10_Iter_predIZN15LiteratureEntry11remove_nameERKS7_EUlSH_E_EEET_SK_SK_T0_, symObjAddr: 0x1F38, symBinAddr: 0x1000092D4, symSize: 0xD8 }
  - { offsetInCU: 0x9558, offset: 0x20F3F, size: 0x8, addend: 0x0, symName: __ZN9__gnu_cxx5__ops11__pred_iterIZN15LiteratureEntry11remove_nameERKNSt7__cxx1112basic_stringIcSt11char_traitsIcESaIcEEEEUlSA_E_EENS0_10_Iter_predIT_EESD_, symObjAddr: 0x1F08, symBinAddr: 0x1000092A4, symSize: 0x30 }
  - { offsetInCU: 0x9560, offset: 0x20F47, size: 0x8, addend: 0x0, symName: __ZSt11__remove_ifIN9__gnu_cxx17__normal_iteratorIPNSt7__cxx1112basic_stringIcSt11char_traitsIcESaIcEEESt6vectorIS7_SaIS7_EEEENS0_5__ops10_Iter_predIZN15LiteratureEntry11remove_nameERKS7_EUlSH_E_EEET_SK_SK_T0_, symObjAddr: 0x1F38, symBinAddr: 0x1000092D4, symSize: 0xD8 }
  - { offsetInCU: 0x9549, offset: 0x20F30, size: 0x8, addend: 0x0, symName: __ZNK9__gnu_cxx17__normal_iteratorIPKNSt7__cxx1112basic_stringIcSt11char_traitsIcESaIcEEESt6vectorIS6_SaIS6_EEE4baseEv, symObjAddr: 0x1CAC, symBinAddr: 0x100009290, symSize: 0x14 }
  - { offsetInCU: 0x962B, offset: 0x21012, size: 0x8, addend: 0x0, symName: __ZSt9__find_ifIN9__gnu_cxx17__normal_iteratorIPKNSt7__cxx1112basic_stringIcSt11char_traitsIcESaIcEEESt6vectorIS7_SaIS7_EEEENS0_5__ops16_Iter_equals_valIS8_EEET_SH_SH_T0_, symObjAddr: 0x1C6C, symBinAddr: 0x100009250, symSize: 0x40 }
  - { offsetInCU: 0x9633, offset: 0x2101A, size: 0x8, addend: 0x0, symName: __ZNK9__gnu_cxx17__normal_iteratorIPKNSt7__cxx1112basic_stringIcSt11char_traitsIcESaIcEEESt6vectorIS6_SaIS6_EEE4baseEv, symObjAddr: 0x1CAC, symBinAddr: 0x100009290, symSize: 0x14 }
  - { offsetInCU: 0x96B7, offset: 0x2109E, size: 0x8, addend: 0x0, symName: __ZN9__gnu_cxx5__ops17__iter_equals_valIKNSt7__cxx1112basic_stringIcSt11char_traitsIcESaIcEEEEENS0_16_Iter_equals_valIT_EERSA_, symObjAddr: 0x1C48, symBinAddr: 0x10000922C, symSize: 0x24 }
  - { offsetInCU: 0x96BF, offset: 0x210A6, size: 0x8, addend: 0x0, symName: __ZSt9__find_ifIN9__gnu_cxx17__normal_iteratorIPKNSt7__cxx1112basic_stringIcSt11char_traitsIcESaIcEEESt6vectorIS7_SaIS7_EEEENS0_5__ops16_Iter_equals_valIS8_EEET_SH_SH_T0_, symObjAddr: 0x1C6C, symBinAddr: 0x100009250, symSize: 0x40 }
  - { offsetInCU: 0x96E5, offset: 0x210CC, size: 0x8, addend: 0x0, symName: __ZN9__gnu_cxx17__normal_iteratorIPKNSt7__cxx1112basic_stringIcSt11char_traitsIcESaIcEEESt6vectorIS6_SaIS6_EEEC1ERKS8_, symObjAddr: 0x1C20, symBinAddr: 0x100009204, symSize: 0x28 }
  - { offsetInCU: 0x96ED, offset: 0x210D4, size: 0x8, addend: 0x0, symName: __ZN9__gnu_cxx5__ops17__iter_equals_valIKNSt7__cxx1112basic_stringIcSt11char_traitsIcESaIcEEEEENS0_16_Iter_equals_valIT_EERSA_, symObjAddr: 0x1C48, symBinAddr: 0x10000922C, symSize: 0x24 }
  - { offsetInCU: 0x96A9, offset: 0x21090, size: 0x8, addend: 0x0, symName: __ZNKSt15__uniq_ptr_implISt6vectorINSt7__cxx1112basic_stringIcSt11char_traitsIcESaIcEEESaIS6_EESt14default_deleteIS8_EE6_M_ptrEv, symObjAddr: 0x1C00, symBinAddr: 0x1000091E4, symSize: 0x20 }
  - { offsetInCU: 0x96B1, offset: 0x21098, size: 0x8, addend: 0x0, symName: __ZN9__gnu_cxx17__normal_iteratorIPKNSt7__cxx1112basic_stringIcSt11char_traitsIcESaIcEEESt6vectorIS6_SaIS6_EEEC1ERKS8_, symObjAddr: 0x1C20, symBinAddr: 0x100009204, symSize: 0x28 }
  - { offsetInCU: 0x9857, offset: 0x2123E, size: 0x8, addend: 0x0, symName: __ZSt22__uninitialized_copy_aIN9__gnu_cxx17__normal_iteratorIPKNSt7__cxx1112basic_stringIcSt11char_traitsIcESaIcEEESt6vectorIS7_SaIS7_EEEEPS7_S7_ET0_T_SG_SF_RSaIT1_E, symObjAddr: 0x1BA4, symBinAddr: 0x1000091B4, symSize: 0x30 }
  - { offsetInCU: 0x9772, offset: 0x21159, size: 0x8, addend: 0x0, symName: __ZN9__gnu_cxx14__alloc_traitsISaINSt7__cxx1112basic_stringIcSt11char_traitsIcESaIcEEEES6_E17_S_select_on_copyERKS7_, symObjAddr: 0x1A48, symBinAddr: 0x100009184, symSize: 0x30 }
  - { offsetInCU: 0x9883, offset: 0x2126A, size: 0x8, addend: 0x0, symName: __ZSt7forwardISt14default_deleteISt6vectorINSt7__cxx1112basic_stringIcSt11char_traitsIcESaIcEEESaIS7_EEEEOT_RNSt16remove_referenceISB_E4typeE, symObjAddr: 0x1A0C, symBinAddr: 0x100009170, symSize: 0x14 }
  - { offsetInCU: 0x9801, offset: 0x211E8, size: 0x8, addend: 0x0, symName: __ZNSt15__uniq_ptr_implISt6vectorINSt7__cxx1112basic_stringIcSt11char_traitsIcESaIcEEESaIS6_EESt14default_deleteIS8_EE7releaseEv, symObjAddr: 0x19BC, symBinAddr: 0x10000913C, symSize: 0x34 }
  - { offsetInCU: 0x9843, offset: 0x2122A, size: 0x8, addend: 0x0, symName: __ZNSt15__uniq_ptr_implISt6vectorINSt7__cxx1112basic_stringIcSt11char_traitsIcESaIcEEESaIS6_EESt14default_deleteIS8_EE5resetEPS8_, symObjAddr: 0x195C, symBinAddr: 0x1000090DC, symSize: 0x60 }
  - { offsetInCU: 0x984B, offset: 0x21232, size: 0x8, addend: 0x0, symName: __ZNSt15__uniq_ptr_implISt6vectorINSt7__cxx1112basic_stringIcSt11char_traitsIcESaIcEEESaIS6_EESt14default_deleteIS8_EE7releaseEv, symObjAddr: 0x19BC, symBinAddr: 0x10000913C, symSize: 0x34 }
  - { offsetInCU: 0x9898, offset: 0x2127F, size: 0x8, addend: 0x0, symName: __ZNSt10unique_ptrISt6vectorINSt7__cxx1112basic_stringIcSt11char_traitsIcESaIcEEESaIS6_EESt14default_deleteIS8_EE5resetEPS8_, symObjAddr: 0x191C, symBinAddr: 0x10000909C, symSize: 0x40 }
  - { offsetInCU: 0x98A0, offset: 0x21287, size: 0x8, addend: 0x0, symName: __ZNSt15__uniq_ptr_implISt6vectorINSt7__cxx1112basic_stringIcSt11char_traitsIcESaIcEEESaIS6_EESt14default_deleteIS8_EE5resetEPS8_, symObjAddr: 0x195C, symBinAddr: 0x1000090DC, symSize: 0x60 }
  - { offsetInCU: 0x9992, offset: 0x21379, size: 0x8, addend: 0x0, symName: __ZSt7forwardIRSt6vectorINSt7__cxx1112basic_stringIcSt11char_traitsIcESaIcEEESaIS6_EEEOT_RNSt16remove_referenceISA_E4typeE, symObjAddr: 0x18B8, symBinAddr: 0x100009088, symSize: 0x14 }
  - { offsetInCU: 0x992F, offset: 0x21316, size: 0x8, addend: 0x0, symName: __ZNSt7__cxx1112basic_stringIcSt11char_traitsIcESaIcEE12_M_constructIPKcEEvT_S8_St20forward_iterator_tag, symObjAddr: 0x16D4, symBinAddr: 0x100008F88, symSize: 0x100 }
  - { offsetInCU: 0x9A0D, offset: 0x213F4, size: 0x8, addend: 0x0, symName: __ZSt8distanceIPKcENSt15iterator_traitsIT_E15difference_typeES3_S3_, symObjAddr: 0x1698, symBinAddr: 0x100008F4C, symSize: 0x3C }
  - { offsetInCU: 0x9A15, offset: 0x213FC, size: 0x8, addend: 0x0, symName: __ZNSt7__cxx1112basic_stringIcSt11char_traitsIcESaIcEE12_M_constructIPKcEEvT_S8_St20forward_iterator_tag, symObjAddr: 0x16D4, symBinAddr: 0x100008F88, symSize: 0x100 }
  - { offsetInCU: 0x9A0D, offset: 0x213F4, size: 0x8, addend: 0x0, symName: __ZNSt6vectorINSt7__cxx1112basic_stringIcSt11char_traitsIcESaIcEEESaIS5_EE5eraseEN9__gnu_cxx17__normal_iteratorIPKS5_S7_EESC_, symObjAddr: 0x1594, symBinAddr: 0x100008ECC, symSize: 0x80 }
  - { offsetInCU: 0x9B84, offset: 0x2156B, size: 0x8, addend: 0x0, symName: __ZN9__gnu_cxx17__normal_iteratorIPKNSt7__cxx1112basic_stringIcSt11char_traitsIcESaIcEEESt6vectorIS6_SaIS6_EEEC1IPS6_EERKNS0_IT_NS_11__enable_ifIXsrSt10__are_sameISF_SE_E7__valueESB_E6__typeEEE, symObjAddr: 0x1564, symBinAddr: 0x100008E9C, symSize: 0x30 }
  - { offsetInCU: 0x9B8C, offset: 0x21573, size: 0x8, addend: 0x0, symName: __ZNSt6vectorINSt7__cxx1112basic_stringIcSt11char_traitsIcESaIcEEESaIS5_EE5eraseEN9__gnu_cxx17__normal_iteratorIPKS5_S7_EESC_, symObjAddr: 0x1594, symBinAddr: 0x100008ECC, symSize: 0x80 }
  - { offsetInCU: 0x9BD1, offset: 0x215B8, size: 0x8, addend: 0x0, symName: __ZSt9remove_ifIN9__gnu_cxx17__normal_iteratorIPNSt7__cxx1112basic_stringIcSt11char_traitsIcESaIcEEESt6vectorIS7_SaIS7_EEEEZN15LiteratureEntry11remove_nameERKS7_EUlSF_E_ET_SH_SH_T0_, symObjAddr: 0x1530, symBinAddr: 0x100008E68, symSize: 0x34 }
  - { offsetInCU: 0x9BD9, offset: 0x215C0, size: 0x8, addend: 0x0, symName: __ZN9__gnu_cxx17__normal_iteratorIPKNSt7__cxx1112basic_stringIcSt11char_traitsIcESaIcEEESt6vectorIS6_SaIS6_EEEC1IPS6_EERKNS0_IT_NS_11__enable_ifIXsrSt10__are_sameISF_SE_E7__valueESB_E6__typeEEE, symObjAddr: 0x1564, symBinAddr: 0x100008E9C, symSize: 0x30 }
  - { offsetInCU: 0x9C25, offset: 0x2160C, size: 0x8, addend: 0x0, symName: __ZSteqIcEN9__gnu_cxx11__enable_ifIXsrSt9__is_charIT_E7__valueEbE6__typeERKNSt7__cxx1112basic_stringIS3_St11char_traitsIS3_ESaIS3_EEESE_, symObjAddr: 0x14B0, symBinAddr: 0x100008DE8, symSize: 0x80 }
  - { offsetInCU: 0x9C2D, offset: 0x21614, size: 0x8, addend: 0x0, symName: __ZSt9remove_ifIN9__gnu_cxx17__normal_iteratorIPNSt7__cxx1112basic_stringIcSt11char_traitsIcESaIcEEESt6vectorIS7_SaIS7_EEEEZN15LiteratureEntry11remove_nameERKS7_EUlSF_E_ET_SH_SH_T0_, symObjAddr: 0x1530, symBinAddr: 0x100008E68, symSize: 0x34 }
  - { offsetInCU: 0x9BE7, offset: 0x215CE, size: 0x8, addend: 0x0, symName: __ZNKSt10unique_ptrISt6vectorINSt7__cxx1112basic_stringIcSt11char_traitsIcESaIcEEESaIS6_EESt14default_deleteIS8_EEptEv, symObjAddr: 0x13C8, symBinAddr: 0x100008DCC, symSize: 0x1C }
  - { offsetInCU: 0x9D02, offset: 0x216E9, size: 0x8, addend: 0x0, symName: __ZN9__gnu_cxxneIPKNSt7__cxx1112basic_stringIcSt11char_traitsIcESaIcEEESt6vectorIS6_SaIS6_EEEEbRKNS_17__normal_iteratorIT_T0_EESH_, symObjAddr: 0x1384, symBinAddr: 0x100008D88, symSize: 0x44 }
  - { offsetInCU: 0x9D0A, offset: 0x216F1, size: 0x8, addend: 0x0, symName: __ZNKSt10unique_ptrISt6vectorINSt7__cxx1112basic_stringIcSt11char_traitsIcESaIcEEESaIS6_EESt14default_deleteIS8_EEptEv, symObjAddr: 0x13C8, symBinAddr: 0x100008DCC, symSize: 0x1C }
  - { offsetInCU: 0x9DB0, offset: 0x21797, size: 0x8, addend: 0x0, symName: __ZSt4findIN9__gnu_cxx17__normal_iteratorIPKNSt7__cxx1112basic_stringIcSt11char_traitsIcESaIcEEESt6vectorIS7_SaIS7_EEEES7_ET_SE_SE_RKT0_, symObjAddr: 0x1350, symBinAddr: 0x100008D54, symSize: 0x34 }
  - { offsetInCU: 0x9DB8, offset: 0x2179F, size: 0x8, addend: 0x0, symName: __ZN9__gnu_cxxneIPKNSt7__cxx1112basic_stringIcSt11char_traitsIcESaIcEEESt6vectorIS6_SaIS6_EEEEbRKNS_17__normal_iteratorIT_T0_EESH_, symObjAddr: 0x1384, symBinAddr: 0x100008D88, symSize: 0x44 }
  - { offsetInCU: 0x9D04, offset: 0x216EB, size: 0x8, addend: 0x0, symName: __ZNKSt6vectorINSt7__cxx1112basic_stringIcSt11char_traitsIcESaIcEEESaIS5_EE3endEv, symObjAddr: 0x1328, symBinAddr: 0x100008D2C, symSize: 0x28 }
  - { offsetInCU: 0x9D0C, offset: 0x216F3, size: 0x8, addend: 0x0, symName: __ZSt4findIN9__gnu_cxx17__normal_iteratorIPKNSt7__cxx1112basic_stringIcSt11char_traitsIcESaIcEEESt6vectorIS7_SaIS7_EEEES7_ET_SE_SE_RKT0_, symObjAddr: 0x1350, symBinAddr: 0x100008D54, symSize: 0x34 }
  - { offsetInCU: 0x9D33, offset: 0x2171A, size: 0x8, addend: 0x0, symName: __ZNKSt6vectorINSt7__cxx1112basic_stringIcSt11char_traitsIcESaIcEEESaIS5_EE5beginEv, symObjAddr: 0x1304, symBinAddr: 0x100008D08, symSize: 0x24 }
  - { offsetInCU: 0x9D3B, offset: 0x21722, size: 0x8, addend: 0x0, symName: __ZNKSt6vectorINSt7__cxx1112basic_stringIcSt11char_traitsIcESaIcEEESaIS5_EE3endEv, symObjAddr: 0x1328, symBinAddr: 0x100008D2C, symSize: 0x28 }
  - { offsetInCU: 0x9D62, offset: 0x21749, size: 0x8, addend: 0x0, symName: __ZNKSt10unique_ptrISt6vectorINSt7__cxx1112basic_stringIcSt11char_traitsIcESaIcEEESaIS6_EESt14default_deleteIS8_EE3getEv, symObjAddr: 0x12E8, symBinAddr: 0x100008CEC, symSize: 0x1C }
  - { offsetInCU: 0x9D6A, offset: 0x21751, size: 0x8, addend: 0x0, symName: __ZNKSt6vectorINSt7__cxx1112basic_stringIcSt11char_traitsIcESaIcEEESaIS5_EE5beginEv, symObjAddr: 0x1304, symBinAddr: 0x100008D08, symSize: 0x24 }
  - { offsetInCU: 0x9D91, offset: 0x21778, size: 0x8, addend: 0x0, symName: __ZNKSt10unique_ptrISt6vectorINSt7__cxx1112basic_stringIcSt11char_traitsIcESaIcEEESaIS6_EESt14default_deleteIS8_EEcvbEv, symObjAddr: 0x12C0, symBinAddr: 0x100008CC4, symSize: 0x28 }
  - { offsetInCU: 0x9D99, offset: 0x21780, size: 0x8, addend: 0x0, symName: __ZNKSt10unique_ptrISt6vectorINSt7__cxx1112basic_stringIcSt11char_traitsIcESaIcEEESaIS6_EESt14default_deleteIS8_EE3getEv, symObjAddr: 0x12E8, symBinAddr: 0x100008CEC, symSize: 0x1C }
  - { offsetInCU: 0x9E3C, offset: 0x21823, size: 0x8, addend: 0x0, symName: __ZNSt6vectorINSt7__cxx1112basic_stringIcSt11char_traitsIcESaIcEEESaIS5_EEC1ERKS7_, symObjAddr: 0x118C, symBinAddr: 0x100008BE0, symSize: 0xE4 }
  - { offsetInCU: 0x9E24, offset: 0x2180B, size: 0x8, addend: 0x0, symName: __ZNSt15__uniq_ptr_implISt6vectorINSt7__cxx1112basic_stringIcSt11char_traitsIcESaIcEEESaIS6_EESt14default_deleteIS8_EEaSEOSB_, symObjAddr: 0x1134, symBinAddr: 0x100008B9C, symSize: 0x44 }
  - { offsetInCU: 0x9E66, offset: 0x2184D, size: 0x8, addend: 0x0, symName: __ZNSt10unique_ptrISt6vectorINSt7__cxx1112basic_stringIcSt11char_traitsIcESaIcEEESaIS6_EESt14default_deleteIS8_EEaSEDn, symObjAddr: 0x110C, symBinAddr: 0x100008B74, symSize: 0x28 }
  - { offsetInCU: 0x9E6E, offset: 0x21855, size: 0x8, addend: 0x0, symName: __ZNSt15__uniq_ptr_implISt6vectorINSt7__cxx1112basic_stringIcSt11char_traitsIcESaIcEEESaIS6_EESt14default_deleteIS8_EEaSEOSB_, symObjAddr: 0x1134, symBinAddr: 0x100008B9C, symSize: 0x44 }
  - { offsetInCU: 0x9EE2, offset: 0x218C9, size: 0x8, addend: 0x0, symName: __ZSt4moveIRiEONSt16remove_referenceIT_E4typeEOS2_, symObjAddr: 0x10F8, symBinAddr: 0x100008B60, symSize: 0x14 }
  - { offsetInCU: 0x9EEA, offset: 0x218D1, size: 0x8, addend: 0x0, symName: __ZNSt10unique_ptrISt6vectorINSt7__cxx1112basic_stringIcSt11char_traitsIcESaIcEEESaIS6_EESt14default_deleteIS8_EEaSEDn, symObjAddr: 0x110C, symBinAddr: 0x100008B74, symSize: 0x28 }
  - { offsetInCU: 0xA08B, offset: 0x21A72, size: 0x8, addend: 0x0, symName: __ZSt11make_uniqueISt6vectorINSt7__cxx1112basic_stringIcSt11char_traitsIcESaIcEEESaIS6_EEJRS8_EENSt9_MakeUniqIT_E15__single_objectEDpOT0_, symObjAddr: 0x106C, symBinAddr: 0x100008AE8, symSize: 0x78 }
  - { offsetInCU: 0x9F58, offset: 0x2193F, size: 0x8, addend: 0x0, symName: __ZNKSt10unique_ptrISt6vectorINSt7__cxx1112basic_stringIcSt11char_traitsIcESaIcEEESaIS6_EESt14default_deleteIS8_EEdeEv, symObjAddr: 0x1048, symBinAddr: 0x100008AC4, symSize: 0x24 }
  - { offsetInCU: 0x9F60, offset: 0x21947, size: 0x8, addend: 0x0, symName: __ZSt11make_uniqueISt6vectorINSt7__cxx1112basic_stringIcSt11char_traitsIcESaIcEEESaIS6_EEJRS8_EENSt9_MakeUniqIT_E15__single_objectEDpOT0_, symObjAddr: 0x106C, symBinAddr: 0x100008AE8, symSize: 0x78 }
  - { offsetInCU: 0x9FF6, offset: 0x219DD, size: 0x8, addend: 0x0, symName: __Z17check_nonnegativeIiET_S0_RKNSt7__cxx1112basic_stringIcSt11char_traitsIcESaIcEEE, symObjAddr: 0xF9C, symBinAddr: 0x100008A18, symSize: 0xAC }
  - { offsetInCU: 0x9FFE, offset: 0x219E5, size: 0x8, addend: 0x0, symName: __ZNKSt10unique_ptrISt6vectorINSt7__cxx1112basic_stringIcSt11char_traitsIcESaIcEEESaIS6_EESt14default_deleteIS8_EEdeEv, symObjAddr: 0x1048, symBinAddr: 0x100008AC4, symSize: 0x24 }
  - { offsetInCU: 0xA078, offset: 0x21A5F, size: 0x8, addend: 0x0, symName: __ZNSt7__cxx1112basic_stringIcSt11char_traitsIcESaIcEEC1IS3_EEPKcRKS3_, symObjAddr: 0xDC0, symBinAddr: 0x100008980, symSize: 0x98 }
  - { offsetInCU: 0xA144, offset: 0x21B2B, size: 0x8, addend: 0x0, symName: __ZStplIcSt11char_traitsIcESaIcEENSt7__cxx1112basic_stringIT_T0_T1_EERKS8_PKS5_, symObjAddr: 0xD30, symBinAddr: 0x100008928, symSize: 0x58 }
  - { offsetInCU: 0xA1B1, offset: 0x21B98, size: 0x8, addend: 0x0, symName: __ZNSt7__cxx1112basic_stringIcSt11char_traitsIcESaIcEE12_Alloc_hiderD1Ev, symObjAddr: 0xD10, symBinAddr: 0x100008908, symSize: 0x20 }
  - { offsetInCU: 0xA1B9, offset: 0x21BA0, size: 0x8, addend: 0x0, symName: __ZStplIcSt11char_traitsIcESaIcEENSt7__cxx1112basic_stringIT_T0_T1_EERKS8_PKS5_, symObjAddr: 0xD30, symBinAddr: 0x100008928, symSize: 0x58 }
  - { offsetInCU: 0xA197, offset: 0x21B7E, size: 0x8, addend: 0x0, symName: __ZN9__gnu_cxx11char_traitsIcE6lengthEPKc, symObjAddr: 0xCB8, symBinAddr: 0x1000088B0, symSize: 0x58 }
  - { offsetInCU: 0xA19F, offset: 0x21B86, size: 0x8, addend: 0x0, symName: __ZNSt7__cxx1112basic_stringIcSt11char_traitsIcESaIcEE12_Alloc_hiderD1Ev, symObjAddr: 0xD10, symBinAddr: 0x100008908, symSize: 0x20 }
  - { offsetInCU: 0xA1DB, offset: 0x21BC2, size: 0x8, addend: 0x0, symName: __ZN9__gnu_cxx11char_traitsIcE2eqERKcS3_, symObjAddr: 0xC88, symBinAddr: 0x100008880, symSize: 0x30 }
  - { offsetInCU: 0xA1E3, offset: 0x21BCA, size: 0x8, addend: 0x0, symName: __ZN9__gnu_cxx11char_traitsIcE6lengthEPKc, symObjAddr: 0xCB8, symBinAddr: 0x1000088B0, symSize: 0x58 }
  - { offsetInCU: 0xA21F, offset: 0x21C06, size: 0x8, addend: 0x0, symName: __ZNK15LiteratureEntry10print_dataEv, symObjAddr: 0xB38, symBinAddr: 0x100008730, symSize: 0x150 }
  - { offsetInCU: 0xA227, offset: 0x21C0E, size: 0x8, addend: 0x0, symName: __ZN9__gnu_cxx11char_traitsIcE2eqERKcS3_, symObjAddr: 0xC88, symBinAddr: 0x100008880, symSize: 0x30 }
  - { offsetInCU: 0xA2A6, offset: 0x21C8D, size: 0x8, addend: 0x0, symName: __ZN15LiteratureEntry8set_yearEi, symObjAddr: 0xAA0, symBinAddr: 0x100008698, symSize: 0x98 }
  - { offsetInCU: 0xA2AE, offset: 0x21C95, size: 0x8, addend: 0x0, symName: __ZNK15LiteratureEntry10print_dataEv, symObjAddr: 0xB38, symBinAddr: 0x100008730, symSize: 0x150 }
  - { offsetInCU: 0xA2E8, offset: 0x21CCF, size: 0x8, addend: 0x0, symName: __ZN15LiteratureEntry11remove_nameERKNSt7__cxx1112basic_stringIcSt11char_traitsIcESaIcEEE, symObjAddr: 0x9F4, symBinAddr: 0x1000085EC, symSize: 0xAC }
  - { offsetInCU: 0xA2F0, offset: 0x21CD7, size: 0x8, addend: 0x0, symName: __ZN15LiteratureEntry8set_yearEi, symObjAddr: 0xAA0, symBinAddr: 0x100008698, symSize: 0x98 }
  - { offsetInCU: 0xA3A6, offset: 0x21D8D, size: 0x8, addend: 0x0, symName: __ZZN15LiteratureEntry11remove_nameERKNSt7__cxx1112basic_stringIcSt11char_traitsIcESaIcEEEENKUlS7_E_clES7_, symObjAddr: 0x9C4, symBinAddr: 0x1000085BC, symSize: 0x30 }
  - { offsetInCU: 0xA3AE, offset: 0x21D95, size: 0x8, addend: 0x0, symName: __ZN15LiteratureEntry11remove_nameERKNSt7__cxx1112basic_stringIcSt11char_traitsIcESaIcEEE, symObjAddr: 0x9F4, symBinAddr: 0x1000085EC, symSize: 0xAC }
  - { offsetInCU: 0xA418, offset: 0x21DFF, size: 0x8, addend: 0x0, symName: __ZN15LiteratureEntry8add_nameERKNSt7__cxx1112basic_stringIcSt11char_traitsIcESaIcEEE, symObjAddr: 0x994, symBinAddr: 0x10000858C, symSize: 0x30 }
  - { offsetInCU: 0xA420, offset: 0x21E07, size: 0x8, addend: 0x0, symName: __ZZN15LiteratureEntry11remove_nameERKNSt7__cxx1112basic_stringIcSt11char_traitsIcESaIcEEEENKUlS7_E_clES7_, symObjAddr: 0x9C4, symBinAddr: 0x1000085BC, symSize: 0x30 }
  - { offsetInCU: 0xA45A, offset: 0x21E41, size: 0x8, addend: 0x0, symName: __ZNK15LiteratureEntry7is_nameERKNSt7__cxx1112basic_stringIcSt11char_traitsIcESaIcEEE, symObjAddr: 0x8F4, symBinAddr: 0x1000084EC, symSize: 0xA0 }
  - { offsetInCU: 0xA462, offset: 0x21E49, size: 0x8, addend: 0x0, symName: __ZN15LiteratureEntry8add_nameERKNSt7__cxx1112basic_stringIcSt11char_traitsIcESaIcEEE, symObjAddr: 0x994, symBinAddr: 0x10000858C, symSize: 0x30 }
  - { offsetInCU: 0xA4C2, offset: 0x21EA9, size: 0x8, addend: 0x0, symName: __ZNK15LiteratureEntry9get_namesB5cxx11Ev, symObjAddr: 0x8B8, symBinAddr: 0x1000084B0, symSize: 0x3C }
  - { offsetInCU: 0xA4CA, offset: 0x21EB1, size: 0x8, addend: 0x0, symName: __ZNK15LiteratureEntry7is_nameERKNSt7__cxx1112basic_stringIcSt11char_traitsIcESaIcEEE, symObjAddr: 0x8F4, symBinAddr: 0x1000084EC, symSize: 0xA0 }
  - { offsetInCU: 0xA4F1, offset: 0x21ED8, size: 0x8, addend: 0x0, symName: __ZN15LiteratureEntryaSEOS_, symObjAddr: 0x814, symBinAddr: 0x10000840C, symSize: 0xA4 }
  - { offsetInCU: 0xA4F9, offset: 0x21EE0, size: 0x8, addend: 0x0, symName: __ZNK15LiteratureEntry9get_namesB5cxx11Ev, symObjAddr: 0x8B8, symBinAddr: 0x1000084B0, symSize: 0x3C }
  - { offsetInCU: 0xA533, offset: 0x21F1A, size: 0x8, addend: 0x0, symName: __ZN15LiteratureEntryaSERKS_, symObjAddr: 0x77C, symBinAddr: 0x100008374, symSize: 0x98 }
  - { offsetInCU: 0xA53B, offset: 0x21F22, size: 0x8, addend: 0x0, symName: __ZN15LiteratureEntryaSEOS_, symObjAddr: 0x814, symBinAddr: 0x10000840C, symSize: 0xA4 }
  - { offsetInCU: 0xA575, offset: 0x21F5C, size: 0x8, addend: 0x0, symName: __ZNSt10unique_ptrISt6vectorINSt7__cxx1112basic_stringIcSt11char_traitsIcESaIcEEESaIS6_EESt14default_deleteIS8_EEaSEOSB_, symObjAddr: 0x754, symBinAddr: 0x10000834C, symSize: 0x28 }
  - { offsetInCU: 0xA57D, offset: 0x21F64, size: 0x8, addend: 0x0, symName: __ZN15LiteratureEntryaSERKS_, symObjAddr: 0x77C, symBinAddr: 0x100008374, symSize: 0x98 }
  - { offsetInCU: 0xA5B0, offset: 0x21F97, size: 0x8, addend: 0x0, symName: __ZNSt15__uniq_ptr_dataISt6vectorINSt7__cxx1112basic_stringIcSt11char_traitsIcESaIcEEESaIS6_EESt14default_deleteIS8_ELb1ELb1EEaSEOSB_, symObjAddr: 0x72C, symBinAddr: 0x100008324, symSize: 0x28 }
  - { offsetInCU: 0xA5B8, offset: 0x21F9F, size: 0x8, addend: 0x0, symName: __ZNSt10unique_ptrISt6vectorINSt7__cxx1112basic_stringIcSt11char_traitsIcESaIcEEESaIS6_EESt14default_deleteIS8_EEaSEOSB_, symObjAddr: 0x754, symBinAddr: 0x10000834C, symSize: 0x28 }
  - { offsetInCU: 0xA62F, offset: 0x22016, size: 0x8, addend: 0x0, symName: __ZN15LiteratureEntryC1EOS_, symObjAddr: 0x670, symBinAddr: 0x100008268, symSize: 0xBC }
  - { offsetInCU: 0xA637, offset: 0x2201E, size: 0x8, addend: 0x0, symName: __ZNSt15__uniq_ptr_dataISt6vectorINSt7__cxx1112basic_stringIcSt11char_traitsIcESaIcEEESaIS6_EESt14default_deleteIS8_ELb1ELb1EEaSEOSB_, symObjAddr: 0x72C, symBinAddr: 0x100008324, symSize: 0x28 }
  - { offsetInCU: 0xA669, offset: 0x22050, size: 0x8, addend: 0x0, symName: __ZN15LiteratureEntryC2EOS_, symObjAddr: 0x5B4, symBinAddr: 0x1000081AC, symSize: 0xBC }
  - { offsetInCU: 0xA671, offset: 0x22058, size: 0x8, addend: 0x0, symName: __ZN15LiteratureEntryC1EOS_, symObjAddr: 0x670, symBinAddr: 0x100008268, symSize: 0xBC }
  - { offsetInCU: 0xA6CD, offset: 0x220B4, size: 0x8, addend: 0x0, symName: __ZN15LiteratureEntryC1ERKS_, symObjAddr: 0x518, symBinAddr: 0x100008110, symSize: 0x9C }
  - { offsetInCU: 0xA6D5, offset: 0x220BC, size: 0x8, addend: 0x0, symName: __ZN15LiteratureEntryC2EOS_, symObjAddr: 0x5B4, symBinAddr: 0x1000081AC, symSize: 0xBC }
  - { offsetInCU: 0xA707, offset: 0x220EE, size: 0x8, addend: 0x0, symName: __ZN15LiteratureEntryC2ERKS_, symObjAddr: 0x47C, symBinAddr: 0x100008074, symSize: 0x9C }
  - { offsetInCU: 0xA70F, offset: 0x220F6, size: 0x8, addend: 0x0, symName: __ZN15LiteratureEntryC1ERKS_, symObjAddr: 0x518, symBinAddr: 0x100008110, symSize: 0x9C }
  - { offsetInCU: 0xA7F9, offset: 0x221E0, size: 0x8, addend: 0x0, symName: __ZN15LiteratureEntryC1ERKNSt7__cxx1112basic_stringIcSt11char_traitsIcESaIcEEESt10unique_ptrISt6vectorIS5_SaIS5_EESt14default_deleteISB_EEi, symObjAddr: 0x380, symBinAddr: 0x100007F78, symSize: 0xFC }
  - { offsetInCU: 0xA801, offset: 0x221E8, size: 0x8, addend: 0x0, symName: __ZN15LiteratureEntryC2ERKS_, symObjAddr: 0x47C, symBinAddr: 0x100008074, symSize: 0x9C }
  - { offsetInCU: 0xA84E, offset: 0x22235, size: 0x8, addend: 0x0, symName: __ZN15LiteratureEntryC2ERKNSt7__cxx1112basic_stringIcSt11char_traitsIcESaIcEEESt10unique_ptrISt6vectorIS5_SaIS5_EESt14default_deleteISB_EEi, symObjAddr: 0x284, symBinAddr: 0x100007E7C, symSize: 0xFC }
  - { offsetInCU: 0xA856, offset: 0x2223D, size: 0x8, addend: 0x0, symName: __ZN15LiteratureEntryC1ERKNSt7__cxx1112basic_stringIcSt11char_traitsIcESaIcEEESt10unique_ptrISt6vectorIS5_SaIS5_EESt14default_deleteISB_EEi, symObjAddr: 0x380, symBinAddr: 0x100007F78, symSize: 0xFC }
  - { offsetInCU: 0xA858, offset: 0x2223F, size: 0x8, addend: 0x0, symName: __ZN15LiteratureEntryD0Ev, symObjAddr: 0x20C, symBinAddr: 0x100007E54, symSize: 0x28 }
  - { offsetInCU: 0xA886, offset: 0x2226D, size: 0x8, addend: 0x0, symName: __ZN15LiteratureEntryD1Ev, symObjAddr: 0x1CC, symBinAddr: 0x100007E14, symSize: 0x40 }
  - { offsetInCU: 0xA88E, offset: 0x22275, size: 0x8, addend: 0x0, symName: __ZN15LiteratureEntryD0Ev, symObjAddr: 0x20C, symBinAddr: 0x100007E54, symSize: 0x28 }
  - { offsetInCU: 0xA89B, offset: 0x22282, size: 0x8, addend: 0x0, symName: __ZNSt11char_traitsIcE6lengthEPKc, symObjAddr: 0x154, symBinAddr: 0x100007DD4, symSize: 0x40 }
  - { offsetInCU: 0xA92B, offset: 0x22312, size: 0x8, addend: 0x0, symName: __ZNSt11char_traitsIcE7compareEPKcS2_m, symObjAddr: 0x68, symBinAddr: 0x100007CE8, symSize: 0xEC }
  - { offsetInCU: 0xA933, offset: 0x2231A, size: 0x8, addend: 0x0, symName: __ZNSt11char_traitsIcE6lengthEPKc, symObjAddr: 0x154, symBinAddr: 0x100007DD4, symSize: 0x40 }
  - { offsetInCU: 0xA9AB, offset: 0x22392, size: 0x8, addend: 0x0, symName: __ZNSt11char_traitsIcE2ltERKcS2_, symObjAddr: 0x30, symBinAddr: 0x100007CB0, symSize: 0x38 }
  - { offsetInCU: 0xA9B3, offset: 0x2239A, size: 0x8, addend: 0x0, symName: __ZNSt11char_traitsIcE7compareEPKcS2_m, symObjAddr: 0x68, symBinAddr: 0x100007CE8, symSize: 0xEC }
  - { offsetInCU: 0x5111, offset: 0x274EC, size: 0x8, addend: 0x0, symName: __ZStL8__ioinit, symObjAddr: 0x2E320, symBinAddr: 0x10001843A, symSize: 0x0 }
  - { offsetInCU: 0x51BF, offset: 0x2759A, size: 0x8, addend: 0x0, symName: __ZN9__gnu_cxxL21__default_lock_policyE, symObjAddr: 0x13F0, symBinAddr: 0x10000D768, symSize: 0x0 }
  - { offsetInCU: 0x5227, offset: 0x27602, size: 0x8, addend: 0x0, symName: __ZN6__pstl9execution2v1L3seqE, symObjAddr: 0x13F4, symBinAddr: 0x10000D76C, symSize: 0x0 }
  - { offsetInCU: 0x5241, offset: 0x2761C, size: 0x8, addend: 0x0, symName: __ZN6__pstl9execution2v1L3parE, symObjAddr: 0x13F5, symBinAddr: 0x10000D76D, symSize: 0x0 }
  - { offsetInCU: 0x5261, offset: 0x2763C, size: 0x8, addend: 0x0, symName: __ZN6__pstl9execution2v1L9par_unseqE, symObjAddr: 0x13F6, symBinAddr: 0x10000D76E, symSize: 0x0 }
  - { offsetInCU: 0x5277, offset: 0x27652, size: 0x8, addend: 0x0, symName: __ZN6__pstl9execution2v1L5unseqE, symObjAddr: 0x13F7, symBinAddr: 0x10000D76F, symSize: 0x0 }
  - { offsetInCU: 0x75DA, offset: 0x299B5, size: 0x8, addend: 0x0, symName: __GLOBAL__sub_I_Book.cpp, symObjAddr: 0x13D0, symBinAddr: 0x10000A814, symSize: 0x1C }
  - { offsetInCU: 0x7606, offset: 0x299E1, size: 0x8, addend: 0x0, symName: __Z41__static_initialization_and_destruction_0ii, symObjAddr: 0x1370, symBinAddr: 0x10000A7B4, symSize: 0x60 }
  - { offsetInCU: 0x760E, offset: 0x299E9, size: 0x8, addend: 0x0, symName: __GLOBAL__sub_I_Book.cpp, symObjAddr: 0x13D0, symBinAddr: 0x10000A814, symSize: 0x1C }
  - { offsetInCU: 0x761F, offset: 0x299FA, size: 0x8, addend: 0x0, symName: __ZN9__gnu_cxx17__normal_iteratorIPNSt7__cxx1112basic_stringIcSt11char_traitsIcESaIcEEESt6vectorIS6_SaIS6_EEEpLEl, symObjAddr: 0x10FC, symBinAddr: 0x10000A780, symSize: 0x34 }
  - { offsetInCU: 0x778A, offset: 0x29B65, size: 0x8, addend: 0x0, symName: __ZSt9__advanceIN9__gnu_cxx17__normal_iteratorIPNSt7__cxx1112basic_stringIcSt11char_traitsIcESaIcEEESt6vectorIS7_SaIS7_EEEElEvRT_T0_St26random_access_iterator_tag, symObjAddr: 0xFCC, symBinAddr: 0x10000A754, symSize: 0x2C }
  - { offsetInCU: 0x77D6, offset: 0x29BB1, size: 0x8, addend: 0x0, symName: __ZSt7advanceIN9__gnu_cxx17__normal_iteratorIPNSt7__cxx1112basic_stringIcSt11char_traitsIcESaIcEEESt6vectorIS7_SaIS7_EEEElEvRT_T0_, symObjAddr: 0xE74, symBinAddr: 0x10000A710, symSize: 0x44 }
  - { offsetInCU: 0x7868, offset: 0x29C43, size: 0x8, addend: 0x0, symName: __ZSt4nextIN9__gnu_cxx17__normal_iteratorIPNSt7__cxx1112basic_stringIcSt11char_traitsIcESaIcEEESt6vectorIS7_SaIS7_EEEEET_SD_NSt15iterator_traitsISD_E15difference_typeE, symObjAddr: 0xBE4, symBinAddr: 0x10000A6E8, symSize: 0x28 }
  - { offsetInCU: 0x7813, offset: 0x29BEE, size: 0x8, addend: 0x0, symName: __Z17check_nonnegativeIfET_S0_RKNSt7__cxx1112basic_stringIcSt11char_traitsIcESaIcEEE, symObjAddr: 0x9A4, symBinAddr: 0x10000A638, symSize: 0xB0 }
  - { offsetInCU: 0x77FF, offset: 0x29BDA, size: 0x8, addend: 0x0, symName: __ZNK4Book12print_bibtexEv, symObjAddr: 0x534, symBinAddr: 0x10000A3C8, symSize: 0x270 }
  - { offsetInCU: 0x7853, offset: 0x29C2E, size: 0x8, addend: 0x0, symName: __ZNK4Book10print_dataEv, symObjAddr: 0x3F4, symBinAddr: 0x10000A288, symSize: 0x140 }
  - { offsetInCU: 0x785B, offset: 0x29C36, size: 0x8, addend: 0x0, symName: __ZNK4Book12print_bibtexEv, symObjAddr: 0x534, symBinAddr: 0x10000A3C8, symSize: 0x270 }
  - { offsetInCU: 0x7981, offset: 0x29D5C, size: 0x8, addend: 0x0, symName: __ZN4BookC1ERKNSt7__cxx1112basic_stringIcSt11char_traitsIcESaIcEEESt10unique_ptrISt6vectorIS5_SaIS5_EESt14default_deleteISB_EEiS7_S7_f, symObjAddr: 0x29C, symBinAddr: 0x10000A130, symSize: 0x158 }
  - { offsetInCU: 0x7989, offset: 0x29D64, size: 0x8, addend: 0x0, symName: __ZNK4Book10print_dataEv, symObjAddr: 0x3F4, symBinAddr: 0x10000A288, symSize: 0x140 }
  - { offsetInCU: 0x79FD, offset: 0x29DD8, size: 0x8, addend: 0x0, symName: __ZN4BookC2ERKNSt7__cxx1112basic_stringIcSt11char_traitsIcESaIcEEESt10unique_ptrISt6vectorIS5_SaIS5_EESt14default_deleteISB_EEiS7_S7_f, symObjAddr: 0x144, symBinAddr: 0x100009FD8, symSize: 0x158 }
  - { offsetInCU: 0x7A05, offset: 0x29DE0, size: 0x8, addend: 0x0, symName: __ZN4BookC1ERKNSt7__cxx1112basic_stringIcSt11char_traitsIcESaIcEEESt10unique_ptrISt6vectorIS5_SaIS5_EESt14default_deleteISB_EEiS7_S7_f, symObjAddr: 0x29C, symBinAddr: 0x10000A130, symSize: 0x158 }
  - { offsetInCU: 0x7A27, offset: 0x29E02, size: 0x8, addend: 0x0, symName: __ZN4BookD0Ev, symObjAddr: 0xCC, symBinAddr: 0x100009FB0, symSize: 0x28 }
  - { offsetInCU: 0x7A55, offset: 0x29E30, size: 0x8, addend: 0x0, symName: __ZN4BookD1Ev, symObjAddr: 0x84, symBinAddr: 0x100009F68, symSize: 0x48 }
  - { offsetInCU: 0x7A5D, offset: 0x29E38, size: 0x8, addend: 0x0, symName: __ZN4BookD0Ev, symObjAddr: 0xCC, symBinAddr: 0x100009FB0, symSize: 0x28 }
  - { offsetInCU: 0x7AB6, offset: 0x29E91, size: 0x8, addend: 0x0, symName: __ZN15LiteratureEntryD2Ev, symObjAddr: 0x40, symBinAddr: 0x100009F24, symSize: 0x44 }
  - { offsetInCU: 0x7ABE, offset: 0x29E99, size: 0x8, addend: 0x0, symName: __ZN4BookD1Ev, symObjAddr: 0x84, symBinAddr: 0x100009F68, symSize: 0x48 }
  - { offsetInCU: 0x5111, offset: 0x2EFBA, size: 0x8, addend: 0x0, symName: __ZStL8__ioinit, symObjAddr: 0x2D2F8, symBinAddr: 0x10001843B, symSize: 0x0 }
  - { offsetInCU: 0x51BF, offset: 0x2F068, size: 0x8, addend: 0x0, symName: __ZN9__gnu_cxxL21__default_lock_policyE, symObjAddr: 0x1320, symBinAddr: 0x10000D778, symSize: 0x0 }
  - { offsetInCU: 0x5227, offset: 0x2F0D0, size: 0x8, addend: 0x0, symName: __ZN6__pstl9execution2v1L3seqE, symObjAddr: 0x1324, symBinAddr: 0x10000D77C, symSize: 0x0 }
  - { offsetInCU: 0x5241, offset: 0x2F0EA, size: 0x8, addend: 0x0, symName: __ZN6__pstl9execution2v1L3parE, symObjAddr: 0x1325, symBinAddr: 0x10000D77D, symSize: 0x0 }
  - { offsetInCU: 0x5261, offset: 0x2F10A, size: 0x8, addend: 0x0, symName: __ZN6__pstl9execution2v1L9par_unseqE, symObjAddr: 0x1326, symBinAddr: 0x10000D77E, symSize: 0x0 }
  - { offsetInCU: 0x5277, offset: 0x2F120, size: 0x8, addend: 0x0, symName: __ZN6__pstl9execution2v1L5unseqE, symObjAddr: 0x1327, symBinAddr: 0x10000D77F, symSize: 0x0 }
  - { offsetInCU: 0x7277, offset: 0x31120, size: 0x8, addend: 0x0, symName: __GLOBAL__sub_I_Journal.cpp, symObjAddr: 0x1300, symBinAddr: 0x10000AEBC, symSize: 0x1C }
  - { offsetInCU: 0x72A0, offset: 0x31149, size: 0x8, addend: 0x0, symName: __Z41__static_initialization_and_destruction_0ii, symObjAddr: 0x12A0, symBinAddr: 0x10000AE5C, symSize: 0x60 }
  - { offsetInCU: 0x72A8, offset: 0x31151, size: 0x8, addend: 0x0, symName: __GLOBAL__sub_I_Journal.cpp, symObjAddr: 0x1300, symBinAddr: 0x10000AEBC, symSize: 0x1C }
  - { offsetInCU: 0x72B9, offset: 0x31162, size: 0x8, addend: 0x0, symName: __ZNK7Journal10print_dataEv, symObjAddr: 0x490, symBinAddr: 0x10000ABEC, symSize: 0x270 }
  - { offsetInCU: 0x7440, offset: 0x312E9, size: 0x8, addend: 0x0, symName: __ZN7JournalC1ERKNSt7__cxx1112basic_stringIcSt11char_traitsIcESaIcEEESt10unique_ptrISt6vectorIS5_SaIS5_EESt14default_deleteISB_EEifS5_i, symObjAddr: 0x2E4, symBinAddr: 0x10000AA40, symSize: 0x1AC }
  - { offsetInCU: 0x7448, offset: 0x312F1, size: 0x8, addend: 0x0, symName: __ZNK7Journal10print_dataEv, symObjAddr: 0x490, symBinAddr: 0x10000ABEC, symSize: 0x270 }
  - { offsetInCU: 0x74BF, offset: 0x31368, size: 0x8, addend: 0x0, symName: __ZN7JournalC2ERKNSt7__cxx1112basic_stringIcSt11char_traitsIcESaIcEEESt10unique_ptrISt6vectorIS5_SaIS5_EESt14default_deleteISB_EEifS5_i, symObjAddr: 0x138, symBinAddr: 0x10000A894, symSize: 0x1AC }
  - { offsetInCU: 0x74C7, offset: 0x31370, size: 0x8, addend: 0x0, symName: __ZN7JournalC1ERKNSt7__cxx1112basic_stringIcSt11char_traitsIcESaIcEEESt10unique_ptrISt6vectorIS5_SaIS5_EESt14default_deleteISB_EEifS5_i, symObjAddr: 0x2E4, symBinAddr: 0x10000AA40, symSize: 0x1AC }
  - { offsetInCU: 0x74EE, offset: 0x31397, size: 0x8, addend: 0x0, symName: __ZN7JournalD0Ev, symObjAddr: 0xC0, symBinAddr: 0x10000A86C, symSize: 0x28 }
  - { offsetInCU: 0x751C, offset: 0x313C5, size: 0x8, addend: 0x0, symName: __ZN7JournalD1Ev, symObjAddr: 0x84, symBinAddr: 0x10000A830, symSize: 0x3C }
  - { offsetInCU: 0x7524, offset: 0x313CD, size: 0x8, addend: 0x0, symName: __ZN7JournalD0Ev, symObjAddr: 0xC0, symBinAddr: 0x10000A86C, symSize: 0x28 }
  - { offsetInCU: 0xDC, offset: 0x314C2, size: 0x8, addend: 0x0, symName: __ZN9__gnu_cxxL21__default_lock_policyE, symObjAddr: 0x30A0, symBinAddr: 0x10000D790, symSize: 0x0 }
  - { offsetInCU: 0x5075, offset: 0x3645B, size: 0x8, addend: 0x0, symName: __ZStL8__ioinit, symObjAddr: 0x3E3F0, symBinAddr: 0x10001843C, symSize: 0x0 }
  - { offsetInCU: 0x5123, offset: 0x36509, size: 0x8, addend: 0x0, symName: __ZN9__gnu_cxxL21__default_lock_policyE, symObjAddr: 0x30A0, symBinAddr: 0x10000D790, symSize: 0x0 }
  - { offsetInCU: 0x518B, offset: 0x36571, size: 0x8, addend: 0x0, symName: __ZN6__pstl9execution2v1L3seqE, symObjAddr: 0x30A4, symBinAddr: 0x10000D794, symSize: 0x0 }
  - { offsetInCU: 0x51A5, offset: 0x3658B, size: 0x8, addend: 0x0, symName: __ZN6__pstl9execution2v1L3parE, symObjAddr: 0x30A5, symBinAddr: 0x10000D795, symSize: 0x0 }
  - { offsetInCU: 0x51C5, offset: 0x365AB, size: 0x8, addend: 0x0, symName: __ZN6__pstl9execution2v1L9par_unseqE, symObjAddr: 0x30A6, symBinAddr: 0x10000D796, symSize: 0x0 }
  - { offsetInCU: 0x51DB, offset: 0x365C1, size: 0x8, addend: 0x0, symName: __ZN6__pstl9execution2v1L5unseqE, symObjAddr: 0x30A7, symBinAddr: 0x10000D797, symSize: 0x0 }
  - { offsetInCU: 0x78CA, offset: 0x38CB0, size: 0x8, addend: 0x0, symName: __GLOBAL__sub_I_Thesis.cpp, symObjAddr: 0x3084, symBinAddr: 0x10000BE7C, symSize: 0x1C }
  - { offsetInCU: 0x78D2, offset: 0x38CB8, size: 0x8, addend: 0x0, symName: __ZN9__gnu_cxxL21__default_lock_policyE, symObjAddr: 0x30A0, symBinAddr: 0x10000D790, symSize: 0x0 }
  - { offsetInCU: 0x78F4, offset: 0x38CDA, size: 0x8, addend: 0x0, symName: __Z41__static_initialization_and_destruction_0ii, symObjAddr: 0x3024, symBinAddr: 0x10000BE1C, symSize: 0x60 }
  - { offsetInCU: 0x78FC, offset: 0x38CE2, size: 0x8, addend: 0x0, symName: __GLOBAL__sub_I_Thesis.cpp, symObjAddr: 0x3084, symBinAddr: 0x10000BE7C, symSize: 0x1C }
  - { offsetInCU: 0x7916, offset: 0x38CFC, size: 0x8, addend: 0x0, symName: __ZSt9__find_ifIN9__gnu_cxx17__normal_iteratorIPNSt7__cxx1112basic_stringIcSt11char_traitsIcESaIcEEESt6vectorIS7_SaIS7_EEEENS0_5__ops10_Iter_predIZN6Thesis17remove_supervisorERKS7_EUlSH_E_EEET_SK_SK_T0_St26random_access_iterator_tag, symObjAddr: 0x2664, symBinAddr: 0x10000BC80, symSize: 0x19C }
  - { offsetInCU: 0x79AA, offset: 0x38D90, size: 0x8, addend: 0x0, symName: __ZN9__gnu_cxx5__ops10_Iter_predIZN6Thesis17remove_supervisorERKNSt7__cxx1112basic_stringIcSt11char_traitsIcESaIcEEEEUlSA_E_EclINS_17__normal_iteratorIPS8_St6vectorIS8_SaIS8_EEEEEEbT_, symObjAddr: 0x2284, symBinAddr: 0x10000BC44, symSize: 0x3C }
  - { offsetInCU: 0x7A03, offset: 0x38DE9, size: 0x8, addend: 0x0, symName: __ZSt9__find_ifIN9__gnu_cxx17__normal_iteratorIPNSt7__cxx1112basic_stringIcSt11char_traitsIcESaIcEEESt6vectorIS7_SaIS7_EEEENS0_5__ops10_Iter_predIZN6Thesis17remove_supervisorERKS7_EUlSH_E_EEET_SK_SK_T0_, symObjAddr: 0x2200, symBinAddr: 0x10000BC04, symSize: 0x40 }
  - { offsetInCU: 0x7AA2, offset: 0x38E88, size: 0x8, addend: 0x0, symName: __ZN9__gnu_cxx5__ops10_Iter_predIZN6Thesis17remove_supervisorERKNSt7__cxx1112basic_stringIcSt11char_traitsIcESaIcEEEEUlSA_E_EC1ESB_, symObjAddr: 0x21CC, symBinAddr: 0x10000BBD0, symSize: 0x34 }
  - { offsetInCU: 0x7AAA, offset: 0x38E90, size: 0x8, addend: 0x0, symName: __ZSt9__find_ifIN9__gnu_cxx17__normal_iteratorIPNSt7__cxx1112basic_stringIcSt11char_traitsIcESaIcEEESt6vectorIS7_SaIS7_EEEENS0_5__ops10_Iter_predIZN6Thesis17remove_supervisorERKS7_EUlSH_E_EEET_SK_SK_T0_, symObjAddr: 0x2200, symBinAddr: 0x10000BC04, symSize: 0x40 }
  - { offsetInCU: 0x7B25, offset: 0x38F0B, size: 0x8, addend: 0x0, symName: __ZSt4moveIRZN6Thesis17remove_supervisorERKNSt7__cxx1112basic_stringIcSt11char_traitsIcESaIcEEEEUlS8_E_EONSt16remove_referenceIT_E4typeEOSC_, symObjAddr: 0x21B8, symBinAddr: 0x10000BBBC, symSize: 0x14 }
  - { offsetInCU: 0x7B2D, offset: 0x38F13, size: 0x8, addend: 0x0, symName: __ZN9__gnu_cxx5__ops10_Iter_predIZN6Thesis17remove_supervisorERKNSt7__cxx1112basic_stringIcSt11char_traitsIcESaIcEEEEUlSA_E_EC1ESB_, symObjAddr: 0x21CC, symBinAddr: 0x10000BBD0, symSize: 0x34 }
  - { offsetInCU: 0x7C17, offset: 0x38FFD, size: 0x8, addend: 0x0, symName: __ZSt11__remove_ifIN9__gnu_cxx17__normal_iteratorIPNSt7__cxx1112basic_stringIcSt11char_traitsIcESaIcEEESt6vectorIS7_SaIS7_EEEENS0_5__ops10_Iter_predIZN6Thesis17remove_supervisorERKS7_EUlSH_E_EEET_SK_SK_T0_, symObjAddr: 0x1980, symBinAddr: 0x10000BAE4, symSize: 0xD8 }
  - { offsetInCU: 0x7C17, offset: 0x38FFD, size: 0x8, addend: 0x0, symName: __ZN9__gnu_cxx5__ops11__pred_iterIZN6Thesis17remove_supervisorERKNSt7__cxx1112basic_stringIcSt11char_traitsIcESaIcEEEEUlSA_E_EENS0_10_Iter_predIT_EESD_, symObjAddr: 0x1950, symBinAddr: 0x10000BAB4, symSize: 0x30 }
  - { offsetInCU: 0x7C1F, offset: 0x39005, size: 0x8, addend: 0x0, symName: __ZSt11__remove_ifIN9__gnu_cxx17__normal_iteratorIPNSt7__cxx1112basic_stringIcSt11char_traitsIcESaIcEEESt6vectorIS7_SaIS7_EEEENS0_5__ops10_Iter_predIZN6Thesis17remove_supervisorERKS7_EUlSH_E_EEET_SK_SK_T0_, symObjAddr: 0x1980, symBinAddr: 0x10000BAE4, symSize: 0xD8 }
  - { offsetInCU: 0x7CCF, offset: 0x390B5, size: 0x8, addend: 0x0, symName: __ZSt9remove_ifIN9__gnu_cxx17__normal_iteratorIPNSt7__cxx1112basic_stringIcSt11char_traitsIcESaIcEEESt6vectorIS7_SaIS7_EEEEZN6Thesis17remove_supervisorERKS7_EUlSF_E_ET_SH_SH_T0_, symObjAddr: 0x122C, symBinAddr: 0x10000BA80, symSize: 0x34 }
  - { offsetInCU: 0x7CD2, offset: 0x390B8, size: 0x8, addend: 0x0, symName: __ZSt4moveIR6ThesisEONSt16remove_referenceIT_E4typeEOS3_, symObjAddr: 0x1088, symBinAddr: 0x10000BA6C, symSize: 0x14 }
  - { offsetInCU: 0x7D88, offset: 0x3916E, size: 0x8, addend: 0x0, symName: __ZNSt10unique_ptrISt6vectorINSt7__cxx1112basic_stringIcSt11char_traitsIcESaIcEEESaIS6_EESt14default_deleteIS8_EEC1ISA_vEEDn, symObjAddr: 0xE30, symBinAddr: 0x10000BA40, symSize: 0x2C }
  - { offsetInCU: 0x7E0E, offset: 0x391F4, size: 0x8, addend: 0x0, symName: __ZNSt15__uniq_ptr_dataISt6vectorINSt7__cxx1112basic_stringIcSt11char_traitsIcESaIcEEESaIS6_EESt14default_deleteIS8_ELb1ELb1EECI1St15__uniq_ptr_implIS8_SA_EEv, symObjAddr: 0xE10, symBinAddr: 0x10000BA20, symSize: 0x20 }
  - { offsetInCU: 0x7E16, offset: 0x391FC, size: 0x8, addend: 0x0, symName: __ZNSt10unique_ptrISt6vectorINSt7__cxx1112basic_stringIcSt11char_traitsIcESaIcEEESaIS6_EESt14default_deleteIS8_EEC1ISA_vEEDn, symObjAddr: 0xE30, symBinAddr: 0x10000BA40, symSize: 0x2C }
  - { offsetInCU: 0x7E31, offset: 0x39217, size: 0x8, addend: 0x0, symName: __ZNSt15__uniq_ptr_implISt6vectorINSt7__cxx1112basic_stringIcSt11char_traitsIcESaIcEEESaIS6_EESt14default_deleteIS8_EEC2Ev, symObjAddr: 0xDF0, symBinAddr: 0x10000BA00, symSize: 0x20 }
  - { offsetInCU: 0x7E39, offset: 0x3921F, size: 0x8, addend: 0x0, symName: __ZNSt15__uniq_ptr_dataISt6vectorINSt7__cxx1112basic_stringIcSt11char_traitsIcESaIcEEESaIS6_EESt14default_deleteIS8_ELb1ELb1EECI1St15__uniq_ptr_implIS8_SA_EEv, symObjAddr: 0xE10, symBinAddr: 0x10000BA20, symSize: 0x20 }
  - { offsetInCU: 0x7DE5, offset: 0x391CB, size: 0x8, addend: 0x0, symName: __ZNK6Thesis12print_bibtexEv, symObjAddr: 0xB28, symBinAddr: 0x10000B790, symSize: 0x270 }
  - { offsetInCU: 0x7E39, offset: 0x3921F, size: 0x8, addend: 0x0, symName: __ZNK6Thesis10print_dataEv, symObjAddr: 0x9E8, symBinAddr: 0x10000B650, symSize: 0x140 }
  - { offsetInCU: 0x7E41, offset: 0x39227, size: 0x8, addend: 0x0, symName: __ZNK6Thesis12print_bibtexEv, symObjAddr: 0xB28, symBinAddr: 0x10000B790, symSize: 0x270 }
  - { offsetInCU: 0x7EC0, offset: 0x392A6, size: 0x8, addend: 0x0, symName: __ZN6Thesis17remove_supervisorERKNSt7__cxx1112basic_stringIcSt11char_traitsIcESaIcEEE, symObjAddr: 0x93C, symBinAddr: 0x10000B5A4, symSize: 0xAC }
  - { offsetInCU: 0x7EC8, offset: 0x392AE, size: 0x8, addend: 0x0, symName: __ZNK6Thesis10print_dataEv, symObjAddr: 0x9E8, symBinAddr: 0x10000B650, symSize: 0x140 }
  - { offsetInCU: 0x7F7E, offset: 0x39364, size: 0x8, addend: 0x0, symName: __ZZN6Thesis17remove_supervisorERKNSt7__cxx1112basic_stringIcSt11char_traitsIcESaIcEEEENKUlS7_E_clES7_, symObjAddr: 0x90C, symBinAddr: 0x10000B574, symSize: 0x30 }
  - { offsetInCU: 0x7F86, offset: 0x3936C, size: 0x8, addend: 0x0, symName: __ZN6Thesis17remove_supervisorERKNSt7__cxx1112basic_stringIcSt11char_traitsIcESaIcEEE, symObjAddr: 0x93C, symBinAddr: 0x10000B5A4, symSize: 0xAC }
  - { offsetInCU: 0x7FF0, offset: 0x393D6, size: 0x8, addend: 0x0, symName: __ZN6Thesis14add_supervisorERKNSt7__cxx1112basic_stringIcSt11char_traitsIcESaIcEEE, symObjAddr: 0x8DC, symBinAddr: 0x10000B544, symSize: 0x30 }
  - { offsetInCU: 0x7FF8, offset: 0x393DE, size: 0x8, addend: 0x0, symName: __ZZN6Thesis17remove_supervisorERKNSt7__cxx1112basic_stringIcSt11char_traitsIcESaIcEEEENKUlS7_E_clES7_, symObjAddr: 0x90C, symBinAddr: 0x10000B574, symSize: 0x30 }
  - { offsetInCU: 0x8032, offset: 0x39418, size: 0x8, addend: 0x0, symName: __ZN6ThesisaSEOS_, symObjAddr: 0x84C, symBinAddr: 0x10000B4B4, symSize: 0x90 }
  - { offsetInCU: 0x803A, offset: 0x39420, size: 0x8, addend: 0x0, symName: __ZN6Thesis14add_supervisorERKNSt7__cxx1112basic_stringIcSt11char_traitsIcESaIcEEE, symObjAddr: 0x8DC, symBinAddr: 0x10000B544, symSize: 0x30 }
  - { offsetInCU: 0x8074, offset: 0x3945A, size: 0x8, addend: 0x0, symName: __ZN6ThesisaSERKS_, symObjAddr: 0x7B8, symBinAddr: 0x10000B420, symSize: 0x94 }
  - { offsetInCU: 0x807C, offset: 0x39462, size: 0x8, addend: 0x0, symName: __ZN6ThesisaSEOS_, symObjAddr: 0x84C, symBinAddr: 0x10000B4B4, symSize: 0x90 }
  - { offsetInCU: 0x80F0, offset: 0x394D6, size: 0x8, addend: 0x0, symName: __ZN6ThesisC1EOS_, symObjAddr: 0x704, symBinAddr: 0x10000B36C, symSize: 0xB4 }
  - { offsetInCU: 0x80F8, offset: 0x394DE, size: 0x8, addend: 0x0, symName: __ZN6ThesisaSERKS_, symObjAddr: 0x7B8, symBinAddr: 0x10000B420, symSize: 0x94 }
  - { offsetInCU: 0x812A, offset: 0x39510, size: 0x8, addend: 0x0, symName: __ZN6ThesisC2EOS_, symObjAddr: 0x650, symBinAddr: 0x10000B2B8, symSize: 0xB4 }
  - { offsetInCU: 0x8132, offset: 0x39518, size: 0x8, addend: 0x0, symName: __ZN6ThesisC1EOS_, symObjAddr: 0x704, symBinAddr: 0x10000B36C, symSize: 0xB4 }
  - { offsetInCU: 0x818E, offset: 0x39574, size: 0x8, addend: 0x0, symName: __ZN6ThesisC1ERKS_, symObjAddr: 0x568, symBinAddr: 0x10000B1D0, symSize: 0xE8 }
  - { offsetInCU: 0x8196, offset: 0x3957C, size: 0x8, addend: 0x0, symName: __ZN6ThesisC2EOS_, symObjAddr: 0x650, symBinAddr: 0x10000B2B8, symSize: 0xB4 }
  - { offsetInCU: 0x81C8, offset: 0x395AE, size: 0x8, addend: 0x0, symName: __ZN6ThesisC2ERKS_, symObjAddr: 0x480, symBinAddr: 0x10000B0E8, symSize: 0xE8 }
  - { offsetInCU: 0x81D0, offset: 0x395B6, size: 0x8, addend: 0x0, symName: __ZN6ThesisC1ERKS_, symObjAddr: 0x568, symBinAddr: 0x10000B1D0, symSize: 0xE8 }
  - { offsetInCU: 0x82E0, offset: 0x396C6, size: 0x8, addend: 0x0, symName: __ZN6ThesisC1ERKNSt7__cxx1112basic_stringIcSt11char_traitsIcESaIcEEESt10unique_ptrISt6vectorIS5_SaIS5_EESt14default_deleteISB_EEiS7_SE_, symObjAddr: 0x360, symBinAddr: 0x10000B018, symSize: 0xD0 }
  - { offsetInCU: 0x834C, offset: 0x39732, size: 0x8, addend: 0x0, symName: __ZN6ThesisC2ERKNSt7__cxx1112basic_stringIcSt11char_traitsIcESaIcEEESt10unique_ptrISt6vectorIS5_SaIS5_EESt14default_deleteISB_EEiS7_SE_, symObjAddr: 0x290, symBinAddr: 0x10000AF48, symSize: 0xD0 }
  - { offsetInCU: 0x8354, offset: 0x3973A, size: 0x8, addend: 0x0, symName: __ZN6ThesisC1ERKNSt7__cxx1112basic_stringIcSt11char_traitsIcESaIcEEESt10unique_ptrISt6vectorIS5_SaIS5_EESt14default_deleteISB_EEiS7_SE_, symObjAddr: 0x360, symBinAddr: 0x10000B018, symSize: 0xD0 }
  - { offsetInCU: 0x8367, offset: 0x3974D, size: 0x8, addend: 0x0, symName: __ZN6ThesisD0Ev, symObjAddr: 0x218, symBinAddr: 0x10000AF20, symSize: 0x28 }
  - { offsetInCU: 0x8395, offset: 0x3977B, size: 0x8, addend: 0x0, symName: __ZN6ThesisD1Ev, symObjAddr: 0x1D0, symBinAddr: 0x10000AED8, symSize: 0x48 }
  - { offsetInCU: 0x839D, offset: 0x39783, size: 0x8, addend: 0x0, symName: __ZN6ThesisD0Ev, symObjAddr: 0x218, symBinAddr: 0x10000AF20, symSize: 0x28 }
...
