---
triple:          'arm64-apple-darwin'
binary-path:     './acad-lit-catalogue'
relocations:
  - { offsetInCU: 0xE0, offset: 0xE0, size: 0x8, addend: 0x0, symName: __ZnwmPv, symObjAddr: 0x0, symBinAddr: 0x100003F7C, symSize: 0x18 }
  - { offsetInCU: 0xE8, offset: 0xE8, size: 0x8, addend: 0x0, symName: __ZN9__gnu_cxxL21__default_lock_policyE, symObjAddr: 0x23B4, symBinAddr: 0x10001F748, symSize: 0x0 }
  - { offsetInCU: 0x6AC4, offset: 0x6AC4, size: 0x8, addend: 0x0, symName: __ZStL8__ioinit, symObjAddr: 0x40E70, symBinAddr: 0x100035008, symSize: 0x0 }
  - { offsetInCU: 0x6D0A, offset: 0x6D0A, size: 0x8, addend: 0x0, symName: __ZN9__gnu_cxxL21__default_lock_policyE, symObjAddr: 0x23B4, symBinAddr: 0x10001F748, symSize: 0x0 }
  - { offsetInCU: 0x6EA2, offset: 0x6EA2, size: 0x8, addend: 0x0, symName: __ZN6__pstl9execution2v1L3seqE, symObjAddr: 0x23B8, symBinAddr: 0x10001F74C, symSize: 0x0 }
  - { offsetInCU: 0x6EBC, offset: 0x6EBC, size: 0x8, addend: 0x0, symName: __ZN6__pstl9execution2v1L3parE, symObjAddr: 0x23B9, symBinAddr: 0x10001F74D, symSize: 0x0 }
  - { offsetInCU: 0x6EDC, offset: 0x6EDC, size: 0x8, addend: 0x0, symName: __ZN6__pstl9execution2v1L9par_unseqE, symObjAddr: 0x23BA, symBinAddr: 0x10001F74E, symSize: 0x0 }
  - { offsetInCU: 0x6EF2, offset: 0x6EF2, size: 0x8, addend: 0x0, symName: __ZN6__pstl9execution2v1L5unseqE, symObjAddr: 0x23BB, symBinAddr: 0x10001F74F, symSize: 0x0 }
  - { offsetInCU: 0xCBF3, offset: 0xCBF3, size: 0x8, addend: 0x0, symName: __ZL14valid_commands, symObjAddr: 0x40E78, symBinAddr: 0x100035010, symSize: 0x0 }
  - { offsetInCU: 0xCC0B, offset: 0xCC0B, size: 0x8, addend: 0x0, symName: __ZL12valid_fields, symObjAddr: 0x40EA8, symBinAddr: 0x100035040, symSize: 0x0 }
  - { offsetInCU: 0xCC24, offset: 0xCC24, size: 0x8, addend: 0x0, symName: __ZL11valid_types, symObjAddr: 0x40ED8, symBinAddr: 0x100035070, symSize: 0x0 }
  - { offsetInCU: 0xDE63, offset: 0xDE63, size: 0x8, addend: 0x0, symName: __GLOBAL__sub_I_acad_lit_catalogue.cpp, symObjAddr: 0x2398, symBinAddr: 0x100006314, symSize: 0x1C }
  - { offsetInCU: 0xDE6B, offset: 0xDE6B, size: 0x8, addend: 0x0, symName: __ZN9__gnu_cxxL21__default_lock_policyE, symObjAddr: 0x23B4, symBinAddr: 0x10001F748, symSize: 0x0 }
  - { offsetInCU: 0xDE81, offset: 0xDE81, size: 0x8, addend: 0x0, symName: __Z41__static_initialization_and_destruction_0ii, symObjAddr: 0x1CDC, symBinAddr: 0x100005C58, symSize: 0x6BC }
  - { offsetInCU: 0xDE89, offset: 0xDE89, size: 0x8, addend: 0x0, symName: __GLOBAL__sub_I_acad_lit_catalogue.cpp, symObjAddr: 0x2398, symBinAddr: 0x100006314, symSize: 0x1C }
  - { offsetInCU: 0xDF1A, offset: 0xDF1A, size: 0x8, addend: 0x0, symName: __ZNSt3setINSt7__cxx1112basic_stringIcSt11char_traitsIcESaIcEEESt4lessIS5_ESaIS5_EED1Ev, symObjAddr: 0x1CBC, symBinAddr: 0x100005C38, symSize: 0x20 }
  - { offsetInCU: 0xDF22, offset: 0xDF22, size: 0x8, addend: 0x0, symName: __Z41__static_initialization_and_destruction_0ii, symObjAddr: 0x1CDC, symBinAddr: 0x100005C58, symSize: 0x6BC }
  - { offsetInCU: 0xDEF1, offset: 0xDEF1, size: 0x8, addend: 0x0, symName: __ZN9__gnu_cxx13new_allocatorISt13_Rb_tree_nodeINSt7__cxx1112basic_stringIcSt11char_traitsIcESaIcEEEEE9constructIS7_JRKS7_EEEvPT_DpOT0_, symObjAddr: 0x1C48, symBinAddr: 0x100005BC4, symSize: 0x74 }
  - { offsetInCU: 0xDEF9, offset: 0xDEF9, size: 0x8, addend: 0x0, symName: __ZNSt3setINSt7__cxx1112basic_stringIcSt11char_traitsIcESaIcEEESt4lessIS5_ESaIS5_EED1Ev, symObjAddr: 0x1CBC, symBinAddr: 0x100005C38, symSize: 0x20 }
  - { offsetInCU: 0xDF60, offset: 0xDF60, size: 0x8, addend: 0x0, symName: __ZN9__gnu_cxx13new_allocatorISt13_Rb_tree_nodeINSt7__cxx1112basic_stringIcSt11char_traitsIcESaIcEEEEE8allocateEmPKv, symObjAddr: 0x1BD0, symBinAddr: 0x100005B4C, symSize: 0x78 }
  - { offsetInCU: 0xDF68, offset: 0xDF68, size: 0x8, addend: 0x0, symName: __ZN9__gnu_cxx13new_allocatorISt13_Rb_tree_nodeINSt7__cxx1112basic_stringIcSt11char_traitsIcESaIcEEEEE9constructIS7_JRKS7_EEEvPT_DpOT0_, symObjAddr: 0x1C48, symBinAddr: 0x100005BC4, symSize: 0x74 }
  - { offsetInCU: 0xDFC0, offset: 0xDFC0, size: 0x8, addend: 0x0, symName: __ZNK9__gnu_cxx13new_allocatorISt13_Rb_tree_nodeINSt7__cxx1112basic_stringIcSt11char_traitsIcESaIcEEEEE11_M_max_sizeEv, symObjAddr: 0x1BBC, symBinAddr: 0x100005B38, symSize: 0x14 }
  - { offsetInCU: 0xDFC8, offset: 0xDFC8, size: 0x8, addend: 0x0, symName: __ZN9__gnu_cxx13new_allocatorISt13_Rb_tree_nodeINSt7__cxx1112basic_stringIcSt11char_traitsIcESaIcEEEEE8allocateEmPKv, symObjAddr: 0x1BD0, symBinAddr: 0x100005B4C, symSize: 0x78 }
  - { offsetInCU: 0xDFF3, offset: 0xDFF3, size: 0x8, addend: 0x0, symName: __ZNK9__gnu_cxx16__aligned_membufINSt7__cxx1112basic_stringIcSt11char_traitsIcESaIcEEEE7_M_addrEv, symObjAddr: 0x1BA8, symBinAddr: 0x100005B24, symSize: 0x14 }
  - { offsetInCU: 0xDFFB, offset: 0xDFFB, size: 0x8, addend: 0x0, symName: __ZNK9__gnu_cxx13new_allocatorISt13_Rb_tree_nodeINSt7__cxx1112basic_stringIcSt11char_traitsIcESaIcEEEEE11_M_max_sizeEv, symObjAddr: 0x1BBC, symBinAddr: 0x100005B38, symSize: 0x14 }
  - { offsetInCU: 0xE026, offset: 0xE026, size: 0x8, addend: 0x0, symName: __ZNSt16allocator_traitsISaISt13_Rb_tree_nodeINSt7__cxx1112basic_stringIcSt11char_traitsIcESaIcEEEEEE9constructIS6_JRKS6_EEEvRS8_PT_DpOT0_, symObjAddr: 0x1B70, symBinAddr: 0x100005AEC, symSize: 0x38 }
  - { offsetInCU: 0xE02E, offset: 0xE02E, size: 0x8, addend: 0x0, symName: __ZNK9__gnu_cxx16__aligned_membufINSt7__cxx1112basic_stringIcSt11char_traitsIcESaIcEEEE7_M_addrEv, symObjAddr: 0x1BA8, symBinAddr: 0x100005B24, symSize: 0x14 }
  - { offsetInCU: 0xE09A, offset: 0xE09A, size: 0x8, addend: 0x0, symName: __ZNSt16allocator_traitsISaISt13_Rb_tree_nodeINSt7__cxx1112basic_stringIcSt11char_traitsIcESaIcEEEEEE8allocateERS8_m, symObjAddr: 0x1B48, symBinAddr: 0x100005AC4, symSize: 0x28 }
  - { offsetInCU: 0xE0A2, offset: 0xE0A2, size: 0x8, addend: 0x0, symName: __ZNSt16allocator_traitsISaISt13_Rb_tree_nodeINSt7__cxx1112basic_stringIcSt11char_traitsIcESaIcEEEEEE9constructIS6_JRKS6_EEEvRS8_PT_DpOT0_, symObjAddr: 0x1B70, symBinAddr: 0x100005AEC, symSize: 0x38 }
  - { offsetInCU: 0xE0E0, offset: 0xE0E0, size: 0x8, addend: 0x0, symName: __ZNK9__gnu_cxx16__aligned_membufINSt7__cxx1112basic_stringIcSt11char_traitsIcESaIcEEEE6_M_ptrEv, symObjAddr: 0x1B2C, symBinAddr: 0x100005AA8, symSize: 0x1C }
  - { offsetInCU: 0xE0E8, offset: 0xE0E8, size: 0x8, addend: 0x0, symName: __ZNSt16allocator_traitsISaISt13_Rb_tree_nodeINSt7__cxx1112basic_stringIcSt11char_traitsIcESaIcEEEEEE8allocateERS8_m, symObjAddr: 0x1B48, symBinAddr: 0x100005AC4, symSize: 0x28 }
  - { offsetInCU: 0xE113, offset: 0xE113, size: 0x8, addend: 0x0, symName: __ZN9__gnu_cxx16__aligned_membufINSt7__cxx1112basic_stringIcSt11char_traitsIcESaIcEEEE7_M_addrEv, symObjAddr: 0x1B18, symBinAddr: 0x100005A94, symSize: 0x14 }
  - { offsetInCU: 0xE11B, offset: 0xE11B, size: 0x8, addend: 0x0, symName: __ZNK9__gnu_cxx16__aligned_membufINSt7__cxx1112basic_stringIcSt11char_traitsIcESaIcEEEE6_M_ptrEv, symObjAddr: 0x1B2C, symBinAddr: 0x100005AA8, symSize: 0x1C }
  - { offsetInCU: 0xE146, offset: 0xE146, size: 0x8, addend: 0x0, symName: __ZNSt8_Rb_treeINSt7__cxx1112basic_stringIcSt11char_traitsIcESaIcEEES5_St9_IdentityIS5_ESt4lessIS5_ESaIS5_EE17_M_construct_nodeIJRKS5_EEEvPSt13_Rb_tree_nodeIS5_EDpOT_, symObjAddr: 0x1A8C, symBinAddr: 0x100005A08, symSize: 0x8C }
  - { offsetInCU: 0xE14E, offset: 0xE14E, size: 0x8, addend: 0x0, symName: __ZN9__gnu_cxx16__aligned_membufINSt7__cxx1112basic_stringIcSt11char_traitsIcESaIcEEEE7_M_addrEv, symObjAddr: 0x1B18, symBinAddr: 0x100005A94, symSize: 0x14 }
  - { offsetInCU: 0xE1AA, offset: 0xE1AA, size: 0x8, addend: 0x0, symName: __ZNSt8_Rb_treeINSt7__cxx1112basic_stringIcSt11char_traitsIcESaIcEEES5_St9_IdentityIS5_ESt4lessIS5_ESaIS5_EE11_M_get_nodeEv, symObjAddr: 0x1A68, symBinAddr: 0x1000059E4, symSize: 0x24 }
  - { offsetInCU: 0xE1B2, offset: 0xE1B2, size: 0x8, addend: 0x0, symName: __ZNSt8_Rb_treeINSt7__cxx1112basic_stringIcSt11char_traitsIcESaIcEEES5_St9_IdentityIS5_ESt4lessIS5_ESaIS5_EE17_M_construct_nodeIJRKS5_EEEvPSt13_Rb_tree_nodeIS5_EDpOT_, symObjAddr: 0x1A8C, symBinAddr: 0x100005A08, symSize: 0x8C }
  - { offsetInCU: 0xE29A, offset: 0xE29A, size: 0x8, addend: 0x0, symName: __ZSt7forwardIRPSt13_Rb_tree_nodeINSt7__cxx1112basic_stringIcSt11char_traitsIcESaIcEEEEEOT_RNSt16remove_referenceISA_E4typeE, symObjAddr: 0x1A54, symBinAddr: 0x1000059D0, symSize: 0x14 }
  - { offsetInCU: 0xE2A2, offset: 0xE2A2, size: 0x8, addend: 0x0, symName: __ZNSt8_Rb_treeINSt7__cxx1112basic_stringIcSt11char_traitsIcESaIcEEES5_St9_IdentityIS5_ESt4lessIS5_ESaIS5_EE11_M_get_nodeEv, symObjAddr: 0x1A68, symBinAddr: 0x1000059E4, symSize: 0x24 }
  - { offsetInCU: 0xE22D, offset: 0xE22D, size: 0x8, addend: 0x0, symName: __ZNKSt13_Rb_tree_nodeINSt7__cxx1112basic_stringIcSt11char_traitsIcESaIcEEEE9_M_valptrEv, symObjAddr: 0x1A34, symBinAddr: 0x1000059B0, symSize: 0x20 }
  - { offsetInCU: 0xE235, offset: 0xE235, size: 0x8, addend: 0x0, symName: __ZSt7forwardIRPSt13_Rb_tree_nodeINSt7__cxx1112basic_stringIcSt11char_traitsIcESaIcEEEEEOT_RNSt16remove_referenceISA_E4typeE, symObjAddr: 0x1A54, symBinAddr: 0x1000059D0, symSize: 0x14 }
  - { offsetInCU: 0xE25C, offset: 0xE25C, size: 0x8, addend: 0x0, symName: __ZN9__gnu_cxx13new_allocatorISt13_Rb_tree_nodeINSt7__cxx1112basic_stringIcSt11char_traitsIcESaIcEEEEE10deallocateEPS8_m, symObjAddr: 0x1A04, symBinAddr: 0x100005980, symSize: 0x30 }
  - { offsetInCU: 0xE264, offset: 0xE264, size: 0x8, addend: 0x0, symName: __ZNKSt13_Rb_tree_nodeINSt7__cxx1112basic_stringIcSt11char_traitsIcESaIcEEEE9_M_valptrEv, symObjAddr: 0x1A34, symBinAddr: 0x1000059B0, symSize: 0x20 }
  - { offsetInCU: 0xE2B1, offset: 0xE2B1, size: 0x8, addend: 0x0, symName: __ZN9__gnu_cxx13new_allocatorISt13_Rb_tree_nodeINSt7__cxx1112basic_stringIcSt11char_traitsIcESaIcEEEEE7destroyIS7_EEvPT_, symObjAddr: 0x19E0, symBinAddr: 0x10000595C, symSize: 0x24 }
  - { offsetInCU: 0xE2B9, offset: 0xE2B9, size: 0x8, addend: 0x0, symName: __ZN9__gnu_cxx13new_allocatorISt13_Rb_tree_nodeINSt7__cxx1112basic_stringIcSt11char_traitsIcESaIcEEEEE10deallocateEPS8_m, symObjAddr: 0x1A04, symBinAddr: 0x100005980, symSize: 0x30 }
  - { offsetInCU: 0xE300, offset: 0xE300, size: 0x8, addend: 0x0, symName: __ZN9__gnu_cxx16__aligned_membufINSt7__cxx1112basic_stringIcSt11char_traitsIcESaIcEEEE6_M_ptrEv, symObjAddr: 0x19C4, symBinAddr: 0x100005940, symSize: 0x1C }
  - { offsetInCU: 0xE308, offset: 0xE308, size: 0x8, addend: 0x0, symName: __ZN9__gnu_cxx13new_allocatorISt13_Rb_tree_nodeINSt7__cxx1112basic_stringIcSt11char_traitsIcESaIcEEEEE7destroyIS7_EEvPT_, symObjAddr: 0x19E0, symBinAddr: 0x10000595C, symSize: 0x24 }
  - { offsetInCU: 0xE32F, offset: 0xE32F, size: 0x8, addend: 0x0, symName: __ZNSt10_Head_baseILm1ESt14default_deleteI15LiteratureEntryELb1EE7_M_headERS3_, symObjAddr: 0x19B0, symBinAddr: 0x10000592C, symSize: 0x14 }
  - { offsetInCU: 0xE337, offset: 0xE337, size: 0x8, addend: 0x0, symName: __ZN9__gnu_cxx16__aligned_membufINSt7__cxx1112basic_stringIcSt11char_traitsIcESaIcEEEE6_M_ptrEv, symObjAddr: 0x19C4, symBinAddr: 0x100005940, symSize: 0x1C }
  - { offsetInCU: 0xE360, offset: 0xE360, size: 0x8, addend: 0x0, symName: __ZNSt8_Rb_treeINSt7__cxx1112basic_stringIcSt11char_traitsIcESaIcEEES5_St9_IdentityIS5_ESt4lessIS5_ESaIS5_EE14_M_create_nodeIJRKS5_EEEPSt13_Rb_tree_nodeIS5_EDpOT_, symObjAddr: 0x1970, symBinAddr: 0x1000058EC, symSize: 0x40 }
  - { offsetInCU: 0xE368, offset: 0xE368, size: 0x8, addend: 0x0, symName: __ZNSt10_Head_baseILm1ESt14default_deleteI15LiteratureEntryELb1EE7_M_headERS3_, symObjAddr: 0x19B0, symBinAddr: 0x10000592C, symSize: 0x14 }
  - { offsetInCU: 0xE49D, offset: 0xE49D, size: 0x8, addend: 0x0, symName: __ZNSt4pairIPSt18_Rb_tree_node_baseS1_EC1IRPSt13_Rb_tree_nodeINSt7__cxx1112basic_stringIcSt11char_traitsIcESaIcEEEERS1_Lb1EEEOT_OT0_, symObjAddr: 0x1928, symBinAddr: 0x1000058A4, symSize: 0x48 }
  - { offsetInCU: 0xE4A5, offset: 0xE4A5, size: 0x8, addend: 0x0, symName: __ZNSt8_Rb_treeINSt7__cxx1112basic_stringIcSt11char_traitsIcESaIcEEES5_St9_IdentityIS5_ESt4lessIS5_ESaIS5_EE14_M_create_nodeIJRKS5_EEEPSt13_Rb_tree_nodeIS5_EDpOT_, symObjAddr: 0x1970, symBinAddr: 0x1000058EC, symSize: 0x40 }
  - { offsetInCU: 0xE4E0, offset: 0xE4E0, size: 0x8, addend: 0x0, symName: __ZSteqRKSt17_Rb_tree_iteratorINSt7__cxx1112basic_stringIcSt11char_traitsIcESaIcEEEES8_, symObjAddr: 0x18F8, symBinAddr: 0x100005874, symSize: 0x30 }
  - { offsetInCU: 0xE4E8, offset: 0xE4E8, size: 0x8, addend: 0x0, symName: __ZNSt4pairIPSt18_Rb_tree_node_baseS1_EC1IRPSt13_Rb_tree_nodeINSt7__cxx1112basic_stringIcSt11char_traitsIcESaIcEEEERS1_Lb1EEEOT_OT0_, symObjAddr: 0x1928, symBinAddr: 0x1000058A4, symSize: 0x48 }
  - { offsetInCU: 0xE4D6, offset: 0xE4D6, size: 0x8, addend: 0x0, symName: __ZNSt8_Rb_treeINSt7__cxx1112basic_stringIcSt11char_traitsIcESaIcEEES5_St9_IdentityIS5_ESt4lessIS5_ESaIS5_EE5beginEv, symObjAddr: 0x18D0, symBinAddr: 0x10000584C, symSize: 0x28 }
  - { offsetInCU: 0xE4DE, offset: 0xE4DE, size: 0x8, addend: 0x0, symName: __ZSteqRKSt17_Rb_tree_iteratorINSt7__cxx1112basic_stringIcSt11char_traitsIcESaIcEEEES8_, symObjAddr: 0x18F8, symBinAddr: 0x100005874, symSize: 0x30 }
  - { offsetInCU: 0xE577, offset: 0xE577, size: 0x8, addend: 0x0, symName: __ZSt7forwardIRPSt18_Rb_tree_node_baseEOT_RNSt16remove_referenceIS3_E4typeE, symObjAddr: 0x18BC, symBinAddr: 0x100005838, symSize: 0x14 }
  - { offsetInCU: 0xE57F, offset: 0xE57F, size: 0x8, addend: 0x0, symName: __ZNSt8_Rb_treeINSt7__cxx1112basic_stringIcSt11char_traitsIcESaIcEEES5_St9_IdentityIS5_ESt4lessIS5_ESaIS5_EE5beginEv, symObjAddr: 0x18D0, symBinAddr: 0x10000584C, symSize: 0x28 }
  - { offsetInCU: 0xE5E9, offset: 0xE5E9, size: 0x8, addend: 0x0, symName: __ZStltIcSt11char_traitsIcESaIcEEbRKNSt7__cxx1112basic_stringIT_T0_T1_EESA_, symObjAddr: 0x1890, symBinAddr: 0x10000580C, symSize: 0x2C }
  - { offsetInCU: 0xE5F1, offset: 0xE5F1, size: 0x8, addend: 0x0, symName: __ZSt7forwardIRPSt18_Rb_tree_node_baseEOT_RNSt16remove_referenceIS3_E4typeE, symObjAddr: 0x18BC, symBinAddr: 0x100005838, symSize: 0x14 }
  - { offsetInCU: 0xE5D3, offset: 0xE5D3, size: 0x8, addend: 0x0, symName: __ZNSt8_Rb_treeINSt7__cxx1112basic_stringIcSt11char_traitsIcESaIcEEES5_St9_IdentityIS5_ESt4lessIS5_ESaIS5_EE6_S_keyEPKSt13_Rb_tree_nodeIS5_E, symObjAddr: 0x1868, symBinAddr: 0x1000057E4, symSize: 0x28 }
  - { offsetInCU: 0xE5DB, offset: 0xE5DB, size: 0x8, addend: 0x0, symName: __ZStltIcSt11char_traitsIcESaIcEEbRKNSt7__cxx1112basic_stringIT_T0_T1_EESA_, symObjAddr: 0x1890, symBinAddr: 0x10000580C, symSize: 0x2C }
  - { offsetInCU: 0xE605, offset: 0xE605, size: 0x8, addend: 0x0, symName: __ZNSt16allocator_traitsISaISt13_Rb_tree_nodeINSt7__cxx1112basic_stringIcSt11char_traitsIcESaIcEEEEEE10deallocateERS8_PS7_m, symObjAddr: 0x1838, symBinAddr: 0x1000057B4, symSize: 0x30 }
  - { offsetInCU: 0xE60D, offset: 0xE60D, size: 0x8, addend: 0x0, symName: __ZNSt8_Rb_treeINSt7__cxx1112basic_stringIcSt11char_traitsIcESaIcEEES5_St9_IdentityIS5_ESt4lessIS5_ESaIS5_EE6_S_keyEPKSt13_Rb_tree_nodeIS5_E, symObjAddr: 0x1868, symBinAddr: 0x1000057E4, symSize: 0x28 }
  - { offsetInCU: 0xE65F, offset: 0xE65F, size: 0x8, addend: 0x0, symName: __ZNSt16allocator_traitsISaISt13_Rb_tree_nodeINSt7__cxx1112basic_stringIcSt11char_traitsIcESaIcEEEEEE7destroyIS6_EEvRS8_PT_, symObjAddr: 0x1810, symBinAddr: 0x10000578C, symSize: 0x28 }
  - { offsetInCU: 0xE667, offset: 0xE667, size: 0x8, addend: 0x0, symName: __ZNSt16allocator_traitsISaISt13_Rb_tree_nodeINSt7__cxx1112basic_stringIcSt11char_traitsIcESaIcEEEEEE10deallocateERS8_PS7_m, symObjAddr: 0x1838, symBinAddr: 0x1000057B4, symSize: 0x30 }
  - { offsetInCU: 0xE6B2, offset: 0xE6B2, size: 0x8, addend: 0x0, symName: __ZNSt13_Rb_tree_nodeINSt7__cxx1112basic_stringIcSt11char_traitsIcESaIcEEEE9_M_valptrEv, symObjAddr: 0x17F0, symBinAddr: 0x10000576C, symSize: 0x20 }
  - { offsetInCU: 0xE6BA, offset: 0xE6BA, size: 0x8, addend: 0x0, symName: __ZNSt16allocator_traitsISaISt13_Rb_tree_nodeINSt7__cxx1112basic_stringIcSt11char_traitsIcESaIcEEEEEE7destroyIS6_EEvRS8_PT_, symObjAddr: 0x1810, symBinAddr: 0x10000578C, symSize: 0x28 }
  - { offsetInCU: 0xE6E1, offset: 0xE6E1, size: 0x8, addend: 0x0, symName: __ZNSt8_Rb_treeINSt7__cxx1112basic_stringIcSt11char_traitsIcESaIcEEES5_St9_IdentityIS5_ESt4lessIS5_ESaIS5_EE21_M_get_Node_allocatorEv, symObjAddr: 0x17DC, symBinAddr: 0x100005758, symSize: 0x14 }
  - { offsetInCU: 0xE6E9, offset: 0xE6E9, size: 0x8, addend: 0x0, symName: __ZNSt13_Rb_tree_nodeINSt7__cxx1112basic_stringIcSt11char_traitsIcESaIcEEEE9_M_valptrEv, symObjAddr: 0x17F0, symBinAddr: 0x10000576C, symSize: 0x20 }
  - { offsetInCU: 0xE710, offset: 0xE710, size: 0x8, addend: 0x0, symName: __ZNSt11_Tuple_implILm1EJSt14default_deleteI15LiteratureEntryEEE7_M_headERS3_, symObjAddr: 0x17C0, symBinAddr: 0x10000573C, symSize: 0x1C }
  - { offsetInCU: 0xE718, offset: 0xE718, size: 0x8, addend: 0x0, symName: __ZNSt8_Rb_treeINSt7__cxx1112basic_stringIcSt11char_traitsIcESaIcEEES5_St9_IdentityIS5_ESt4lessIS5_ESaIS5_EE21_M_get_Node_allocatorEv, symObjAddr: 0x17DC, symBinAddr: 0x100005758, symSize: 0x14 }
  - { offsetInCU: 0xE742, offset: 0xE742, size: 0x8, addend: 0x0, symName: __ZNSt10_Head_baseILm0EP15LiteratureEntryLb0EE7_M_headERS2_, symObjAddr: 0x17AC, symBinAddr: 0x100005728, symSize: 0x14 }
  - { offsetInCU: 0xE74A, offset: 0xE74A, size: 0x8, addend: 0x0, symName: __ZNSt11_Tuple_implILm1EJSt14default_deleteI15LiteratureEntryEEE7_M_headERS3_, symObjAddr: 0x17C0, symBinAddr: 0x10000573C, symSize: 0x1C }
  - { offsetInCU: 0xE7EC, offset: 0xE7EC, size: 0x8, addend: 0x0, symName: __ZSt8_DestroyISt10unique_ptrI15LiteratureEntrySt14default_deleteIS1_EEEvPT_, symObjAddr: 0x178C, symBinAddr: 0x100005708, symSize: 0x20 }
  - { offsetInCU: 0xE7F4, offset: 0xE7F4, size: 0x8, addend: 0x0, symName: __ZNSt10_Head_baseILm0EP15LiteratureEntryLb0EE7_M_headERS2_, symObjAddr: 0x17AC, symBinAddr: 0x100005728, symSize: 0x14 }
  - { offsetInCU: 0xE83B, offset: 0xE83B, size: 0x8, addend: 0x0, symName: __ZSt11__addressofISt10unique_ptrI15LiteratureEntrySt14default_deleteIS1_EEEPT_RS5_, symObjAddr: 0x1778, symBinAddr: 0x1000056F4, symSize: 0x14 }
  - { offsetInCU: 0xE843, offset: 0xE843, size: 0x8, addend: 0x0, symName: __ZSt8_DestroyISt10unique_ptrI15LiteratureEntrySt14default_deleteIS1_EEEvPT_, symObjAddr: 0x178C, symBinAddr: 0x100005708, symSize: 0x20 }
  - { offsetInCU: 0xE7FF, offset: 0xE7FF, size: 0x8, addend: 0x0, symName: __ZN9__gnu_cxx13new_allocatorISt10unique_ptrI15LiteratureEntrySt14default_deleteIS2_EEE10deallocateEPS5_m, symObjAddr: 0x1748, symBinAddr: 0x1000056C4, symSize: 0x30 }
  - { offsetInCU: 0xE807, offset: 0xE807, size: 0x8, addend: 0x0, symName: __ZSt11__addressofISt10unique_ptrI15LiteratureEntrySt14default_deleteIS1_EEEPT_RS5_, symObjAddr: 0x1778, symBinAddr: 0x1000056F4, symSize: 0x14 }
  - { offsetInCU: 0xE867, offset: 0xE867, size: 0x8, addend: 0x0, symName: __ZNKSt8_Rb_treeINSt7__cxx1112basic_stringIcSt11char_traitsIcESaIcEEES5_St9_IdentityIS5_ESt4lessIS5_ESaIS5_EE11_Alloc_nodeclIRKS5_EEPSt13_Rb_tree_nodeIS5_EOT_, symObjAddr: 0x170C, symBinAddr: 0x100005688, symSize: 0x3C }
  - { offsetInCU: 0xE86F, offset: 0xE86F, size: 0x8, addend: 0x0, symName: __ZN9__gnu_cxx13new_allocatorISt10unique_ptrI15LiteratureEntrySt14default_deleteIS2_EEE10deallocateEPS5_m, symObjAddr: 0x1748, symBinAddr: 0x1000056C4, symSize: 0x30 }
  - { offsetInCU: 0xE93B, offset: 0xE93B, size: 0x8, addend: 0x0, symName: __ZNSt4pairIPSt18_Rb_tree_node_baseS1_EC1IRS1_Lb1EEEOT_RKS1_, symObjAddr: 0x16C8, symBinAddr: 0x100005644, symSize: 0x44 }
  - { offsetInCU: 0xE943, offset: 0xE943, size: 0x8, addend: 0x0, symName: __ZNKSt8_Rb_treeINSt7__cxx1112basic_stringIcSt11char_traitsIcESaIcEEES5_St9_IdentityIS5_ESt4lessIS5_ESaIS5_EE11_Alloc_nodeclIRKS5_EEPSt13_Rb_tree_nodeIS5_EOT_, symObjAddr: 0x170C, symBinAddr: 0x100005688, symSize: 0x3C }
  - { offsetInCU: 0xE952, offset: 0xE952, size: 0x8, addend: 0x0, symName: __ZNSt17_Rb_tree_iteratorINSt7__cxx1112basic_stringIcSt11char_traitsIcESaIcEEEEppEv, symObjAddr: 0x1698, symBinAddr: 0x100005614, symSize: 0x30 }
  - { offsetInCU: 0xE95A, offset: 0xE95A, size: 0x8, addend: 0x0, symName: __ZNSt4pairIPSt18_Rb_tree_node_baseS1_EC1IRS1_Lb1EEEOT_RKS1_, symObjAddr: 0x16C8, symBinAddr: 0x100005644, symSize: 0x44 }
  - { offsetInCU: 0xE981, offset: 0xE981, size: 0x8, addend: 0x0, symName: __ZNSt17_Rb_tree_iteratorINSt7__cxx1112basic_stringIcSt11char_traitsIcESaIcEEEEmmEv, symObjAddr: 0x1668, symBinAddr: 0x1000055E4, symSize: 0x30 }
  - { offsetInCU: 0xE989, offset: 0xE989, size: 0x8, addend: 0x0, symName: __ZNSt17_Rb_tree_iteratorINSt7__cxx1112basic_stringIcSt11char_traitsIcESaIcEEEEppEv, symObjAddr: 0x1698, symBinAddr: 0x100005614, symSize: 0x30 }
  - { offsetInCU: 0xEA43, offset: 0xEA43, size: 0x8, addend: 0x0, symName: __ZNSt4pairIPSt18_Rb_tree_node_baseS1_EC1IRS1_S4_Lb1EEEOT_OT0_, symObjAddr: 0x1620, symBinAddr: 0x10000559C, symSize: 0x48 }
  - { offsetInCU: 0xEA4B, offset: 0xEA4B, size: 0x8, addend: 0x0, symName: __ZNSt17_Rb_tree_iteratorINSt7__cxx1112basic_stringIcSt11char_traitsIcESaIcEEEEmmEv, symObjAddr: 0x1668, symBinAddr: 0x1000055E4, symSize: 0x30 }
  - { offsetInCU: 0xEA65, offset: 0xEA65, size: 0x8, addend: 0x0, symName: __ZNSt8_Rb_treeINSt7__cxx1112basic_stringIcSt11char_traitsIcESaIcEEES5_St9_IdentityIS5_ESt4lessIS5_ESaIS5_EE11_M_leftmostEv, symObjAddr: 0x1608, symBinAddr: 0x100005584, symSize: 0x18 }
  - { offsetInCU: 0xEA6D, offset: 0xEA6D, size: 0x8, addend: 0x0, symName: __ZNSt4pairIPSt18_Rb_tree_node_baseS1_EC1IRS1_S4_Lb1EEEOT_OT0_, symObjAddr: 0x1620, symBinAddr: 0x10000559C, symSize: 0x48 }
  - { offsetInCU: 0xEA94, offset: 0xEA94, size: 0x8, addend: 0x0, symName: __ZNSt8_Rb_treeINSt7__cxx1112basic_stringIcSt11char_traitsIcESaIcEEES5_St9_IdentityIS5_ESt4lessIS5_ESaIS5_EE24_M_get_insert_unique_posERKS5_, symObjAddr: 0x14B8, symBinAddr: 0x100005434, symSize: 0x150 }
  - { offsetInCU: 0xEA9C, offset: 0xEA9C, size: 0x8, addend: 0x0, symName: __ZNSt8_Rb_treeINSt7__cxx1112basic_stringIcSt11char_traitsIcESaIcEEES5_St9_IdentityIS5_ESt4lessIS5_ESaIS5_EE11_M_leftmostEv, symObjAddr: 0x1608, symBinAddr: 0x100005584, symSize: 0x18 }
  - { offsetInCU: 0xEBB0, offset: 0xEBB0, size: 0x8, addend: 0x0, symName: __ZNSt4pairIPSt18_Rb_tree_node_baseS1_EC1IRS1_Lb1EEERKS1_OT_, symObjAddr: 0x1474, symBinAddr: 0x1000053F0, symSize: 0x44 }
  - { offsetInCU: 0xEBB8, offset: 0xEBB8, size: 0x8, addend: 0x0, symName: __ZNSt8_Rb_treeINSt7__cxx1112basic_stringIcSt11char_traitsIcESaIcEEES5_St9_IdentityIS5_ESt4lessIS5_ESaIS5_EE24_M_get_insert_unique_posERKS5_, symObjAddr: 0x14B8, symBinAddr: 0x100005434, symSize: 0x150 }
  - { offsetInCU: 0xEBC7, offset: 0xEBC7, size: 0x8, addend: 0x0, symName: __ZNKSt4lessINSt7__cxx1112basic_stringIcSt11char_traitsIcESaIcEEEEclERKS5_S8_, symObjAddr: 0x1448, symBinAddr: 0x1000053C4, symSize: 0x2C }
  - { offsetInCU: 0xEBCF, offset: 0xEBCF, size: 0x8, addend: 0x0, symName: __ZNSt4pairIPSt18_Rb_tree_node_baseS1_EC1IRS1_Lb1EEERKS1_OT_, symObjAddr: 0x1474, symBinAddr: 0x1000053F0, symSize: 0x44 }
  - { offsetInCU: 0xEC1E, offset: 0xEC1E, size: 0x8, addend: 0x0, symName: __ZNSt8_Rb_treeINSt7__cxx1112basic_stringIcSt11char_traitsIcESaIcEEES5_St9_IdentityIS5_ESt4lessIS5_ESaIS5_EE6_S_keyEPKSt18_Rb_tree_node_base, symObjAddr: 0x142C, symBinAddr: 0x1000053A8, symSize: 0x1C }
  - { offsetInCU: 0xEC26, offset: 0xEC26, size: 0x8, addend: 0x0, symName: __ZNKSt4lessINSt7__cxx1112basic_stringIcSt11char_traitsIcESaIcEEEEclERKS5_S8_, symObjAddr: 0x1448, symBinAddr: 0x1000053C4, symSize: 0x2C }
  - { offsetInCU: 0xEC50, offset: 0xEC50, size: 0x8, addend: 0x0, symName: __ZNSt8_Rb_treeINSt7__cxx1112basic_stringIcSt11char_traitsIcESaIcEEES5_St9_IdentityIS5_ESt4lessIS5_ESaIS5_EE12_M_rightmostEv, symObjAddr: 0x1414, symBinAddr: 0x100005390, symSize: 0x18 }
  - { offsetInCU: 0xEC58, offset: 0xEC58, size: 0x8, addend: 0x0, symName: __ZNSt8_Rb_treeINSt7__cxx1112basic_stringIcSt11char_traitsIcESaIcEEES5_St9_IdentityIS5_ESt4lessIS5_ESaIS5_EE6_S_keyEPKSt18_Rb_tree_node_base, symObjAddr: 0x142C, symBinAddr: 0x1000053A8, symSize: 0x1C }
  - { offsetInCU: 0xEC7F, offset: 0xEC7F, size: 0x8, addend: 0x0, symName: __ZNKSt8_Rb_treeINSt7__cxx1112basic_stringIcSt11char_traitsIcESaIcEEES5_St9_IdentityIS5_ESt4lessIS5_ESaIS5_EE4sizeEv, symObjAddr: 0x13FC, symBinAddr: 0x100005378, symSize: 0x18 }
  - { offsetInCU: 0xEC87, offset: 0xEC87, size: 0x8, addend: 0x0, symName: __ZNSt8_Rb_treeINSt7__cxx1112basic_stringIcSt11char_traitsIcESaIcEEES5_St9_IdentityIS5_ESt4lessIS5_ESaIS5_EE12_M_rightmostEv, symObjAddr: 0x1414, symBinAddr: 0x100005390, symSize: 0x18 }
  - { offsetInCU: 0xECAE, offset: 0xECAE, size: 0x8, addend: 0x0, symName: __ZNSt8_Rb_treeINSt7__cxx1112basic_stringIcSt11char_traitsIcESaIcEEES5_St9_IdentityIS5_ESt4lessIS5_ESaIS5_EE6_M_endEv, symObjAddr: 0x13E4, symBinAddr: 0x100005360, symSize: 0x18 }
  - { offsetInCU: 0xECB6, offset: 0xECB6, size: 0x8, addend: 0x0, symName: __ZNKSt8_Rb_treeINSt7__cxx1112basic_stringIcSt11char_traitsIcESaIcEEES5_St9_IdentityIS5_ESt4lessIS5_ESaIS5_EE4sizeEv, symObjAddr: 0x13FC, symBinAddr: 0x100005378, symSize: 0x18 }
  - { offsetInCU: 0xECDD, offset: 0xECDD, size: 0x8, addend: 0x0, symName: __ZNKSt23_Rb_tree_const_iteratorINSt7__cxx1112basic_stringIcSt11char_traitsIcESaIcEEEE13_M_const_castEv, symObjAddr: 0x13BC, symBinAddr: 0x100005338, symSize: 0x28 }
  - { offsetInCU: 0xECE5, offset: 0xECE5, size: 0x8, addend: 0x0, symName: __ZNSt8_Rb_treeINSt7__cxx1112basic_stringIcSt11char_traitsIcESaIcEEES5_St9_IdentityIS5_ESt4lessIS5_ESaIS5_EE6_M_endEv, symObjAddr: 0x13E4, symBinAddr: 0x100005360, symSize: 0x18 }
  - { offsetInCU: 0xED0C, offset: 0xED0C, size: 0x8, addend: 0x0, symName: __ZNSt8_Rb_treeINSt7__cxx1112basic_stringIcSt11char_traitsIcESaIcEEES5_St9_IdentityIS5_ESt4lessIS5_ESaIS5_EE11_M_put_nodeEPSt13_Rb_tree_nodeIS5_E, symObjAddr: 0x138C, symBinAddr: 0x100005308, symSize: 0x30 }
  - { offsetInCU: 0xED14, offset: 0xED14, size: 0x8, addend: 0x0, symName: __ZNKSt23_Rb_tree_const_iteratorINSt7__cxx1112basic_stringIcSt11char_traitsIcESaIcEEEE13_M_const_castEv, symObjAddr: 0x13BC, symBinAddr: 0x100005338, symSize: 0x28 }
  - { offsetInCU: 0xED4F, offset: 0xED4F, size: 0x8, addend: 0x0, symName: __ZNSt8_Rb_treeINSt7__cxx1112basic_stringIcSt11char_traitsIcESaIcEEES5_St9_IdentityIS5_ESt4lessIS5_ESaIS5_EE15_M_destroy_nodeEPSt13_Rb_tree_nodeIS5_E, symObjAddr: 0x1348, symBinAddr: 0x1000052C4, symSize: 0x44 }
  - { offsetInCU: 0xED57, offset: 0xED57, size: 0x8, addend: 0x0, symName: __ZNSt8_Rb_treeINSt7__cxx1112basic_stringIcSt11char_traitsIcESaIcEEES5_St9_IdentityIS5_ESt4lessIS5_ESaIS5_EE11_M_put_nodeEPSt13_Rb_tree_nodeIS5_E, symObjAddr: 0x138C, symBinAddr: 0x100005308, symSize: 0x30 }
  - { offsetInCU: 0xEE22, offset: 0xEE22, size: 0x8, addend: 0x0, symName: __ZN9__gnu_cxx13new_allocatorISt13_Rb_tree_nodeINSt7__cxx1112basic_stringIcSt11char_traitsIcESaIcEEEEEC2ERKS9_, symObjAddr: 0x1330, symBinAddr: 0x1000052AC, symSize: 0x18 }
  - { offsetInCU: 0xEE2A, offset: 0xEE2A, size: 0x8, addend: 0x0, symName: __ZNSt8_Rb_treeINSt7__cxx1112basic_stringIcSt11char_traitsIcESaIcEEES5_St9_IdentityIS5_ESt4lessIS5_ESaIS5_EE15_M_destroy_nodeEPSt13_Rb_tree_nodeIS5_E, symObjAddr: 0x1348, symBinAddr: 0x1000052C4, symSize: 0x44 }
  - { offsetInCU: 0xEE8E, offset: 0xEE8E, size: 0x8, addend: 0x0, symName: __ZSt12__get_helperILm1ESt14default_deleteI15LiteratureEntryEJEERT0_RSt11_Tuple_implIXT_EJS3_DpT1_EE, symObjAddr: 0x1314, symBinAddr: 0x100005290, symSize: 0x1C }
  - { offsetInCU: 0xEE96, offset: 0xEE96, size: 0x8, addend: 0x0, symName: __ZN9__gnu_cxx13new_allocatorISt13_Rb_tree_nodeINSt7__cxx1112basic_stringIcSt11char_traitsIcESaIcEEEEEC2ERKS9_, symObjAddr: 0x1330, symBinAddr: 0x1000052AC, symSize: 0x18 }
  - { offsetInCU: 0xEE4D, offset: 0xEE4D, size: 0x8, addend: 0x0, symName: __ZNSt11_Tuple_implILm0EJP15LiteratureEntrySt14default_deleteIS0_EEE7_M_headERS4_, symObjAddr: 0x12F8, symBinAddr: 0x100005274, symSize: 0x1C }
  - { offsetInCU: 0xEE55, offset: 0xEE55, size: 0x8, addend: 0x0, symName: __ZSt12__get_helperILm1ESt14default_deleteI15LiteratureEntryEJEERT0_RSt11_Tuple_implIXT_EJS3_DpT1_EE, symObjAddr: 0x1314, symBinAddr: 0x100005290, symSize: 0x1C }
  - { offsetInCU: 0xEE7F, offset: 0xEE7F, size: 0x8, addend: 0x0, symName: __ZNSt12_Destroy_auxILb0EE9__destroyIPSt10unique_ptrI15LiteratureEntrySt14default_deleteIS3_EEEEvT_S8_, symObjAddr: 0x12AC, symBinAddr: 0x100005228, symSize: 0x4C }
  - { offsetInCU: 0xEE87, offset: 0xEE87, size: 0x8, addend: 0x0, symName: __ZNSt11_Tuple_implILm0EJP15LiteratureEntrySt14default_deleteIS0_EEE7_M_headERS4_, symObjAddr: 0x12F8, symBinAddr: 0x100005274, symSize: 0x1C }
  - { offsetInCU: 0xEED0, offset: 0xEED0, size: 0x8, addend: 0x0, symName: __ZNSt16allocator_traitsISaISt10unique_ptrI15LiteratureEntrySt14default_deleteIS1_EEEE10deallocateERS5_PS4_m, symObjAddr: 0x127C, symBinAddr: 0x1000051F8, symSize: 0x30 }
  - { offsetInCU: 0xEED8, offset: 0xEED8, size: 0x8, addend: 0x0, symName: __ZNSt12_Destroy_auxILb0EE9__destroyIPSt10unique_ptrI15LiteratureEntrySt14default_deleteIS3_EEEEvT_S8_, symObjAddr: 0x12AC, symBinAddr: 0x100005228, symSize: 0x4C }
  - { offsetInCU: 0xEFAC, offset: 0xEFAC, size: 0x8, addend: 0x0, symName: __ZN9__gnu_cxx13new_allocatorISt10unique_ptrI15LiteratureEntrySt14default_deleteIS2_EEED2Ev, symObjAddr: 0x1268, symBinAddr: 0x1000051E4, symSize: 0x14 }
  - { offsetInCU: 0xEFB4, offset: 0xEFB4, size: 0x8, addend: 0x0, symName: __ZNSt16allocator_traitsISaISt10unique_ptrI15LiteratureEntrySt14default_deleteIS1_EEEE10deallocateERS5_PS4_m, symObjAddr: 0x127C, symBinAddr: 0x1000051F8, symSize: 0x30 }
  - { offsetInCU: 0xEF89, offset: 0xEF89, size: 0x8, addend: 0x0, symName: __ZNSt8_Rb_treeINSt7__cxx1112basic_stringIcSt11char_traitsIcESaIcEEES5_St9_IdentityIS5_ESt4lessIS5_ESaIS5_EE10_M_insert_IRKS5_NSB_11_Alloc_nodeEEESt17_Rb_tree_iteratorIS5_EPSt18_Rb_tree_node_baseSJ_OT_RT0_, symObjAddr: 0x1178, symBinAddr: 0x1000050F4, symSize: 0xF0 }
  - { offsetInCU: 0xEF91, offset: 0xEF91, size: 0x8, addend: 0x0, symName: __ZN9__gnu_cxx13new_allocatorISt10unique_ptrI15LiteratureEntrySt14default_deleteIS2_EEED2Ev, symObjAddr: 0x1268, symBinAddr: 0x1000051E4, symSize: 0x14 }
  - { offsetInCU: 0xF0E9, offset: 0xF0E9, size: 0x8, addend: 0x0, symName: __ZSt7forwardIRKNSt7__cxx1112basic_stringIcSt11char_traitsIcESaIcEEEEOT_RNSt16remove_referenceIS8_E4typeE, symObjAddr: 0x1164, symBinAddr: 0x1000050E0, symSize: 0x14 }
  - { offsetInCU: 0xF0F1, offset: 0xF0F1, size: 0x8, addend: 0x0, symName: __ZNSt8_Rb_treeINSt7__cxx1112basic_stringIcSt11char_traitsIcESaIcEEES5_St9_IdentityIS5_ESt4lessIS5_ESaIS5_EE10_M_insert_IRKS5_NSB_11_Alloc_nodeEEESt17_Rb_tree_iteratorIS5_EPSt18_Rb_tree_node_baseSJ_OT_RT0_, symObjAddr: 0x1178, symBinAddr: 0x1000050F4, symSize: 0xF0 }
  - { offsetInCU: 0xF09F, offset: 0xF09F, size: 0x8, addend: 0x0, symName: __ZNKSt9_IdentityINSt7__cxx1112basic_stringIcSt11char_traitsIcESaIcEEEEclERKS5_, symObjAddr: 0x114C, symBinAddr: 0x1000050C8, symSize: 0x18 }
  - { offsetInCU: 0xF0A7, offset: 0xF0A7, size: 0x8, addend: 0x0, symName: __ZSt7forwardIRKNSt7__cxx1112basic_stringIcSt11char_traitsIcESaIcEEEEOT_RNSt16remove_referenceIS8_E4typeE, symObjAddr: 0x1164, symBinAddr: 0x1000050E0, symSize: 0x14 }
  - { offsetInCU: 0xF0E2, offset: 0xF0E2, size: 0x8, addend: 0x0, symName: __ZNSt8_Rb_treeINSt7__cxx1112basic_stringIcSt11char_traitsIcESaIcEEES5_St9_IdentityIS5_ESt4lessIS5_ESaIS5_EE29_M_get_insert_hint_unique_posESt23_Rb_tree_const_iteratorIS5_ERKS5_, symObjAddr: 0xE40, symBinAddr: 0x100004DBC, symSize: 0x30C }
  - { offsetInCU: 0xF0EA, offset: 0xF0EA, size: 0x8, addend: 0x0, symName: __ZNKSt9_IdentityINSt7__cxx1112basic_stringIcSt11char_traitsIcESaIcEEEEclERKS5_, symObjAddr: 0x114C, symBinAddr: 0x1000050C8, symSize: 0x18 }
  - { offsetInCU: 0xF232, offset: 0xF232, size: 0x8, addend: 0x0, symName: __ZNSt17_Rb_tree_iteratorINSt7__cxx1112basic_stringIcSt11char_traitsIcESaIcEEEEC1EPSt18_Rb_tree_node_base, symObjAddr: 0xE1C, symBinAddr: 0x100004D98, symSize: 0x24 }
  - { offsetInCU: 0xF23A, offset: 0xF23A, size: 0x8, addend: 0x0, symName: __ZNSt8_Rb_treeINSt7__cxx1112basic_stringIcSt11char_traitsIcESaIcEEES5_St9_IdentityIS5_ESt4lessIS5_ESaIS5_EE29_M_get_insert_hint_unique_posESt23_Rb_tree_const_iteratorIS5_ERKS5_, symObjAddr: 0xE40, symBinAddr: 0x100004DBC, symSize: 0x30C }
  - { offsetInCU: 0xF203, offset: 0xF203, size: 0x8, addend: 0x0, symName: __ZNKSt8_Rb_treeINSt7__cxx1112basic_stringIcSt11char_traitsIcESaIcEEES5_St9_IdentityIS5_ESt4lessIS5_ESaIS5_EE9_M_mbeginEv, symObjAddr: 0xE04, symBinAddr: 0x100004D80, symSize: 0x18 }
  - { offsetInCU: 0xF20B, offset: 0xF20B, size: 0x8, addend: 0x0, symName: __ZNSt17_Rb_tree_iteratorINSt7__cxx1112basic_stringIcSt11char_traitsIcESaIcEEEEC1EPSt18_Rb_tree_node_base, symObjAddr: 0xE1C, symBinAddr: 0x100004D98, symSize: 0x24 }
  - { offsetInCU: 0xF232, offset: 0xF232, size: 0x8, addend: 0x0, symName: __ZNSt8_Rb_treeINSt7__cxx1112basic_stringIcSt11char_traitsIcESaIcEEES5_St9_IdentityIS5_ESt4lessIS5_ESaIS5_EE12_M_drop_nodeEPSt13_Rb_tree_nodeIS5_E, symObjAddr: 0xDD0, symBinAddr: 0x100004D4C, symSize: 0x34 }
  - { offsetInCU: 0xF23A, offset: 0xF23A, size: 0x8, addend: 0x0, symName: __ZNKSt8_Rb_treeINSt7__cxx1112basic_stringIcSt11char_traitsIcESaIcEEES5_St9_IdentityIS5_ESt4lessIS5_ESaIS5_EE9_M_mbeginEv, symObjAddr: 0xE04, symBinAddr: 0x100004D80, symSize: 0x18 }
  - { offsetInCU: 0xF275, offset: 0xF275, size: 0x8, addend: 0x0, symName: __ZNSt8_Rb_treeINSt7__cxx1112basic_stringIcSt11char_traitsIcESaIcEEES5_St9_IdentityIS5_ESt4lessIS5_ESaIS5_EE7_S_leftEPSt18_Rb_tree_node_base, symObjAddr: 0xDB8, symBinAddr: 0x100004D34, symSize: 0x18 }
  - { offsetInCU: 0xF27D, offset: 0xF27D, size: 0x8, addend: 0x0, symName: __ZNSt8_Rb_treeINSt7__cxx1112basic_stringIcSt11char_traitsIcESaIcEEES5_St9_IdentityIS5_ESt4lessIS5_ESaIS5_EE12_M_drop_nodeEPSt13_Rb_tree_nodeIS5_E, symObjAddr: 0xDD0, symBinAddr: 0x100004D4C, symSize: 0x34 }
  - { offsetInCU: 0xF2A7, offset: 0xF2A7, size: 0x8, addend: 0x0, symName: __ZNSt8_Rb_treeINSt7__cxx1112basic_stringIcSt11char_traitsIcESaIcEEES5_St9_IdentityIS5_ESt4lessIS5_ESaIS5_EE8_S_rightEPSt18_Rb_tree_node_base, symObjAddr: 0xDA0, symBinAddr: 0x100004D1C, symSize: 0x18 }
  - { offsetInCU: 0xF2AF, offset: 0xF2AF, size: 0x8, addend: 0x0, symName: __ZNSt8_Rb_treeINSt7__cxx1112basic_stringIcSt11char_traitsIcESaIcEEES5_St9_IdentityIS5_ESt4lessIS5_ESaIS5_EE7_S_leftEPSt18_Rb_tree_node_base, symObjAddr: 0xDB8, symBinAddr: 0x100004D34, symSize: 0x18 }
  - { offsetInCU: 0xF365, offset: 0xF365, size: 0x8, addend: 0x0, symName: __ZNSt20_Rb_tree_key_compareISt4lessINSt7__cxx1112basic_stringIcSt11char_traitsIcESaIcEEEEEC2ERKS7_, symObjAddr: 0xD88, symBinAddr: 0x100004D04, symSize: 0x18 }
  - { offsetInCU: 0xF36D, offset: 0xF36D, size: 0x8, addend: 0x0, symName: __ZNSt8_Rb_treeINSt7__cxx1112basic_stringIcSt11char_traitsIcESaIcEEES5_St9_IdentityIS5_ESt4lessIS5_ESaIS5_EE8_S_rightEPSt18_Rb_tree_node_base, symObjAddr: 0xDA0, symBinAddr: 0x100004D1C, symSize: 0x18 }
  - { offsetInCU: 0xF3BC, offset: 0xF3BC, size: 0x8, addend: 0x0, symName: __ZNSaISt13_Rb_tree_nodeINSt7__cxx1112basic_stringIcSt11char_traitsIcESaIcEEEEEC2ERKS7_, symObjAddr: 0xD60, symBinAddr: 0x100004CDC, symSize: 0x28 }
  - { offsetInCU: 0xF3C4, offset: 0xF3C4, size: 0x8, addend: 0x0, symName: __ZNSt20_Rb_tree_key_compareISt4lessINSt7__cxx1112basic_stringIcSt11char_traitsIcESaIcEEEEEC2ERKS7_, symObjAddr: 0xD88, symBinAddr: 0x100004D04, symSize: 0x18 }
  - { offsetInCU: 0xF46D, offset: 0xF46D, size: 0x8, addend: 0x0, symName: __ZSt4moveIRSaISt13_Rb_tree_nodeINSt7__cxx1112basic_stringIcSt11char_traitsIcESaIcEEEEEEONSt16remove_referenceIT_E4typeEOSB_, symObjAddr: 0xD4C, symBinAddr: 0x100004CC8, symSize: 0x14 }
  - { offsetInCU: 0xF475, offset: 0xF475, size: 0x8, addend: 0x0, symName: __ZNSaISt13_Rb_tree_nodeINSt7__cxx1112basic_stringIcSt11char_traitsIcESaIcEEEEEC2ERKS7_, symObjAddr: 0xD60, symBinAddr: 0x100004CDC, symSize: 0x28 }
  - { offsetInCU: 0xF484, offset: 0xF484, size: 0x8, addend: 0x0, symName: __ZN9__gnu_cxx13new_allocatorISt13_Rb_tree_nodeINSt7__cxx1112basic_stringIcSt11char_traitsIcESaIcEEEEED2Ev, symObjAddr: 0xD38, symBinAddr: 0x100004CB4, symSize: 0x14 }
  - { offsetInCU: 0xF48C, offset: 0xF48C, size: 0x8, addend: 0x0, symName: __ZSt4moveIRSaISt13_Rb_tree_nodeINSt7__cxx1112basic_stringIcSt11char_traitsIcESaIcEEEEEEONSt16remove_referenceIT_E4typeEOSB_, symObjAddr: 0xD4C, symBinAddr: 0x100004CC8, symSize: 0x14 }
  - { offsetInCU: 0xF4CB, offset: 0xF4CB, size: 0x8, addend: 0x0, symName: __ZN9__gnu_cxx13new_allocatorISt13_Rb_tree_nodeINSt7__cxx1112basic_stringIcSt11char_traitsIcESaIcEEEEEC2Ev, symObjAddr: 0xD24, symBinAddr: 0x100004CA0, symSize: 0x14 }
  - { offsetInCU: 0xF4D3, offset: 0xF4D3, size: 0x8, addend: 0x0, symName: __ZN9__gnu_cxx13new_allocatorISt13_Rb_tree_nodeINSt7__cxx1112basic_stringIcSt11char_traitsIcESaIcEEEEED2Ev, symObjAddr: 0xD38, symBinAddr: 0x100004CB4, symSize: 0x14 }
  - { offsetInCU: 0xF552, offset: 0xF552, size: 0x8, addend: 0x0, symName: __ZSt3getILm1EJP15LiteratureEntrySt14default_deleteIS0_EEERNSt13tuple_elementIXT_ESt5tupleIJDpT0_EEE4typeERS8_, symObjAddr: 0xD08, symBinAddr: 0x100004C84, symSize: 0x1C }
  - { offsetInCU: 0xF55A, offset: 0xF55A, size: 0x8, addend: 0x0, symName: __ZN9__gnu_cxx13new_allocatorISt13_Rb_tree_nodeINSt7__cxx1112basic_stringIcSt11char_traitsIcESaIcEEEEEC2Ev, symObjAddr: 0xD24, symBinAddr: 0x100004CA0, symSize: 0x14 }
  - { offsetInCU: 0xF5C4, offset: 0xF5C4, size: 0x8, addend: 0x0, symName: __ZSt12__get_helperILm0EP15LiteratureEntryJSt14default_deleteIS0_EEERT0_RSt11_Tuple_implIXT_EJS4_DpT1_EE, symObjAddr: 0xCEC, symBinAddr: 0x100004C68, symSize: 0x1C }
  - { offsetInCU: 0xF5CC, offset: 0xF5CC, size: 0x8, addend: 0x0, symName: __ZSt3getILm1EJP15LiteratureEntrySt14default_deleteIS0_EEERNSt13tuple_elementIXT_ESt5tupleIJDpT0_EEE4typeERS8_, symObjAddr: 0xD08, symBinAddr: 0x100004C84, symSize: 0x1C }
  - { offsetInCU: 0xF5F3, offset: 0xF5F3, size: 0x8, addend: 0x0, symName: __ZSt8_DestroyIPSt10unique_ptrI15LiteratureEntrySt14default_deleteIS1_EEEvT_S6_, symObjAddr: 0xCC4, symBinAddr: 0x100004C40, symSize: 0x28 }
  - { offsetInCU: 0xF5FB, offset: 0xF5FB, size: 0x8, addend: 0x0, symName: __ZSt12__get_helperILm0EP15LiteratureEntryJSt14default_deleteIS0_EEERT0_RSt11_Tuple_implIXT_EJS4_DpT1_EE, symObjAddr: 0xCEC, symBinAddr: 0x100004C68, symSize: 0x1C }
  - { offsetInCU: 0xF5CC, offset: 0xF5CC, size: 0x8, addend: 0x0, symName: __ZNSt12_Vector_baseISt10unique_ptrI15LiteratureEntrySt14default_deleteIS1_EESaIS4_EE13_M_deallocateEPS4_m, symObjAddr: 0xC88, symBinAddr: 0x100004C04, symSize: 0x3C }
  - { offsetInCU: 0xF5D4, offset: 0xF5D4, size: 0x8, addend: 0x0, symName: __ZSt8_DestroyIPSt10unique_ptrI15LiteratureEntrySt14default_deleteIS1_EEEvT_S6_, symObjAddr: 0xCC4, symBinAddr: 0x100004C40, symSize: 0x28 }
  - { offsetInCU: 0xF68E, offset: 0xF68E, size: 0x8, addend: 0x0, symName: __ZNSaISt10unique_ptrI15LiteratureEntrySt14default_deleteIS0_EEED2Ev, symObjAddr: 0xC68, symBinAddr: 0x100004BE4, symSize: 0x20 }
  - { offsetInCU: 0xF696, offset: 0xF696, size: 0x8, addend: 0x0, symName: __ZNSt12_Vector_baseISt10unique_ptrI15LiteratureEntrySt14default_deleteIS1_EESaIS4_EE13_M_deallocateEPS4_m, symObjAddr: 0xC88, symBinAddr: 0x100004C04, symSize: 0x3C }
  - { offsetInCU: 0xF678, offset: 0xF678, size: 0x8, addend: 0x0, symName: __ZNSt8_Rb_treeINSt7__cxx1112basic_stringIcSt11char_traitsIcESaIcEEES5_St9_IdentityIS5_ESt4lessIS5_ESaIS5_EE17_M_insert_unique_IRKS5_NSB_11_Alloc_nodeEEESt17_Rb_tree_iteratorIS5_ESt23_Rb_tree_const_iteratorIS5_EOT_RT0_, symObjAddr: 0xBD8, symBinAddr: 0x100004B54, symSize: 0x90 }
  - { offsetInCU: 0xF680, offset: 0xF680, size: 0x8, addend: 0x0, symName: __ZNSaISt10unique_ptrI15LiteratureEntrySt14default_deleteIS0_EEED2Ev, symObjAddr: 0xC68, symBinAddr: 0x100004BE4, symSize: 0x20 }
  - { offsetInCU: 0xF7AF, offset: 0xF7AF, size: 0x8, addend: 0x0, symName: __ZNSt23_Rb_tree_const_iteratorINSt7__cxx1112basic_stringIcSt11char_traitsIcESaIcEEEEC1ERKSt17_Rb_tree_iteratorIS5_E, symObjAddr: 0xBB0, symBinAddr: 0x100004B2C, symSize: 0x28 }
  - { offsetInCU: 0xF7B7, offset: 0xF7B7, size: 0x8, addend: 0x0, symName: __ZNSt8_Rb_treeINSt7__cxx1112basic_stringIcSt11char_traitsIcESaIcEEES5_St9_IdentityIS5_ESt4lessIS5_ESaIS5_EE17_M_insert_unique_IRKS5_NSB_11_Alloc_nodeEEESt17_Rb_tree_iteratorIS5_ESt23_Rb_tree_const_iteratorIS5_EOT_RT0_, symObjAddr: 0xBD8, symBinAddr: 0x100004B54, symSize: 0x90 }
  - { offsetInCU: 0xF775, offset: 0xF775, size: 0x8, addend: 0x0, symName: __ZNSt8_Rb_treeINSt7__cxx1112basic_stringIcSt11char_traitsIcESaIcEEES5_St9_IdentityIS5_ESt4lessIS5_ESaIS5_EE3endEv, symObjAddr: 0xB88, symBinAddr: 0x100004B04, symSize: 0x28 }
  - { offsetInCU: 0xF77D, offset: 0xF77D, size: 0x8, addend: 0x0, symName: __ZNSt23_Rb_tree_const_iteratorINSt7__cxx1112basic_stringIcSt11char_traitsIcESaIcEEEEC1ERKSt17_Rb_tree_iteratorIS5_E, symObjAddr: 0xBB0, symBinAddr: 0x100004B2C, symSize: 0x28 }
  - { offsetInCU: 0xF84E, offset: 0xF84E, size: 0x8, addend: 0x0, symName: __ZNSt8_Rb_treeINSt7__cxx1112basic_stringIcSt11char_traitsIcESaIcEEES5_St9_IdentityIS5_ESt4lessIS5_ESaIS5_EE11_Alloc_nodeC1ERSB_, symObjAddr: 0xB64, symBinAddr: 0x100004AE0, symSize: 0x24 }
  - { offsetInCU: 0xF856, offset: 0xF856, size: 0x8, addend: 0x0, symName: __ZNSt8_Rb_treeINSt7__cxx1112basic_stringIcSt11char_traitsIcESaIcEEES5_St9_IdentityIS5_ESt4lessIS5_ESaIS5_EE3endEv, symObjAddr: 0xB88, symBinAddr: 0x100004B04, symSize: 0x28 }
  - { offsetInCU: 0xF808, offset: 0xF808, size: 0x8, addend: 0x0, symName: __ZNKSt16initializer_listINSt7__cxx1112basic_stringIcSt11char_traitsIcESaIcEEEE4sizeEv, symObjAddr: 0xB4C, symBinAddr: 0x100004AC8, symSize: 0x18 }
  - { offsetInCU: 0xF810, offset: 0xF810, size: 0x8, addend: 0x0, symName: __ZNSt8_Rb_treeINSt7__cxx1112basic_stringIcSt11char_traitsIcESaIcEEES5_St9_IdentityIS5_ESt4lessIS5_ESaIS5_EE11_Alloc_nodeC1ERSB_, symObjAddr: 0xB64, symBinAddr: 0x100004AE0, symSize: 0x24 }
  - { offsetInCU: 0xF837, offset: 0xF837, size: 0x8, addend: 0x0, symName: __ZNSt8_Rb_treeINSt7__cxx1112basic_stringIcSt11char_traitsIcESaIcEEES5_St9_IdentityIS5_ESt4lessIS5_ESaIS5_EE8_M_beginEv, symObjAddr: 0xB30, symBinAddr: 0x100004AAC, symSize: 0x1C }
  - { offsetInCU: 0xF83F, offset: 0xF83F, size: 0x8, addend: 0x0, symName: __ZNKSt16initializer_listINSt7__cxx1112basic_stringIcSt11char_traitsIcESaIcEEEE4sizeEv, symObjAddr: 0xB4C, symBinAddr: 0x100004AC8, symSize: 0x18 }
  - { offsetInCU: 0xF866, offset: 0xF866, size: 0x8, addend: 0x0, symName: __ZNSt8_Rb_treeINSt7__cxx1112basic_stringIcSt11char_traitsIcESaIcEEES5_St9_IdentityIS5_ESt4lessIS5_ESaIS5_EE8_M_eraseEPSt13_Rb_tree_nodeIS5_E, symObjAddr: 0xACC, symBinAddr: 0x100004A48, symSize: 0x64 }
  - { offsetInCU: 0xF86E, offset: 0xF86E, size: 0x8, addend: 0x0, symName: __ZNSt8_Rb_treeINSt7__cxx1112basic_stringIcSt11char_traitsIcESaIcEEES5_St9_IdentityIS5_ESt4lessIS5_ESaIS5_EE8_M_beginEv, symObjAddr: 0xB30, symBinAddr: 0x100004AAC, symSize: 0x1C }
  - { offsetInCU: 0xF9B1, offset: 0xF9B1, size: 0x8, addend: 0x0, symName: __ZNSt8_Rb_treeINSt7__cxx1112basic_stringIcSt11char_traitsIcESaIcEEES5_St9_IdentityIS5_ESt4lessIS5_ESaIS5_EE13_Rb_tree_implIS9_Lb1EEC1ERKS9_OSaISt13_Rb_tree_nodeIS5_EE, symObjAddr: 0xA80, symBinAddr: 0x1000049FC, symSize: 0x4C }
  - { offsetInCU: 0xF9B9, offset: 0xF9B9, size: 0x8, addend: 0x0, symName: __ZNSt8_Rb_treeINSt7__cxx1112basic_stringIcSt11char_traitsIcESaIcEEES5_St9_IdentityIS5_ESt4lessIS5_ESaIS5_EE8_M_eraseEPSt13_Rb_tree_nodeIS5_E, symObjAddr: 0xACC, symBinAddr: 0x100004A48, symSize: 0x64 }
  - { offsetInCU: 0xF9CA, offset: 0xF9CA, size: 0x8, addend: 0x0, symName: __ZNSaISt13_Rb_tree_nodeINSt7__cxx1112basic_stringIcSt11char_traitsIcESaIcEEEEED1Ev, symObjAddr: 0xA60, symBinAddr: 0x1000049DC, symSize: 0x20 }
  - { offsetInCU: 0xF9D2, offset: 0xF9D2, size: 0x8, addend: 0x0, symName: __ZNSt8_Rb_treeINSt7__cxx1112basic_stringIcSt11char_traitsIcESaIcEEES5_St9_IdentityIS5_ESt4lessIS5_ESaIS5_EE13_Rb_tree_implIS9_Lb1EEC1ERKS9_OSaISt13_Rb_tree_nodeIS5_EE, symObjAddr: 0xA80, symBinAddr: 0x1000049FC, symSize: 0x4C }
  - { offsetInCU: 0xF9F8, offset: 0xF9F8, size: 0x8, addend: 0x0, symName: __ZNSaISt13_Rb_tree_nodeINSt7__cxx1112basic_stringIcSt11char_traitsIcESaIcEEEEED2Ev, symObjAddr: 0xA40, symBinAddr: 0x1000049BC, symSize: 0x20 }
  - { offsetInCU: 0xFA00, offset: 0xFA00, size: 0x8, addend: 0x0, symName: __ZNSaISt13_Rb_tree_nodeINSt7__cxx1112basic_stringIcSt11char_traitsIcESaIcEEEEED1Ev, symObjAddr: 0xA60, symBinAddr: 0x1000049DC, symSize: 0x20 }
  - { offsetInCU: 0xFA61, offset: 0xFA61, size: 0x8, addend: 0x0, symName: __ZNSaISt13_Rb_tree_nodeINSt7__cxx1112basic_stringIcSt11char_traitsIcESaIcEEEEEC1IS5_EERKSaIT_E, symObjAddr: 0xA1C, symBinAddr: 0x100004998, symSize: 0x24 }
  - { offsetInCU: 0xFA69, offset: 0xFA69, size: 0x8, addend: 0x0, symName: __ZNSaISt13_Rb_tree_nodeINSt7__cxx1112basic_stringIcSt11char_traitsIcESaIcEEEEED2Ev, symObjAddr: 0xA40, symBinAddr: 0x1000049BC, symSize: 0x20 }
  - { offsetInCU: 0xFAC6, offset: 0xFAC6, size: 0x8, addend: 0x0, symName: __ZN9__gnu_cxx13new_allocatorINSt7__cxx1112basic_stringIcSt11char_traitsIcESaIcEEEEC2ERKS7_, symObjAddr: 0xA04, symBinAddr: 0x100004980, symSize: 0x18 }
  - { offsetInCU: 0xFACE, offset: 0xFACE, size: 0x8, addend: 0x0, symName: __ZNSaISt13_Rb_tree_nodeINSt7__cxx1112basic_stringIcSt11char_traitsIcESaIcEEEEEC1IS5_EERKSaIT_E, symObjAddr: 0xA1C, symBinAddr: 0x100004998, symSize: 0x24 }
  - { offsetInCU: 0xFAA5, offset: 0xFAA5, size: 0x8, addend: 0x0, symName: __ZNSt15__uniq_ptr_implI15LiteratureEntrySt14default_deleteIS0_EE10_M_deleterEv, symObjAddr: 0x9E8, symBinAddr: 0x100004964, symSize: 0x1C }
  - { offsetInCU: 0xFAAD, offset: 0xFAAD, size: 0x8, addend: 0x0, symName: __ZN9__gnu_cxx13new_allocatorINSt7__cxx1112basic_stringIcSt11char_traitsIcESaIcEEEEC2ERKS7_, symObjAddr: 0xA04, symBinAddr: 0x100004980, symSize: 0x18 }
  - { offsetInCU: 0xFB97, offset: 0xFB97, size: 0x8, addend: 0x0, symName: __ZSt3getILm0EJP15LiteratureEntrySt14default_deleteIS0_EEERNSt13tuple_elementIXT_ESt5tupleIJDpT0_EEE4typeERS8_, symObjAddr: 0x9CC, symBinAddr: 0x100004948, symSize: 0x1C }
  - { offsetInCU: 0xFB9F, offset: 0xFB9F, size: 0x8, addend: 0x0, symName: __ZNSt15__uniq_ptr_implI15LiteratureEntrySt14default_deleteIS0_EE10_M_deleterEv, symObjAddr: 0x9E8, symBinAddr: 0x100004964, symSize: 0x1C }
  - { offsetInCU: 0xFBD3, offset: 0xFBD3, size: 0x8, addend: 0x0, symName: __ZSt10__distanceIPKcENSt15iterator_traitsIT_E15difference_typeES3_S3_St26random_access_iterator_tag, symObjAddr: 0x9A8, symBinAddr: 0x100004924, symSize: 0x24 }
  - { offsetInCU: 0xFBDB, offset: 0xFBDB, size: 0x8, addend: 0x0, symName: __ZSt3getILm0EJP15LiteratureEntrySt14default_deleteIS0_EEERNSt13tuple_elementIXT_ESt5tupleIJDpT0_EEE4typeERS8_, symObjAddr: 0x9CC, symBinAddr: 0x100004948, symSize: 0x1C }
  - { offsetInCU: 0xFC31, offset: 0xFC31, size: 0x8, addend: 0x0, symName: __ZSt19__iterator_categoryIPKcENSt15iterator_traitsIT_E17iterator_categoryERKS3_, symObjAddr: 0x994, symBinAddr: 0x100004910, symSize: 0x14 }
  - { offsetInCU: 0xFC39, offset: 0xFC39, size: 0x8, addend: 0x0, symName: __ZSt10__distanceIPKcENSt15iterator_traitsIT_E15difference_typeES3_S3_St26random_access_iterator_tag, symObjAddr: 0x9A8, symBinAddr: 0x100004924, symSize: 0x24 }
  - { offsetInCU: 0xFC4B, offset: 0xFC4B, size: 0x8, addend: 0x0, symName: __ZN9__gnu_cxx17__is_null_pointerIKcEEbPT_, symObjAddr: 0x974, symBinAddr: 0x1000048F0, symSize: 0x20 }
  - { offsetInCU: 0xFC53, offset: 0xFC53, size: 0x8, addend: 0x0, symName: __ZSt19__iterator_categoryIPKcENSt15iterator_traitsIT_E17iterator_categoryERKS3_, symObjAddr: 0x994, symBinAddr: 0x100004910, symSize: 0x14 }
  - { offsetInCU: 0xFCF4, offset: 0xFCF4, size: 0x8, addend: 0x0, symName: __ZSt8_DestroyIPSt10unique_ptrI15LiteratureEntrySt14default_deleteIS1_EES4_EvT_S6_RSaIT0_E, symObjAddr: 0x948, symBinAddr: 0x1000048C4, symSize: 0x2C }
  - { offsetInCU: 0xFCFC, offset: 0xFCFC, size: 0x8, addend: 0x0, symName: __ZN9__gnu_cxx17__is_null_pointerIKcEEbPT_, symObjAddr: 0x974, symBinAddr: 0x1000048F0, symSize: 0x20 }
  - { offsetInCU: 0xFCBA, offset: 0xFCBA, size: 0x8, addend: 0x0, symName: __ZNSt12_Vector_baseISt10unique_ptrI15LiteratureEntrySt14default_deleteIS1_EESaIS4_EE19_M_get_Tp_allocatorEv, symObjAddr: 0x934, symBinAddr: 0x1000048B0, symSize: 0x14 }
  - { offsetInCU: 0xFCC2, offset: 0xFCC2, size: 0x8, addend: 0x0, symName: __ZSt8_DestroyIPSt10unique_ptrI15LiteratureEntrySt14default_deleteIS1_EES4_EvT_S6_RSaIT0_E, symObjAddr: 0x948, symBinAddr: 0x1000048C4, symSize: 0x2C }
  - { offsetInCU: 0xFD69, offset: 0xFD69, size: 0x8, addend: 0x0, symName: __ZNSt12_Vector_baseISt10unique_ptrI15LiteratureEntrySt14default_deleteIS1_EESaIS4_EED2Ev, symObjAddr: 0x8E4, symBinAddr: 0x100004860, symSize: 0x50 }
  - { offsetInCU: 0xFD71, offset: 0xFD71, size: 0x8, addend: 0x0, symName: __ZNSt12_Vector_baseISt10unique_ptrI15LiteratureEntrySt14default_deleteIS1_EESaIS4_EE19_M_get_Tp_allocatorEv, symObjAddr: 0x934, symBinAddr: 0x1000048B0, symSize: 0x14 }
  - { offsetInCU: 0xFDCF, offset: 0xFDCF, size: 0x8, addend: 0x0, symName: __ZNSt12_Vector_baseISt10unique_ptrI15LiteratureEntrySt14default_deleteIS1_EESaIS4_EE12_Vector_implD1Ev, symObjAddr: 0x8C4, symBinAddr: 0x100004840, symSize: 0x20 }
  - { offsetInCU: 0xFDD7, offset: 0xFDD7, size: 0x8, addend: 0x0, symName: __ZNSt12_Vector_baseISt10unique_ptrI15LiteratureEntrySt14default_deleteIS1_EESaIS4_EED2Ev, symObjAddr: 0x8E4, symBinAddr: 0x100004860, symSize: 0x50 }
  - { offsetInCU: 0xFD96, offset: 0xFD96, size: 0x8, addend: 0x0, symName: __ZNSt8_Rb_treeINSt7__cxx1112basic_stringIcSt11char_traitsIcESaIcEEES5_St9_IdentityIS5_ESt4lessIS5_ESaIS5_EE22_M_insert_range_uniqueIPKS5_EENSt9enable_ifIXsrSt7is_sameIS5_NSt15iterator_traitsIT_E10value_typeEE5valueEvE4typeESI_SI_, symObjAddr: 0x844, symBinAddr: 0x1000047C0, symSize: 0x80 }
  - { offsetInCU: 0xFD9E, offset: 0xFD9E, size: 0x8, addend: 0x0, symName: __ZNSt12_Vector_baseISt10unique_ptrI15LiteratureEntrySt14default_deleteIS1_EESaIS4_EE12_Vector_implD1Ev, symObjAddr: 0x8C4, symBinAddr: 0x100004840, symSize: 0x20 }
  - { offsetInCU: 0xFE0E, offset: 0xFE0E, size: 0x8, addend: 0x0, symName: __ZNKSt16initializer_listINSt7__cxx1112basic_stringIcSt11char_traitsIcESaIcEEEE3endEv, symObjAddr: 0x80C, symBinAddr: 0x100004788, symSize: 0x38 }
  - { offsetInCU: 0xFE16, offset: 0xFE16, size: 0x8, addend: 0x0, symName: __ZNSt8_Rb_treeINSt7__cxx1112basic_stringIcSt11char_traitsIcESaIcEEES5_St9_IdentityIS5_ESt4lessIS5_ESaIS5_EE22_M_insert_range_uniqueIPKS5_EENSt9enable_ifIXsrSt7is_sameIS5_NSt15iterator_traitsIT_E10value_typeEE5valueEvE4typeESI_SI_, symObjAddr: 0x844, symBinAddr: 0x1000047C0, symSize: 0x80 }
  - { offsetInCU: 0xFE3D, offset: 0xFE3D, size: 0x8, addend: 0x0, symName: __ZNKSt16initializer_listINSt7__cxx1112basic_stringIcSt11char_traitsIcESaIcEEEE5beginEv, symObjAddr: 0x7F4, symBinAddr: 0x100004770, symSize: 0x18 }
  - { offsetInCU: 0xFE45, offset: 0xFE45, size: 0x8, addend: 0x0, symName: __ZNKSt16initializer_listINSt7__cxx1112basic_stringIcSt11char_traitsIcESaIcEEEE3endEv, symObjAddr: 0x80C, symBinAddr: 0x100004788, symSize: 0x38 }
  - { offsetInCU: 0xFF03, offset: 0xFF03, size: 0x8, addend: 0x0, symName: __ZNSt8_Rb_treeINSt7__cxx1112basic_stringIcSt11char_traitsIcESaIcEEES5_St9_IdentityIS5_ESt4lessIS5_ESaIS5_EED1Ev, symObjAddr: 0x7C0, symBinAddr: 0x10000473C, symSize: 0x34 }
  - { offsetInCU: 0xFF0B, offset: 0xFF0B, size: 0x8, addend: 0x0, symName: __ZNKSt16initializer_listINSt7__cxx1112basic_stringIcSt11char_traitsIcESaIcEEEE5beginEv, symObjAddr: 0x7F4, symBinAddr: 0x100004770, symSize: 0x18 }
  - { offsetInCU: 0xFF75, offset: 0xFF75, size: 0x8, addend: 0x0, symName: __ZNSt8_Rb_treeINSt7__cxx1112basic_stringIcSt11char_traitsIcESaIcEEES5_St9_IdentityIS5_ESt4lessIS5_ESaIS5_EEC1ERKS9_RKSA_, symObjAddr: 0x758, symBinAddr: 0x1000046D4, symSize: 0x68 }
  - { offsetInCU: 0xFF7D, offset: 0xFF7D, size: 0x8, addend: 0x0, symName: __ZNSt8_Rb_treeINSt7__cxx1112basic_stringIcSt11char_traitsIcESaIcEEES5_St9_IdentityIS5_ESt4lessIS5_ESaIS5_EED1Ev, symObjAddr: 0x7C0, symBinAddr: 0x10000473C, symSize: 0x34 }
  - { offsetInCU: 0xFFF5, offset: 0xFFF5, size: 0x8, addend: 0x0, symName: __ZNSt8_Rb_treeINSt7__cxx1112basic_stringIcSt11char_traitsIcESaIcEEES5_St9_IdentityIS5_ESt4lessIS5_ESaIS5_EE13_Rb_tree_implIS9_Lb1EED1Ev, symObjAddr: 0x738, symBinAddr: 0x1000046B4, symSize: 0x20 }
  - { offsetInCU: 0xFFFD, offset: 0xFFFD, size: 0x8, addend: 0x0, symName: __ZNSt8_Rb_treeINSt7__cxx1112basic_stringIcSt11char_traitsIcESaIcEEES5_St9_IdentityIS5_ESt4lessIS5_ESaIS5_EEC1ERKS9_RKSA_, symObjAddr: 0x758, symBinAddr: 0x1000046D4, symSize: 0x68 }
  - { offsetInCU: 0x10008, offset: 0x10008, size: 0x8, addend: 0x0, symName: __ZNSaINSt7__cxx1112basic_stringIcSt11char_traitsIcESaIcEEEEC1ERKS5_, symObjAddr: 0x710, symBinAddr: 0x10000468C, symSize: 0x28 }
  - { offsetInCU: 0x10010, offset: 0x10010, size: 0x8, addend: 0x0, symName: __ZNSt8_Rb_treeINSt7__cxx1112basic_stringIcSt11char_traitsIcESaIcEEES5_St9_IdentityIS5_ESt4lessIS5_ESaIS5_EE13_Rb_tree_implIS9_Lb1EED1Ev, symObjAddr: 0x738, symBinAddr: 0x1000046B4, symSize: 0x20 }
  - { offsetInCU: 0x1007C, offset: 0x1007C, size: 0x8, addend: 0x0, symName: __ZN9__gnu_cxx13new_allocatorINSt7__cxx1112basic_stringIcSt11char_traitsIcESaIcEEEED2Ev, symObjAddr: 0x6FC, symBinAddr: 0x100004678, symSize: 0x14 }
  - { offsetInCU: 0x10084, offset: 0x10084, size: 0x8, addend: 0x0, symName: __ZNSaINSt7__cxx1112basic_stringIcSt11char_traitsIcESaIcEEEEC1ERKS5_, symObjAddr: 0x710, symBinAddr: 0x10000468C, symSize: 0x28 }
  - { offsetInCU: 0x100C3, offset: 0x100C3, size: 0x8, addend: 0x0, symName: __ZN9__gnu_cxx13new_allocatorINSt7__cxx1112basic_stringIcSt11char_traitsIcESaIcEEEEC2Ev, symObjAddr: 0x6E8, symBinAddr: 0x100004664, symSize: 0x14 }
  - { offsetInCU: 0x100CB, offset: 0x100CB, size: 0x8, addend: 0x0, symName: __ZN9__gnu_cxx13new_allocatorINSt7__cxx1112basic_stringIcSt11char_traitsIcESaIcEEEED2Ev, symObjAddr: 0x6FC, symBinAddr: 0x100004678, symSize: 0x14 }
  - { offsetInCU: 0x1009A, offset: 0x1009A, size: 0x8, addend: 0x0, symName: __ZNKSt14default_deleteI15LiteratureEntryEclEPS0_, symObjAddr: 0x6B0, symBinAddr: 0x10000462C, symSize: 0x38 }
  - { offsetInCU: 0x100A2, offset: 0x100A2, size: 0x8, addend: 0x0, symName: __ZN9__gnu_cxx13new_allocatorINSt7__cxx1112basic_stringIcSt11char_traitsIcESaIcEEEEC2Ev, symObjAddr: 0x6E8, symBinAddr: 0x100004664, symSize: 0x14 }
  - { offsetInCU: 0x1013B, offset: 0x1013B, size: 0x8, addend: 0x0, symName: __ZSt4moveIRP15LiteratureEntryEONSt16remove_referenceIT_E4typeEOS4_, symObjAddr: 0x69C, symBinAddr: 0x100004618, symSize: 0x14 }
  - { offsetInCU: 0x10143, offset: 0x10143, size: 0x8, addend: 0x0, symName: __ZNKSt14default_deleteI15LiteratureEntryEclEPS0_, symObjAddr: 0x6B0, symBinAddr: 0x10000462C, symSize: 0x38 }
  - { offsetInCU: 0x10130, offset: 0x10130, size: 0x8, addend: 0x0, symName: __ZNSt10unique_ptrI15LiteratureEntrySt14default_deleteIS0_EE11get_deleterEv, symObjAddr: 0x680, symBinAddr: 0x1000045FC, symSize: 0x1C }
  - { offsetInCU: 0x10138, offset: 0x10138, size: 0x8, addend: 0x0, symName: __ZSt4moveIRP15LiteratureEntryEONSt16remove_referenceIT_E4typeEOS4_, symObjAddr: 0x69C, symBinAddr: 0x100004618, symSize: 0x14 }
  - { offsetInCU: 0x1015F, offset: 0x1015F, size: 0x8, addend: 0x0, symName: __ZNSt15__uniq_ptr_implI15LiteratureEntrySt14default_deleteIS0_EE6_M_ptrEv, symObjAddr: 0x664, symBinAddr: 0x1000045E0, symSize: 0x1C }
  - { offsetInCU: 0x10167, offset: 0x10167, size: 0x8, addend: 0x0, symName: __ZNSt10unique_ptrI15LiteratureEntrySt14default_deleteIS0_EE11get_deleterEv, symObjAddr: 0x680, symBinAddr: 0x1000045FC, symSize: 0x1C }
  - { offsetInCU: 0x1018E, offset: 0x1018E, size: 0x8, addend: 0x0, symName: __ZNSt7__cxx1112basic_stringIcSt11char_traitsIcESaIcEE12_M_constructIPKcEEvT_S8_St20forward_iterator_tag, symObjAddr: 0x564, symBinAddr: 0x1000044E0, symSize: 0x100 }
  - { offsetInCU: 0x10196, offset: 0x10196, size: 0x8, addend: 0x0, symName: __ZNSt15__uniq_ptr_implI15LiteratureEntrySt14default_deleteIS0_EE6_M_ptrEv, symObjAddr: 0x664, symBinAddr: 0x1000045E0, symSize: 0x1C }
  - { offsetInCU: 0x1026C, offset: 0x1026C, size: 0x8, addend: 0x0, symName: __ZSt8distanceIPKcENSt15iterator_traitsIT_E15difference_typeES3_S3_, symObjAddr: 0x528, symBinAddr: 0x1000044A4, symSize: 0x3C }
  - { offsetInCU: 0x10274, offset: 0x10274, size: 0x8, addend: 0x0, symName: __ZNSt7__cxx1112basic_stringIcSt11char_traitsIcESaIcEE12_M_constructIPKcEEvT_S8_St20forward_iterator_tag, symObjAddr: 0x564, symBinAddr: 0x1000044E0, symSize: 0x100 }
  - { offsetInCU: 0x102E5, offset: 0x102E5, size: 0x8, addend: 0x0, symName: __ZNSt6vectorISt10unique_ptrI15LiteratureEntrySt14default_deleteIS1_EESaIS4_EED1Ev, symObjAddr: 0x4D8, symBinAddr: 0x100004454, symSize: 0x50 }
  - { offsetInCU: 0x102ED, offset: 0x102ED, size: 0x8, addend: 0x0, symName: __ZSt8distanceIPKcENSt15iterator_traitsIT_E15difference_typeES3_S3_, symObjAddr: 0x528, symBinAddr: 0x1000044A4, symSize: 0x3C }
  - { offsetInCU: 0x10383, offset: 0x10383, size: 0x8, addend: 0x0, symName: __ZNSt3setINSt7__cxx1112basic_stringIcSt11char_traitsIcESaIcEEESt4lessIS5_ESaIS5_EEC1ESt16initializer_listIS5_ERKS7_RKS8_, symObjAddr: 0x430, symBinAddr: 0x1000043AC, symSize: 0xA8 }
  - { offsetInCU: 0x1038B, offset: 0x1038B, size: 0x8, addend: 0x0, symName: __ZNSt6vectorISt10unique_ptrI15LiteratureEntrySt14default_deleteIS1_EESaIS4_EED1Ev, symObjAddr: 0x4D8, symBinAddr: 0x100004454, symSize: 0x50 }
  - { offsetInCU: 0x103C3, offset: 0x103C3, size: 0x8, addend: 0x0, symName: __ZNSaINSt7__cxx1112basic_stringIcSt11char_traitsIcESaIcEEEED1Ev, symObjAddr: 0x410, symBinAddr: 0x10000438C, symSize: 0x20 }
  - { offsetInCU: 0x103CB, offset: 0x103CB, size: 0x8, addend: 0x0, symName: __ZNSt3setINSt7__cxx1112basic_stringIcSt11char_traitsIcESaIcEEESt4lessIS5_ESaIS5_EEC1ESt16initializer_listIS5_ERKS7_RKS8_, symObjAddr: 0x430, symBinAddr: 0x1000043AC, symSize: 0xA8 }
  - { offsetInCU: 0x1040A, offset: 0x1040A, size: 0x8, addend: 0x0, symName: __ZNSaINSt7__cxx1112basic_stringIcSt11char_traitsIcESaIcEEEEC1Ev, symObjAddr: 0x3F0, symBinAddr: 0x10000436C, symSize: 0x20 }
  - { offsetInCU: 0x10412, offset: 0x10412, size: 0x8, addend: 0x0, symName: __ZNSaINSt7__cxx1112basic_stringIcSt11char_traitsIcESaIcEEEED1Ev, symObjAddr: 0x410, symBinAddr: 0x10000438C, symSize: 0x20 }
  - { offsetInCU: 0x10472, offset: 0x10472, size: 0x8, addend: 0x0, symName: __ZNSt10unique_ptrI15LiteratureEntrySt14default_deleteIS0_EED1Ev, symObjAddr: 0x388, symBinAddr: 0x100004304, symSize: 0x68 }
  - { offsetInCU: 0x1047A, offset: 0x1047A, size: 0x8, addend: 0x0, symName: __ZNSaINSt7__cxx1112basic_stringIcSt11char_traitsIcESaIcEEEEC1Ev, symObjAddr: 0x3F0, symBinAddr: 0x10000436C, symSize: 0x20 }
  - { offsetInCU: 0x1052D, offset: 0x1052D, size: 0x8, addend: 0x0, symName: __ZNSt7__cxx1112basic_stringIcSt11char_traitsIcESaIcEEC1IS3_EEPKcRKS3_, symObjAddr: 0x2F0, symBinAddr: 0x10000426C, symSize: 0x98 }
  - { offsetInCU: 0x10535, offset: 0x10535, size: 0x8, addend: 0x0, symName: __ZNSt10unique_ptrI15LiteratureEntrySt14default_deleteIS0_EED1Ev, symObjAddr: 0x388, symBinAddr: 0x100004304, symSize: 0x68 }
  - { offsetInCU: 0x105D8, offset: 0x105D8, size: 0x8, addend: 0x0, symName: __ZNSt7__cxx1112basic_stringIcSt11char_traitsIcESaIcEE12_Alloc_hiderD1Ev, symObjAddr: 0x2D0, symBinAddr: 0x10000424C, symSize: 0x20 }
  - { offsetInCU: 0x105E0, offset: 0x105E0, size: 0x8, addend: 0x0, symName: __ZNSt7__cxx1112basic_stringIcSt11char_traitsIcESaIcEEC1IS3_EEPKcRKS3_, symObjAddr: 0x2F0, symBinAddr: 0x10000426C, symSize: 0x98 }
  - { offsetInCU: 0x105BE, offset: 0x105BE, size: 0x8, addend: 0x0, symName: __ZN9__gnu_cxx11char_traitsIcE6lengthEPKc, symObjAddr: 0x278, symBinAddr: 0x1000041F4, symSize: 0x58 }
  - { offsetInCU: 0x105C6, offset: 0x105C6, size: 0x8, addend: 0x0, symName: __ZNSt7__cxx1112basic_stringIcSt11char_traitsIcESaIcEE12_Alloc_hiderD1Ev, symObjAddr: 0x2D0, symBinAddr: 0x10000424C, symSize: 0x20 }
  - { offsetInCU: 0x10602, offset: 0x10602, size: 0x8, addend: 0x0, symName: __ZN9__gnu_cxx11char_traitsIcE2eqERKcS3_, symObjAddr: 0x248, symBinAddr: 0x1000041C4, symSize: 0x30 }
  - { offsetInCU: 0x1060A, offset: 0x1060A, size: 0x8, addend: 0x0, symName: __ZN9__gnu_cxx11char_traitsIcE6lengthEPKc, symObjAddr: 0x278, symBinAddr: 0x1000041F4, symSize: 0x58 }
  - { offsetInCU: 0x10650, offset: 0x10650, size: 0x8, addend: 0x0, symName: _main, symObjAddr: 0xF4, symBinAddr: 0x100004070, symSize: 0x154 }
  - { offsetInCU: 0x10658, offset: 0x10658, size: 0x8, addend: 0x0, symName: __ZN9__gnu_cxx11char_traitsIcE2eqERKcS3_, symObjAddr: 0x248, symBinAddr: 0x1000041C4, symSize: 0x30 }
  - { offsetInCU: 0x1072A, offset: 0x1072A, size: 0x8, addend: 0x0, symName: __ZN18LiteratureDatabaseD1Ev, symObjAddr: 0xD4, symBinAddr: 0x100004050, symSize: 0x20 }
  - { offsetInCU: 0x10732, offset: 0x10732, size: 0x8, addend: 0x0, symName: _main, symObjAddr: 0xF4, symBinAddr: 0x100004070, symSize: 0x154 }
  - { offsetInCU: 0x1073C, offset: 0x1073C, size: 0x8, addend: 0x0, symName: __ZNSt15_Rb_tree_header8_M_resetEv, symObjAddr: 0x98, symBinAddr: 0x100004014, symSize: 0x3C }
  - { offsetInCU: 0x10744, offset: 0x10744, size: 0x8, addend: 0x0, symName: __ZN18LiteratureDatabaseD1Ev, symObjAddr: 0xD4, symBinAddr: 0x100004050, symSize: 0x20 }
  - { offsetInCU: 0x1079F, offset: 0x1079F, size: 0x8, addend: 0x0, symName: __ZNSt15_Rb_tree_headerC2Ev, symObjAddr: 0x70, symBinAddr: 0x100003FEC, symSize: 0x28 }
  - { offsetInCU: 0x107A7, offset: 0x107A7, size: 0x8, addend: 0x0, symName: __ZNSt15_Rb_tree_header8_M_resetEv, symObjAddr: 0x98, symBinAddr: 0x100004014, symSize: 0x3C }
  - { offsetInCU: 0x107B2, offset: 0x107B2, size: 0x8, addend: 0x0, symName: __ZNSt11char_traitsIcE6lengthEPKc, symObjAddr: 0x30, symBinAddr: 0x100003FAC, symSize: 0x40 }
  - { offsetInCU: 0x107BA, offset: 0x107BA, size: 0x8, addend: 0x0, symName: __ZNSt15_Rb_tree_headerC2Ev, symObjAddr: 0x70, symBinAddr: 0x100003FEC, symSize: 0x28 }
  - { offsetInCU: 0x1084E, offset: 0x1084E, size: 0x8, addend: 0x0, symName: __ZdlPvS_, symObjAddr: 0x18, symBinAddr: 0x100003F94, symSize: 0x18 }
  - { offsetInCU: 0x10856, offset: 0x10856, size: 0x8, addend: 0x0, symName: __ZNSt11char_traitsIcE6lengthEPKc, symObjAddr: 0x30, symBinAddr: 0x100003FAC, symSize: 0x40 }
  - { offsetInCU: 0x1088B, offset: 0x1088B, size: 0x8, addend: 0x0, symName: __ZnwmPv, symObjAddr: 0x0, symBinAddr: 0x100003F7C, symSize: 0x18 }
  - { offsetInCU: 0x10893, offset: 0x10893, size: 0x8, addend: 0x0, symName: __ZdlPvS_, symObjAddr: 0x18, symBinAddr: 0x100003F94, symSize: 0x18 }
  - { offsetInCU: 0xE5, offset: 0x109B1, size: 0x8, addend: 0x0, symName: __ZN9__gnu_cxxL21__default_lock_policyE, symObjAddr: 0x3498, symBinAddr: 0x10001F750, symSize: 0x0 }
  - { offsetInCU: 0x5465, offset: 0x15D31, size: 0x8, addend: 0x0, symName: __ZStL8__ioinit, symObjAddr: 0x40FA8, symBinAddr: 0x1000350A0, symSize: 0x0 }
  - { offsetInCU: 0x5513, offset: 0x15DDF, size: 0x8, addend: 0x0, symName: __ZN9__gnu_cxxL21__default_lock_policyE, symObjAddr: 0x3498, symBinAddr: 0x10001F750, symSize: 0x0 }
  - { offsetInCU: 0x557B, offset: 0x15E47, size: 0x8, addend: 0x0, symName: __ZN6__pstl9execution2v1L3seqE, symObjAddr: 0x349C, symBinAddr: 0x10001F754, symSize: 0x0 }
  - { offsetInCU: 0x5595, offset: 0x15E61, size: 0x8, addend: 0x0, symName: __ZN6__pstl9execution2v1L3parE, symObjAddr: 0x349D, symBinAddr: 0x10001F755, symSize: 0x0 }
  - { offsetInCU: 0x55B5, offset: 0x15E81, size: 0x8, addend: 0x0, symName: __ZN6__pstl9execution2v1L9par_unseqE, symObjAddr: 0x349E, symBinAddr: 0x10001F756, symSize: 0x0 }
  - { offsetInCU: 0x55CB, offset: 0x15E97, size: 0x8, addend: 0x0, symName: __ZN6__pstl9execution2v1L5unseqE, symObjAddr: 0x349F, symBinAddr: 0x10001F757, symSize: 0x0 }
  - { offsetInCU: 0x9175, offset: 0x19A41, size: 0x8, addend: 0x0, symName: __GLOBAL__sub_I_LiteratureEntry.cpp, symObjAddr: 0x347C, symBinAddr: 0x1000093E0, symSize: 0x1C }
  - { offsetInCU: 0x917D, offset: 0x19A49, size: 0x8, addend: 0x0, symName: __ZN9__gnu_cxxL21__default_lock_policyE, symObjAddr: 0x3498, symBinAddr: 0x10001F750, symSize: 0x0 }
  - { offsetInCU: 0x9196, offset: 0x19A62, size: 0x8, addend: 0x0, symName: __Z41__static_initialization_and_destruction_0ii, symObjAddr: 0x341C, symBinAddr: 0x100009380, symSize: 0x60 }
  - { offsetInCU: 0x919E, offset: 0x19A6A, size: 0x8, addend: 0x0, symName: __GLOBAL__sub_I_LiteratureEntry.cpp, symObjAddr: 0x347C, symBinAddr: 0x1000093E0, symSize: 0x1C }
  - { offsetInCU: 0x91AF, offset: 0x19A7B, size: 0x8, addend: 0x0, symName: __ZN9__gnu_cxx13new_allocatorINSt7__cxx1112basic_stringIcSt11char_traitsIcESaIcEEEE9constructIS6_JS6_EEEvPT_DpOT0_, symObjAddr: 0x33D0, symBinAddr: 0x100009334, symSize: 0x4C }
  - { offsetInCU: 0x91B7, offset: 0x19A83, size: 0x8, addend: 0x0, symName: __Z41__static_initialization_and_destruction_0ii, symObjAddr: 0x341C, symBinAddr: 0x100009380, symSize: 0x60 }
  - { offsetInCU: 0x92B4, offset: 0x19B80, size: 0x8, addend: 0x0, symName: __ZSt7forwardINSt7__cxx1112basic_stringIcSt11char_traitsIcESaIcEEEEOT_RNSt16remove_referenceIS6_E4typeE, symObjAddr: 0x33BC, symBinAddr: 0x100009320, symSize: 0x14 }
  - { offsetInCU: 0x92BC, offset: 0x19B88, size: 0x8, addend: 0x0, symName: __ZN9__gnu_cxx13new_allocatorINSt7__cxx1112basic_stringIcSt11char_traitsIcESaIcEEEE9constructIS6_JS6_EEEvPT_DpOT0_, symObjAddr: 0x33D0, symBinAddr: 0x100009334, symSize: 0x4C }
  - { offsetInCU: 0x9272, offset: 0x19B3E, size: 0x8, addend: 0x0, symName: __ZNSt16allocator_traitsISaINSt7__cxx1112basic_stringIcSt11char_traitsIcESaIcEEEEE9constructIS5_JS5_EEEvRS6_PT_DpOT0_, symObjAddr: 0x3384, symBinAddr: 0x1000092E8, symSize: 0x38 }
  - { offsetInCU: 0x927A, offset: 0x19B46, size: 0x8, addend: 0x0, symName: __ZSt7forwardINSt7__cxx1112basic_stringIcSt11char_traitsIcESaIcEEEEOT_RNSt16remove_referenceIS6_E4typeE, symObjAddr: 0x33BC, symBinAddr: 0x100009320, symSize: 0x14 }
  - { offsetInCU: 0x92E6, offset: 0x19BB2, size: 0x8, addend: 0x0, symName: __ZNSt11__copy_moveILb1ELb0ESt26random_access_iterator_tagE8__copy_mIPNSt7__cxx1112basic_stringIcSt11char_traitsIcESaIcEEES9_EET0_T_SB_SA_, symObjAddr: 0x3308, symBinAddr: 0x10000926C, symSize: 0x7C }
  - { offsetInCU: 0x92EE, offset: 0x19BBA, size: 0x8, addend: 0x0, symName: __ZNSt16allocator_traitsISaINSt7__cxx1112basic_stringIcSt11char_traitsIcESaIcEEEEE9constructIS5_JS5_EEEvRS6_PT_DpOT0_, symObjAddr: 0x3384, symBinAddr: 0x1000092E8, symSize: 0x38 }
  - { offsetInCU: 0x9485, offset: 0x19D51, size: 0x8, addend: 0x0, symName: __ZSt19__relocate_object_aINSt7__cxx1112basic_stringIcSt11char_traitsIcESaIcEEES5_SaIS5_EEvPT_PT0_RT1_, symObjAddr: 0x32BC, symBinAddr: 0x100009220, symSize: 0x4C }
  - { offsetInCU: 0x948D, offset: 0x19D59, size: 0x8, addend: 0x0, symName: __ZNSt11__copy_moveILb1ELb0ESt26random_access_iterator_tagE8__copy_mIPNSt7__cxx1112basic_stringIcSt11char_traitsIcESaIcEEES9_EET0_T_SB_SA_, symObjAddr: 0x3308, symBinAddr: 0x10000926C, symSize: 0x7C }
  - { offsetInCU: 0x9417, offset: 0x19CE3, size: 0x8, addend: 0x0, symName: __ZNK9__gnu_cxx13new_allocatorINSt7__cxx1112basic_stringIcSt11char_traitsIcESaIcEEEE8max_sizeEv, symObjAddr: 0x32A0, symBinAddr: 0x100009204, symSize: 0x1C }
  - { offsetInCU: 0x941F, offset: 0x19CEB, size: 0x8, addend: 0x0, symName: __ZSt19__relocate_object_aINSt7__cxx1112basic_stringIcSt11char_traitsIcESaIcEEES5_SaIS5_EEvPT_PT0_RT1_, symObjAddr: 0x32BC, symBinAddr: 0x100009220, symSize: 0x4C }
  - { offsetInCU: 0x9505, offset: 0x19DD1, size: 0x8, addend: 0x0, symName: __ZSt14__copy_move_a2ILb1EPNSt7__cxx1112basic_stringIcSt11char_traitsIcESaIcEEES6_ET1_T0_S8_S7_, symObjAddr: 0x3274, symBinAddr: 0x1000091D8, symSize: 0x2C }
  - { offsetInCU: 0x950D, offset: 0x19DD9, size: 0x8, addend: 0x0, symName: __ZNK9__gnu_cxx13new_allocatorINSt7__cxx1112basic_stringIcSt11char_traitsIcESaIcEEEE8max_sizeEv, symObjAddr: 0x32A0, symBinAddr: 0x100009204, symSize: 0x1C }
  - { offsetInCU: 0x95C8, offset: 0x19E94, size: 0x8, addend: 0x0, symName: __ZSt14__relocate_a_1IPNSt7__cxx1112basic_stringIcSt11char_traitsIcESaIcEEES6_SaIS5_EET0_T_S9_S8_RT1_, symObjAddr: 0x31F0, symBinAddr: 0x100009154, symSize: 0x84 }
  - { offsetInCU: 0x95D0, offset: 0x19E9C, size: 0x8, addend: 0x0, symName: __ZSt14__copy_move_a2ILb1EPNSt7__cxx1112basic_stringIcSt11char_traitsIcESaIcEEES6_ET1_T0_S8_S7_, symObjAddr: 0x3274, symBinAddr: 0x1000091D8, symSize: 0x2C }
  - { offsetInCU: 0x960F, offset: 0x19EDB, size: 0x8, addend: 0x0, symName: __ZSt12__niter_baseIPNSt7__cxx1112basic_stringIcSt11char_traitsIcESaIcEEEET_S7_, symObjAddr: 0x31DC, symBinAddr: 0x100009140, symSize: 0x14 }
  - { offsetInCU: 0x9617, offset: 0x19EE3, size: 0x8, addend: 0x0, symName: __ZSt14__relocate_a_1IPNSt7__cxx1112basic_stringIcSt11char_traitsIcESaIcEEES6_SaIS5_EET0_T_S9_S8_RT1_, symObjAddr: 0x31F0, symBinAddr: 0x100009154, symSize: 0x84 }
  - { offsetInCU: 0x95D7, offset: 0x19EA3, size: 0x8, addend: 0x0, symName: __ZNSt16allocator_traitsISaINSt7__cxx1112basic_stringIcSt11char_traitsIcESaIcEEEEE8max_sizeERKS6_, symObjAddr: 0x31C0, symBinAddr: 0x100009124, symSize: 0x1C }
  - { offsetInCU: 0x95DF, offset: 0x19EAB, size: 0x8, addend: 0x0, symName: __ZSt12__niter_baseIPNSt7__cxx1112basic_stringIcSt11char_traitsIcESaIcEEEET_S7_, symObjAddr: 0x31DC, symBinAddr: 0x100009140, symSize: 0x14 }
  - { offsetInCU: 0x9609, offset: 0x19ED5, size: 0x8, addend: 0x0, symName: __ZNSt10_Head_baseILm0EPSt6vectorINSt7__cxx1112basic_stringIcSt11char_traitsIcESaIcEEESaIS6_EELb0EE7_M_headERKSA_, symObjAddr: 0x31AC, symBinAddr: 0x100009110, symSize: 0x14 }
  - { offsetInCU: 0x9611, offset: 0x19EDD, size: 0x8, addend: 0x0, symName: __ZNSt16allocator_traitsISaINSt7__cxx1112basic_stringIcSt11char_traitsIcESaIcEEEEE8max_sizeERKS6_, symObjAddr: 0x31C0, symBinAddr: 0x100009124, symSize: 0x1C }
  - { offsetInCU: 0x963A, offset: 0x19F06, size: 0x8, addend: 0x0, symName: __ZNSt10_Head_baseILm1ESt14default_deleteISt6vectorINSt7__cxx1112basic_stringIcSt11char_traitsIcESaIcEEESaIS7_EEELb1EE7_M_headERSB_, symObjAddr: 0x3198, symBinAddr: 0x1000090FC, symSize: 0x14 }
  - { offsetInCU: 0x9642, offset: 0x19F0E, size: 0x8, addend: 0x0, symName: __ZNSt10_Head_baseILm0EPSt6vectorINSt7__cxx1112basic_stringIcSt11char_traitsIcESaIcEEESaIS6_EELb0EE7_M_headERKSA_, symObjAddr: 0x31AC, symBinAddr: 0x100009110, symSize: 0x14 }
  - { offsetInCU: 0x966B, offset: 0x19F37, size: 0x8, addend: 0x0, symName: __ZNSt10_Head_baseILm0EPSt6vectorINSt7__cxx1112basic_stringIcSt11char_traitsIcESaIcEEESaIS6_EELb0EE7_M_headERSA_, symObjAddr: 0x3184, symBinAddr: 0x1000090E8, symSize: 0x14 }
  - { offsetInCU: 0x9673, offset: 0x19F3F, size: 0x8, addend: 0x0, symName: __ZNSt10_Head_baseILm1ESt14default_deleteISt6vectorINSt7__cxx1112basic_stringIcSt11char_traitsIcESaIcEEESaIS7_EEELb1EE7_M_headERSB_, symObjAddr: 0x3198, symBinAddr: 0x1000090FC, symSize: 0x14 }
  - { offsetInCU: 0x97CE, offset: 0x1A09A, size: 0x8, addend: 0x0, symName: __ZSt12__niter_wrapIN9__gnu_cxx17__normal_iteratorIPNSt7__cxx1112basic_stringIcSt11char_traitsIcESaIcEEESt6vectorIS7_SaIS7_EEEES8_ET_SD_T0_, symObjAddr: 0x3148, symBinAddr: 0x1000090AC, symSize: 0x3C }
  - { offsetInCU: 0x97D6, offset: 0x1A0A2, size: 0x8, addend: 0x0, symName: __ZNSt10_Head_baseILm0EPSt6vectorINSt7__cxx1112basic_stringIcSt11char_traitsIcESaIcEEESaIS6_EELb0EE7_M_headERSA_, symObjAddr: 0x3184, symBinAddr: 0x1000090E8, symSize: 0x14 }
  - { offsetInCU: 0x97C8, offset: 0x1A094, size: 0x8, addend: 0x0, symName: __ZSt14__copy_move_a1ILb1EPNSt7__cxx1112basic_stringIcSt11char_traitsIcESaIcEEES6_ET1_T0_S8_S7_, symObjAddr: 0x311C, symBinAddr: 0x100009080, symSize: 0x2C }
  - { offsetInCU: 0x97D0, offset: 0x1A09C, size: 0x8, addend: 0x0, symName: __ZSt12__niter_wrapIN9__gnu_cxx17__normal_iteratorIPNSt7__cxx1112basic_stringIcSt11char_traitsIcESaIcEEESt6vectorIS7_SaIS7_EEEES8_ET_SD_T0_, symObjAddr: 0x3148, symBinAddr: 0x1000090AC, symSize: 0x3C }
  - { offsetInCU: 0x9886, offset: 0x1A152, size: 0x8, addend: 0x0, symName: __ZSt12__niter_baseIPNSt7__cxx1112basic_stringIcSt11char_traitsIcESaIcEEESt6vectorIS5_SaIS5_EEET_N9__gnu_cxx17__normal_iteratorISA_T0_EE, symObjAddr: 0x30FC, symBinAddr: 0x100009060, symSize: 0x20 }
  - { offsetInCU: 0x988E, offset: 0x1A15A, size: 0x8, addend: 0x0, symName: __ZSt14__copy_move_a1ILb1EPNSt7__cxx1112basic_stringIcSt11char_traitsIcESaIcEEES6_ET1_T0_S8_S7_, symObjAddr: 0x311C, symBinAddr: 0x100009080, symSize: 0x2C }
  - { offsetInCU: 0x98E0, offset: 0x1A1AC, size: 0x8, addend: 0x0, symName: __ZSt12__relocate_aIPNSt7__cxx1112basic_stringIcSt11char_traitsIcESaIcEEES6_SaIS5_EET0_T_S9_S8_RT1_, symObjAddr: 0x30A0, symBinAddr: 0x100009004, symSize: 0x5C }
  - { offsetInCU: 0x98E8, offset: 0x1A1B4, size: 0x8, addend: 0x0, symName: __ZSt12__niter_baseIPNSt7__cxx1112basic_stringIcSt11char_traitsIcESaIcEEESt6vectorIS5_SaIS5_EEET_N9__gnu_cxx17__normal_iteratorISA_T0_EE, symObjAddr: 0x30FC, symBinAddr: 0x100009060, symSize: 0x20 }
  - { offsetInCU: 0x9893, offset: 0x1A15F, size: 0x8, addend: 0x0, symName: __ZN9__gnu_cxx13new_allocatorINSt7__cxx1112basic_stringIcSt11char_traitsIcESaIcEEEE8allocateEmPKv, symObjAddr: 0x3028, symBinAddr: 0x100008F8C, symSize: 0x78 }
  - { offsetInCU: 0x989B, offset: 0x1A167, size: 0x8, addend: 0x0, symName: __ZSt12__relocate_aIPNSt7__cxx1112basic_stringIcSt11char_traitsIcESaIcEEES6_SaIS5_EET0_T_S9_S8_RT1_, symObjAddr: 0x30A0, symBinAddr: 0x100009004, symSize: 0x5C }
  - { offsetInCU: 0x98F3, offset: 0x1A1BF, size: 0x8, addend: 0x0, symName: __ZNK9__gnu_cxx13new_allocatorINSt7__cxx1112basic_stringIcSt11char_traitsIcESaIcEEEE11_M_max_sizeEv, symObjAddr: 0x3014, symBinAddr: 0x100008F78, symSize: 0x14 }
  - { offsetInCU: 0x98FB, offset: 0x1A1C7, size: 0x8, addend: 0x0, symName: __ZN9__gnu_cxx13new_allocatorINSt7__cxx1112basic_stringIcSt11char_traitsIcESaIcEEEE8allocateEmPKv, symObjAddr: 0x3028, symBinAddr: 0x100008F8C, symSize: 0x78 }
  - { offsetInCU: 0x9922, offset: 0x1A1EE, size: 0x8, addend: 0x0, symName: __ZNSt6vectorINSt7__cxx1112basic_stringIcSt11char_traitsIcESaIcEEESaIS5_EE11_S_max_sizeERKS6_, symObjAddr: 0x2FDC, symBinAddr: 0x100008F40, symSize: 0x38 }
  - { offsetInCU: 0x992A, offset: 0x1A1F6, size: 0x8, addend: 0x0, symName: __ZNK9__gnu_cxx13new_allocatorINSt7__cxx1112basic_stringIcSt11char_traitsIcESaIcEEEE11_M_max_sizeEv, symObjAddr: 0x3014, symBinAddr: 0x100008F78, symSize: 0x14 }
  - { offsetInCU: 0x997C, offset: 0x1A248, size: 0x8, addend: 0x0, symName: __ZNSt11_Tuple_implILm0EJPSt6vectorINSt7__cxx1112basic_stringIcSt11char_traitsIcESaIcEEESaIS6_EESt14default_deleteIS8_EEE7_M_headERKSC_, symObjAddr: 0x2FC0, symBinAddr: 0x100008F24, symSize: 0x1C }
  - { offsetInCU: 0x9984, offset: 0x1A250, size: 0x8, addend: 0x0, symName: __ZNSt6vectorINSt7__cxx1112basic_stringIcSt11char_traitsIcESaIcEEESaIS5_EE11_S_max_sizeERKS6_, symObjAddr: 0x2FDC, symBinAddr: 0x100008F40, symSize: 0x38 }
  - { offsetInCU: 0x9A22, offset: 0x1A2EE, size: 0x8, addend: 0x0, symName: __ZSt8_DestroyINSt7__cxx1112basic_stringIcSt11char_traitsIcESaIcEEEEvPT_, symObjAddr: 0x2FA0, symBinAddr: 0x100008F04, symSize: 0x20 }
  - { offsetInCU: 0x9A2A, offset: 0x1A2F6, size: 0x8, addend: 0x0, symName: __ZNSt11_Tuple_implILm0EJPSt6vectorINSt7__cxx1112basic_stringIcSt11char_traitsIcESaIcEEESaIS6_EESt14default_deleteIS8_EEE7_M_headERKSC_, symObjAddr: 0x2FC0, symBinAddr: 0x100008F24, symSize: 0x1C }
  - { offsetInCU: 0x9ACD, offset: 0x1A399, size: 0x8, addend: 0x0, symName: __ZSt10_ConstructINSt7__cxx1112basic_stringIcSt11char_traitsIcESaIcEEEJRKS5_EEvPT_DpOT0_, symObjAddr: 0x2F30, symBinAddr: 0x100008E94, symSize: 0x70 }
  - { offsetInCU: 0x9AD5, offset: 0x1A3A1, size: 0x8, addend: 0x0, symName: __ZSt8_DestroyINSt7__cxx1112basic_stringIcSt11char_traitsIcESaIcEEEEvPT_, symObjAddr: 0x2FA0, symBinAddr: 0x100008F04, symSize: 0x20 }
  - { offsetInCU: 0x9A52, offset: 0x1A31E, size: 0x8, addend: 0x0, symName: __ZNK9__gnu_cxx17__normal_iteratorIPKNSt7__cxx1112basic_stringIcSt11char_traitsIcESaIcEEESt6vectorIS6_SaIS6_EEEdeEv, symObjAddr: 0x2F18, symBinAddr: 0x100008E7C, symSize: 0x18 }
  - { offsetInCU: 0x9A5A, offset: 0x1A326, size: 0x8, addend: 0x0, symName: __ZSt10_ConstructINSt7__cxx1112basic_stringIcSt11char_traitsIcESaIcEEEJRKS5_EEvPT_DpOT0_, symObjAddr: 0x2F30, symBinAddr: 0x100008E94, symSize: 0x70 }
  - { offsetInCU: 0x9A81, offset: 0x1A34D, size: 0x8, addend: 0x0, symName: __ZN9__gnu_cxx13new_allocatorINSt7__cxx1112basic_stringIcSt11char_traitsIcESaIcEEEE10deallocateEPS6_m, symObjAddr: 0x2EE8, symBinAddr: 0x100008E4C, symSize: 0x30 }
  - { offsetInCU: 0x9A89, offset: 0x1A355, size: 0x8, addend: 0x0, symName: __ZNK9__gnu_cxx17__normal_iteratorIPKNSt7__cxx1112basic_stringIcSt11char_traitsIcESaIcEEESt6vectorIS6_SaIS6_EEEdeEv, symObjAddr: 0x2F18, symBinAddr: 0x100008E7C, symSize: 0x18 }
  - { offsetInCU: 0x9AD6, offset: 0x1A3A2, size: 0x8, addend: 0x0, symName: __ZNSt11_Tuple_implILm1EJSt14default_deleteISt6vectorINSt7__cxx1112basic_stringIcSt11char_traitsIcESaIcEEESaIS7_EEEEE7_M_headERSB_, symObjAddr: 0x2EB4, symBinAddr: 0x100008E30, symSize: 0x1C }
  - { offsetInCU: 0x9B08, offset: 0x1A3D4, size: 0x8, addend: 0x0, symName: __ZNSt11_Tuple_implILm0EJPSt6vectorINSt7__cxx1112basic_stringIcSt11char_traitsIcESaIcEEESaIS6_EESt14default_deleteIS8_EEE7_M_headERSC_, symObjAddr: 0x2E98, symBinAddr: 0x100008E14, symSize: 0x1C }
  - { offsetInCU: 0x9B10, offset: 0x1A3DC, size: 0x8, addend: 0x0, symName: __ZNSt11_Tuple_implILm1EJSt14default_deleteISt6vectorINSt7__cxx1112basic_stringIcSt11char_traitsIcESaIcEEESaIS7_EEEEE7_M_headERSB_, symObjAddr: 0x2EB4, symBinAddr: 0x100008E30, symSize: 0x1C }
  - { offsetInCU: 0x9CCC, offset: 0x1A598, size: 0x8, addend: 0x0, symName: __ZSt13__copy_move_aILb1EN9__gnu_cxx17__normal_iteratorIPNSt7__cxx1112basic_stringIcSt11char_traitsIcESaIcEEESt6vectorIS7_SaIS7_EEEESC_ET1_T0_SE_SD_, symObjAddr: 0x2E38, symBinAddr: 0x100008DB4, symSize: 0x60 }
  - { offsetInCU: 0x9CD4, offset: 0x1A5A0, size: 0x8, addend: 0x0, symName: __ZNSt11_Tuple_implILm0EJPSt6vectorINSt7__cxx1112basic_stringIcSt11char_traitsIcESaIcEEESaIS6_EESt14default_deleteIS8_EEE7_M_headERSC_, symObjAddr: 0x2E98, symBinAddr: 0x100008E14, symSize: 0x1C }
  - { offsetInCU: 0x9CD3, offset: 0x1A59F, size: 0x8, addend: 0x0, symName: __ZSt12__miter_baseIN9__gnu_cxx17__normal_iteratorIPNSt7__cxx1112basic_stringIcSt11char_traitsIcESaIcEEESt6vectorIS7_SaIS7_EEEEET_SD_, symObjAddr: 0x2E24, symBinAddr: 0x100008DA0, symSize: 0x14 }
  - { offsetInCU: 0x9CDB, offset: 0x1A5A7, size: 0x8, addend: 0x0, symName: __ZSt13__copy_move_aILb1EN9__gnu_cxx17__normal_iteratorIPNSt7__cxx1112basic_stringIcSt11char_traitsIcESaIcEEESt6vectorIS7_SaIS7_EEEESC_ET1_T0_SE_SD_, symObjAddr: 0x2E38, symBinAddr: 0x100008DB4, symSize: 0x60 }
  - { offsetInCU: 0x9C1E, offset: 0x1A4EA, size: 0x8, addend: 0x0, symName: __ZSt9__find_ifIN9__gnu_cxx17__normal_iteratorIPNSt7__cxx1112basic_stringIcSt11char_traitsIcESaIcEEESt6vectorIS7_SaIS7_EEEENS0_5__ops10_Iter_predIZN15LiteratureEntry11remove_nameERKS7_EUlSH_E_EEET_SK_SK_T0_St26random_access_iterator_tag, symObjAddr: 0x2C88, symBinAddr: 0x100008C04, symSize: 0x19C }
  - { offsetInCU: 0x9C26, offset: 0x1A4F2, size: 0x8, addend: 0x0, symName: __ZSt12__miter_baseIN9__gnu_cxx17__normal_iteratorIPNSt7__cxx1112basic_stringIcSt11char_traitsIcESaIcEEESt6vectorIS7_SaIS7_EEEEET_SD_, symObjAddr: 0x2E24, symBinAddr: 0x100008DA0, symSize: 0x14 }
  - { offsetInCU: 0x9DF5, offset: 0x1A6C1, size: 0x8, addend: 0x0, symName: __ZSt19__iterator_categoryIN9__gnu_cxx17__normal_iteratorIPNSt7__cxx1112basic_stringIcSt11char_traitsIcESaIcEEESt6vectorIS7_SaIS7_EEEEENSt15iterator_traitsIT_E17iterator_categoryERKSE_, symObjAddr: 0x2C74, symBinAddr: 0x100008BF0, symSize: 0x14 }
  - { offsetInCU: 0x9DFD, offset: 0x1A6C9, size: 0x8, addend: 0x0, symName: __ZSt9__find_ifIN9__gnu_cxx17__normal_iteratorIPNSt7__cxx1112basic_stringIcSt11char_traitsIcESaIcEEESt6vectorIS7_SaIS7_EEEENS0_5__ops10_Iter_predIZN15LiteratureEntry11remove_nameERKS7_EUlSH_E_EEET_SK_SK_T0_St26random_access_iterator_tag, symObjAddr: 0x2C88, symBinAddr: 0x100008C04, symSize: 0x19C }
  - { offsetInCU: 0x9CFF, offset: 0x1A5CB, size: 0x8, addend: 0x0, symName: __ZN9__gnu_cxx13new_allocatorINSt7__cxx1112basic_stringIcSt11char_traitsIcESaIcEEEE7destroyIS6_EEvPT_, symObjAddr: 0x2C50, symBinAddr: 0x100008BCC, symSize: 0x24 }
  - { offsetInCU: 0x9D07, offset: 0x1A5D3, size: 0x8, addend: 0x0, symName: __ZSt19__iterator_categoryIN9__gnu_cxx17__normal_iteratorIPNSt7__cxx1112basic_stringIcSt11char_traitsIcESaIcEEESt6vectorIS7_SaIS7_EEEEENSt15iterator_traitsIT_E17iterator_categoryERKSE_, symObjAddr: 0x2C74, symBinAddr: 0x100008BF0, symSize: 0x14 }
  - { offsetInCU: 0x9D4E, offset: 0x1A61A, size: 0x8, addend: 0x0, symName: __ZNSt6vectorINSt7__cxx1112basic_stringIcSt11char_traitsIcESaIcEEESaIS5_EE14_S_do_relocateEPS5_S8_S8_RS6_St17integral_constantIbLb1EE, symObjAddr: 0x2C18, symBinAddr: 0x100008B94, symSize: 0x38 }
  - { offsetInCU: 0x9D56, offset: 0x1A622, size: 0x8, addend: 0x0, symName: __ZN9__gnu_cxx13new_allocatorINSt7__cxx1112basic_stringIcSt11char_traitsIcESaIcEEEE7destroyIS6_EEvPT_, symObjAddr: 0x2C50, symBinAddr: 0x100008BCC, symSize: 0x24 }
  - { offsetInCU: 0x9DC8, offset: 0x1A694, size: 0x8, addend: 0x0, symName: __ZNSt16allocator_traitsISaINSt7__cxx1112basic_stringIcSt11char_traitsIcESaIcEEEEE8allocateERS6_m, symObjAddr: 0x2BF0, symBinAddr: 0x100008B6C, symSize: 0x28 }
  - { offsetInCU: 0x9DD0, offset: 0x1A69C, size: 0x8, addend: 0x0, symName: __ZNSt6vectorINSt7__cxx1112basic_stringIcSt11char_traitsIcESaIcEEESaIS5_EE14_S_do_relocateEPS5_S8_S8_RS6_St17integral_constantIbLb1EE, symObjAddr: 0x2C18, symBinAddr: 0x100008B94, symSize: 0x38 }
  - { offsetInCU: 0x9E0E, offset: 0x1A6DA, size: 0x8, addend: 0x0, symName: __ZNKSt6vectorINSt7__cxx1112basic_stringIcSt11char_traitsIcESaIcEEESaIS5_EE8max_sizeEv, symObjAddr: 0x2BD0, symBinAddr: 0x100008B4C, symSize: 0x20 }
  - { offsetInCU: 0x9E16, offset: 0x1A6E2, size: 0x8, addend: 0x0, symName: __ZNSt16allocator_traitsISaINSt7__cxx1112basic_stringIcSt11char_traitsIcESaIcEEEEE8allocateERS6_m, symObjAddr: 0x2BF0, symBinAddr: 0x100008B6C, symSize: 0x28 }
  - { offsetInCU: 0x9E3D, offset: 0x1A709, size: 0x8, addend: 0x0, symName: __ZN9__gnu_cxx17__normal_iteratorIPKNSt7__cxx1112basic_stringIcSt11char_traitsIcESaIcEEESt6vectorIS6_SaIS6_EEEppEv, symObjAddr: 0x2BA8, symBinAddr: 0x100008B24, symSize: 0x28 }
  - { offsetInCU: 0x9E45, offset: 0x1A711, size: 0x8, addend: 0x0, symName: __ZNKSt6vectorINSt7__cxx1112basic_stringIcSt11char_traitsIcESaIcEEESaIS5_EE8max_sizeEv, symObjAddr: 0x2BD0, symBinAddr: 0x100008B4C, symSize: 0x20 }
  - { offsetInCU: 0x9E6C, offset: 0x1A738, size: 0x8, addend: 0x0, symName: __ZN9__gnu_cxx5__ops16_Iter_equals_valIKNSt7__cxx1112basic_stringIcSt11char_traitsIcESaIcEEEEclINS_17__normal_iteratorIPS8_St6vectorIS7_SaIS7_EEEEEEbT_, symObjAddr: 0x2B6C, symBinAddr: 0x100008AE8, symSize: 0x3C }
  - { offsetInCU: 0x9E74, offset: 0x1A740, size: 0x8, addend: 0x0, symName: __ZN9__gnu_cxx17__normal_iteratorIPKNSt7__cxx1112basic_stringIcSt11char_traitsIcESaIcEEESt6vectorIS6_SaIS6_EEEppEv, symObjAddr: 0x2BA8, symBinAddr: 0x100008B24, symSize: 0x28 }
  - { offsetInCU: 0x9F64, offset: 0x1A830, size: 0x8, addend: 0x0, symName: __ZSt12__get_helperILm0EPSt6vectorINSt7__cxx1112basic_stringIcSt11char_traitsIcESaIcEEESaIS6_EEJSt14default_deleteIS8_EEERKT0_RKSt11_Tuple_implIXT_EJSC_DpT1_EE, symObjAddr: 0x2B50, symBinAddr: 0x100008ACC, symSize: 0x1C }
  - { offsetInCU: 0x9F6C, offset: 0x1A838, size: 0x8, addend: 0x0, symName: __ZN9__gnu_cxx5__ops16_Iter_equals_valIKNSt7__cxx1112basic_stringIcSt11char_traitsIcESaIcEEEEclINS_17__normal_iteratorIPS8_St6vectorIS7_SaIS7_EEEEEEbT_, symObjAddr: 0x2B6C, symBinAddr: 0x100008AE8, symSize: 0x3C }
  - { offsetInCU: 0x9F25, offset: 0x1A7F1, size: 0x8, addend: 0x0, symName: __ZNSt12_Destroy_auxILb0EE9__destroyIPNSt7__cxx1112basic_stringIcSt11char_traitsIcESaIcEEEEEvT_S9_, symObjAddr: 0x2B04, symBinAddr: 0x100008A80, symSize: 0x4C }
  - { offsetInCU: 0x9F2D, offset: 0x1A7F9, size: 0x8, addend: 0x0, symName: __ZSt12__get_helperILm0EPSt6vectorINSt7__cxx1112basic_stringIcSt11char_traitsIcESaIcEEESaIS6_EEJSt14default_deleteIS8_EEERKT0_RKSt11_Tuple_implIXT_EJSC_DpT1_EE, symObjAddr: 0x2B50, symBinAddr: 0x100008ACC, symSize: 0x1C }
  - { offsetInCU: 0x9F76, offset: 0x1A842, size: 0x8, addend: 0x0, symName: __ZNSt20__uninitialized_copyILb0EE13__uninit_copyIN9__gnu_cxx17__normal_iteratorIPKNSt7__cxx1112basic_stringIcSt11char_traitsIcESaIcEEESt6vectorIS9_SaIS9_EEEEPS9_EET0_T_SI_SH_, symObjAddr: 0x2A5C, symBinAddr: 0x1000089D8, symSize: 0xA8 }
  - { offsetInCU: 0x9F7E, offset: 0x1A84A, size: 0x8, addend: 0x0, symName: __ZNSt12_Destroy_auxILb0EE9__destroyIPNSt7__cxx1112basic_stringIcSt11char_traitsIcESaIcEEEEEvT_S9_, symObjAddr: 0x2B04, symBinAddr: 0x100008A80, symSize: 0x4C }
  - { offsetInCU: 0x9FFA, offset: 0x1A8C6, size: 0x8, addend: 0x0, symName: __ZNSt16allocator_traitsISaINSt7__cxx1112basic_stringIcSt11char_traitsIcESaIcEEEEE10deallocateERS6_PS5_m, symObjAddr: 0x2A2C, symBinAddr: 0x1000089A8, symSize: 0x30 }
  - { offsetInCU: 0xA002, offset: 0x1A8CE, size: 0x8, addend: 0x0, symName: __ZNSt20__uninitialized_copyILb0EE13__uninit_copyIN9__gnu_cxx17__normal_iteratorIPKNSt7__cxx1112basic_stringIcSt11char_traitsIcESaIcEEESt6vectorIS9_SaIS9_EEEEPS9_EET0_T_SI_SH_, symObjAddr: 0x2A5C, symBinAddr: 0x1000089D8, symSize: 0xA8 }
  - { offsetInCU: 0xA0D5, offset: 0x1A9A1, size: 0x8, addend: 0x0, symName: __ZNSt12_Vector_baseINSt7__cxx1112basic_stringIcSt11char_traitsIcESaIcEEESaIS5_EE17_Vector_impl_dataC2Ev, symObjAddr: 0x2A00, symBinAddr: 0x10000897C, symSize: 0x2C }
  - { offsetInCU: 0xA0DD, offset: 0x1A9A9, size: 0x8, addend: 0x0, symName: __ZNSt16allocator_traitsISaINSt7__cxx1112basic_stringIcSt11char_traitsIcESaIcEEEEE10deallocateERS6_PS5_m, symObjAddr: 0x2A2C, symBinAddr: 0x1000089A8, symSize: 0x30 }
  - { offsetInCU: 0xA108, offset: 0x1A9D4, size: 0x8, addend: 0x0, symName: __ZNSaINSt7__cxx1112basic_stringIcSt11char_traitsIcESaIcEEEEC2ERKS5_, symObjAddr: 0x29B0, symBinAddr: 0x100008954, symSize: 0x28 }
  - { offsetInCU: 0xA1F3, offset: 0x1AABF, size: 0x8, addend: 0x0, symName: __ZSt12__get_helperILm1ESt14default_deleteISt6vectorINSt7__cxx1112basic_stringIcSt11char_traitsIcESaIcEEESaIS7_EEEJEERT0_RSt11_Tuple_implIXT_EJSB_DpT1_EE, symObjAddr: 0x2994, symBinAddr: 0x100008938, symSize: 0x1C }
  - { offsetInCU: 0xA1FB, offset: 0x1AAC7, size: 0x8, addend: 0x0, symName: __ZNSaINSt7__cxx1112basic_stringIcSt11char_traitsIcESaIcEEEEC2ERKS5_, symObjAddr: 0x29B0, symBinAddr: 0x100008954, symSize: 0x28 }
  - { offsetInCU: 0xA203, offset: 0x1AACF, size: 0x8, addend: 0x0, symName: __ZSt12__get_helperILm0EPSt6vectorINSt7__cxx1112basic_stringIcSt11char_traitsIcESaIcEEESaIS6_EEJSt14default_deleteIS8_EEERT0_RSt11_Tuple_implIXT_EJSC_DpT1_EE, symObjAddr: 0x2978, symBinAddr: 0x10000891C, symSize: 0x1C }
  - { offsetInCU: 0xA20B, offset: 0x1AAD7, size: 0x8, addend: 0x0, symName: __ZSt12__get_helperILm1ESt14default_deleteISt6vectorINSt7__cxx1112basic_stringIcSt11char_traitsIcESaIcEEESaIS7_EEEJEERT0_RSt11_Tuple_implIXT_EJSB_DpT1_EE, symObjAddr: 0x2994, symBinAddr: 0x100008938, symSize: 0x1C }
  - { offsetInCU: 0xA259, offset: 0x1AB25, size: 0x8, addend: 0x0, symName: __ZNSt10_Head_baseILm1ESt14default_deleteISt6vectorINSt7__cxx1112basic_stringIcSt11char_traitsIcESaIcEEESaIS7_EEELb1EEC2Ev, symObjAddr: 0x2964, symBinAddr: 0x100008908, symSize: 0x14 }
  - { offsetInCU: 0xA261, offset: 0x1AB2D, size: 0x8, addend: 0x0, symName: __ZSt12__get_helperILm0EPSt6vectorINSt7__cxx1112basic_stringIcSt11char_traitsIcESaIcEEESaIS6_EEJSt14default_deleteIS8_EEERT0_RSt11_Tuple_implIXT_EJSC_DpT1_EE, symObjAddr: 0x2978, symBinAddr: 0x10000891C, symSize: 0x1C }
  - { offsetInCU: 0xA20D, offset: 0x1AAD9, size: 0x8, addend: 0x0, symName: __ZNSt6vectorINSt7__cxx1112basic_stringIcSt11char_traitsIcESaIcEEESaIS5_EE15_M_erase_at_endEPS5_, symObjAddr: 0x28F0, symBinAddr: 0x100008894, symSize: 0x74 }
  - { offsetInCU: 0xA215, offset: 0x1AAE1, size: 0x8, addend: 0x0, symName: __ZNSt10_Head_baseILm1ESt14default_deleteISt6vectorINSt7__cxx1112basic_stringIcSt11char_traitsIcESaIcEEESaIS7_EEELb1EEC2Ev, symObjAddr: 0x2964, symBinAddr: 0x100008908, symSize: 0x14 }
  - { offsetInCU: 0xA3EA, offset: 0x1ACB6, size: 0x8, addend: 0x0, symName: __ZSt4moveIN9__gnu_cxx17__normal_iteratorIPNSt7__cxx1112basic_stringIcSt11char_traitsIcESaIcEEESt6vectorIS7_SaIS7_EEEESC_ET0_T_SE_SD_, symObjAddr: 0x28A8, symBinAddr: 0x10000884C, symSize: 0x48 }
  - { offsetInCU: 0xA3F2, offset: 0x1ACBE, size: 0x8, addend: 0x0, symName: __ZNSt6vectorINSt7__cxx1112basic_stringIcSt11char_traitsIcESaIcEEESaIS5_EE15_M_erase_at_endEPS5_, symObjAddr: 0x28F0, symBinAddr: 0x100008894, symSize: 0x74 }
  - { offsetInCU: 0xA2F7, offset: 0x1ABC3, size: 0x8, addend: 0x0, symName: __ZN9__gnu_cxx5__ops10_Iter_predIZN15LiteratureEntry11remove_nameERKNSt7__cxx1112basic_stringIcSt11char_traitsIcESaIcEEEEUlSA_E_EclINS_17__normal_iteratorIPS8_St6vectorIS8_SaIS8_EEEEEEbT_, symObjAddr: 0x286C, symBinAddr: 0x100008810, symSize: 0x3C }
  - { offsetInCU: 0xA2FF, offset: 0x1ABCB, size: 0x8, addend: 0x0, symName: __ZSt4moveIN9__gnu_cxx17__normal_iteratorIPNSt7__cxx1112basic_stringIcSt11char_traitsIcESaIcEEESt6vectorIS7_SaIS7_EEEESC_ET0_T_SE_SD_, symObjAddr: 0x28A8, symBinAddr: 0x10000884C, symSize: 0x48 }
  - { offsetInCU: 0xA42C, offset: 0x1ACF8, size: 0x8, addend: 0x0, symName: __ZN9__gnu_cxxeqIPNSt7__cxx1112basic_stringIcSt11char_traitsIcESaIcEEESt6vectorIS6_SaIS6_EEEEbRKNS_17__normal_iteratorIT_T0_EESG_, symObjAddr: 0x2828, symBinAddr: 0x1000087CC, symSize: 0x44 }
  - { offsetInCU: 0xA434, offset: 0x1AD00, size: 0x8, addend: 0x0, symName: __ZN9__gnu_cxx5__ops10_Iter_predIZN15LiteratureEntry11remove_nameERKNSt7__cxx1112basic_stringIcSt11char_traitsIcESaIcEEEEUlSA_E_EclINS_17__normal_iteratorIPS8_St6vectorIS8_SaIS8_EEEEEEbT_, symObjAddr: 0x286C, symBinAddr: 0x100008810, symSize: 0x3C }
  - { offsetInCU: 0xA3BD, offset: 0x1AC89, size: 0x8, addend: 0x0, symName: __ZSt9__find_ifIN9__gnu_cxx17__normal_iteratorIPNSt7__cxx1112basic_stringIcSt11char_traitsIcESaIcEEESt6vectorIS7_SaIS7_EEEENS0_5__ops10_Iter_predIZN15LiteratureEntry11remove_nameERKS7_EUlSH_E_EEET_SK_SK_T0_, symObjAddr: 0x27E8, symBinAddr: 0x10000878C, symSize: 0x40 }
  - { offsetInCU: 0xA3C5, offset: 0x1AC91, size: 0x8, addend: 0x0, symName: __ZN9__gnu_cxxeqIPNSt7__cxx1112basic_stringIcSt11char_traitsIcESaIcEEESt6vectorIS6_SaIS6_EEEEbRKNS_17__normal_iteratorIT_T0_EESG_, symObjAddr: 0x2828, symBinAddr: 0x1000087CC, symSize: 0x44 }
  - { offsetInCU: 0xA45C, offset: 0x1AD28, size: 0x8, addend: 0x0, symName: __ZN9__gnu_cxx5__ops10_Iter_predIZN15LiteratureEntry11remove_nameERKNSt7__cxx1112basic_stringIcSt11char_traitsIcESaIcEEEEUlSA_E_EC1ESB_, symObjAddr: 0x27B4, symBinAddr: 0x100008758, symSize: 0x34 }
  - { offsetInCU: 0xA464, offset: 0x1AD30, size: 0x8, addend: 0x0, symName: __ZSt9__find_ifIN9__gnu_cxx17__normal_iteratorIPNSt7__cxx1112basic_stringIcSt11char_traitsIcESaIcEEESt6vectorIS7_SaIS7_EEEENS0_5__ops10_Iter_predIZN15LiteratureEntry11remove_nameERKS7_EUlSH_E_EEET_SK_SK_T0_, symObjAddr: 0x27E8, symBinAddr: 0x10000878C, symSize: 0x40 }
  - { offsetInCU: 0xA4E2, offset: 0x1ADAE, size: 0x8, addend: 0x0, symName: __ZSt4moveIRZN15LiteratureEntry11remove_nameERKNSt7__cxx1112basic_stringIcSt11char_traitsIcESaIcEEEEUlS8_E_EONSt16remove_referenceIT_E4typeEOSC_, symObjAddr: 0x27A0, symBinAddr: 0x100008744, symSize: 0x14 }
  - { offsetInCU: 0xA4EA, offset: 0x1ADB6, size: 0x8, addend: 0x0, symName: __ZN9__gnu_cxx5__ops10_Iter_predIZN15LiteratureEntry11remove_nameERKNSt7__cxx1112basic_stringIcSt11char_traitsIcESaIcEEEEUlSA_E_EC1ESB_, symObjAddr: 0x27B4, symBinAddr: 0x100008758, symSize: 0x34 }
  - { offsetInCU: 0xA4EC, offset: 0x1ADB8, size: 0x8, addend: 0x0, symName: __ZNSt16allocator_traitsISaINSt7__cxx1112basic_stringIcSt11char_traitsIcESaIcEEEEE7destroyIS5_EEvRS6_PT_, symObjAddr: 0x2778, symBinAddr: 0x10000871C, symSize: 0x28 }
  - { offsetInCU: 0xA4F4, offset: 0x1ADC0, size: 0x8, addend: 0x0, symName: __ZSt4moveIRZN15LiteratureEntry11remove_nameERKNSt7__cxx1112basic_stringIcSt11char_traitsIcESaIcEEEEUlS8_E_EONSt16remove_referenceIT_E4typeEOSC_, symObjAddr: 0x27A0, symBinAddr: 0x100008744, symSize: 0x14 }
  - { offsetInCU: 0xA53F, offset: 0x1AE0B, size: 0x8, addend: 0x0, symName: __ZNSt6vectorINSt7__cxx1112basic_stringIcSt11char_traitsIcESaIcEEESaIS5_EE11_S_relocateEPS5_S8_S8_RS6_, symObjAddr: 0x2744, symBinAddr: 0x1000086E8, symSize: 0x34 }
  - { offsetInCU: 0xA547, offset: 0x1AE13, size: 0x8, addend: 0x0, symName: __ZNSt16allocator_traitsISaINSt7__cxx1112basic_stringIcSt11char_traitsIcESaIcEEEEE7destroyIS5_EEvRS6_PT_, symObjAddr: 0x2778, symBinAddr: 0x10000871C, symSize: 0x28 }
  - { offsetInCU: 0xA5AD, offset: 0x1AE79, size: 0x8, addend: 0x0, symName: __ZNSt12_Vector_baseINSt7__cxx1112basic_stringIcSt11char_traitsIcESaIcEEESaIS5_EE11_M_allocateEm, symObjAddr: 0x270C, symBinAddr: 0x1000086B0, symSize: 0x38 }
  - { offsetInCU: 0xA5B5, offset: 0x1AE81, size: 0x8, addend: 0x0, symName: __ZNSt6vectorINSt7__cxx1112basic_stringIcSt11char_traitsIcESaIcEEESaIS5_EE11_S_relocateEPS5_S8_S8_RS6_, symObjAddr: 0x2744, symBinAddr: 0x1000086E8, symSize: 0x34 }
  - { offsetInCU: 0xA6E7, offset: 0x1AFB3, size: 0x8, addend: 0x0, symName: __ZN9__gnu_cxxmiIPNSt7__cxx1112basic_stringIcSt11char_traitsIcESaIcEEESt6vectorIS6_SaIS6_EEEENS_17__normal_iteratorIT_T0_E15difference_typeERKSE_SH_, symObjAddr: 0x26CC, symBinAddr: 0x100008670, symSize: 0x40 }
  - { offsetInCU: 0xA6EF, offset: 0x1AFBB, size: 0x8, addend: 0x0, symName: __ZNSt12_Vector_baseINSt7__cxx1112basic_stringIcSt11char_traitsIcESaIcEEESaIS5_EE11_M_allocateEm, symObjAddr: 0x270C, symBinAddr: 0x1000086B0, symSize: 0x38 }
  - { offsetInCU: 0xA65D, offset: 0x1AF29, size: 0x8, addend: 0x0, symName: __ZNKSt6vectorINSt7__cxx1112basic_stringIcSt11char_traitsIcESaIcEEESaIS5_EE12_M_check_lenEmPKc, symObjAddr: 0x2600, symBinAddr: 0x1000085A4, symSize: 0xCC }
  - { offsetInCU: 0xA665, offset: 0x1AF31, size: 0x8, addend: 0x0, symName: __ZN9__gnu_cxxmiIPNSt7__cxx1112basic_stringIcSt11char_traitsIcESaIcEEESt6vectorIS6_SaIS6_EEEENS_17__normal_iteratorIT_T0_E15difference_typeERKSE_SH_, symObjAddr: 0x26CC, symBinAddr: 0x100008670, symSize: 0x40 }
  - { offsetInCU: 0xA6C8, offset: 0x1AF94, size: 0x8, addend: 0x0, symName: __ZN9__gnu_cxx13new_allocatorINSt7__cxx1112basic_stringIcSt11char_traitsIcESaIcEEEE9constructIS6_JRKS6_EEEvPT_DpOT0_, symObjAddr: 0x258C, symBinAddr: 0x100008530, symSize: 0x74 }
  - { offsetInCU: 0xA6D0, offset: 0x1AF9C, size: 0x8, addend: 0x0, symName: __ZNKSt6vectorINSt7__cxx1112basic_stringIcSt11char_traitsIcESaIcEEESaIS5_EE12_M_check_lenEmPKc, symObjAddr: 0x2600, symBinAddr: 0x1000085A4, symSize: 0xCC }
  - { offsetInCU: 0xA808, offset: 0x1B0D4, size: 0x8, addend: 0x0, symName: __ZSt9__find_ifIN9__gnu_cxx17__normal_iteratorIPKNSt7__cxx1112basic_stringIcSt11char_traitsIcESaIcEEESt6vectorIS7_SaIS7_EEEENS0_5__ops16_Iter_equals_valIS8_EEET_SH_SH_T0_St26random_access_iterator_tag, symObjAddr: 0x23DC, symBinAddr: 0x100008394, symSize: 0x19C }
  - { offsetInCU: 0xA922, offset: 0x1B1EE, size: 0x8, addend: 0x0, symName: __ZSt19__iterator_categoryIN9__gnu_cxx17__normal_iteratorIPKNSt7__cxx1112basic_stringIcSt11char_traitsIcESaIcEEESt6vectorIS7_SaIS7_EEEEENSt15iterator_traitsIT_E17iterator_categoryERKSF_, symObjAddr: 0x23C8, symBinAddr: 0x100008380, symSize: 0x14 }
  - { offsetInCU: 0xA92A, offset: 0x1B1F6, size: 0x8, addend: 0x0, symName: __ZSt9__find_ifIN9__gnu_cxx17__normal_iteratorIPKNSt7__cxx1112basic_stringIcSt11char_traitsIcESaIcEEESt6vectorIS7_SaIS7_EEEENS0_5__ops16_Iter_equals_valIS8_EEET_SH_SH_T0_St26random_access_iterator_tag, symObjAddr: 0x23DC, symBinAddr: 0x100008394, symSize: 0x19C }
  - { offsetInCU: 0xA8B3, offset: 0x1B17F, size: 0x8, addend: 0x0, symName: __ZN9__gnu_cxx5__ops16_Iter_equals_valIKNSt7__cxx1112basic_stringIcSt11char_traitsIcESaIcEEEEC1ERS8_, symObjAddr: 0x23A4, symBinAddr: 0x10000835C, symSize: 0x24 }
  - { offsetInCU: 0xA8BB, offset: 0x1B187, size: 0x8, addend: 0x0, symName: __ZSt19__iterator_categoryIN9__gnu_cxx17__normal_iteratorIPKNSt7__cxx1112basic_stringIcSt11char_traitsIcESaIcEEESt6vectorIS7_SaIS7_EEEEENSt15iterator_traitsIT_E17iterator_categoryERKSF_, symObjAddr: 0x23C8, symBinAddr: 0x100008380, symSize: 0x14 }
  - { offsetInCU: 0xA950, offset: 0x1B21C, size: 0x8, addend: 0x0, symName: __ZSt3getILm0EJPSt6vectorINSt7__cxx1112basic_stringIcSt11char_traitsIcESaIcEEESaIS6_EESt14default_deleteIS8_EEERKNSt13tuple_elementIXT_ESt5tupleIJDpT0_EEE4typeERKSG_, symObjAddr: 0x2388, symBinAddr: 0x100008340, symSize: 0x1C }
  - { offsetInCU: 0xA958, offset: 0x1B224, size: 0x8, addend: 0x0, symName: __ZN9__gnu_cxx5__ops16_Iter_equals_valIKNSt7__cxx1112basic_stringIcSt11char_traitsIcESaIcEEEEC1ERS8_, symObjAddr: 0x23A4, symBinAddr: 0x10000835C, symSize: 0x24 }
  - { offsetInCU: 0xA988, offset: 0x1B254, size: 0x8, addend: 0x0, symName: __ZSt8_DestroyIPNSt7__cxx1112basic_stringIcSt11char_traitsIcESaIcEEEEvT_S7_, symObjAddr: 0x2360, symBinAddr: 0x100008318, symSize: 0x28 }
  - { offsetInCU: 0xA990, offset: 0x1B25C, size: 0x8, addend: 0x0, symName: __ZSt3getILm0EJPSt6vectorINSt7__cxx1112basic_stringIcSt11char_traitsIcESaIcEEESaIS6_EESt14default_deleteIS8_EEERKNSt13tuple_elementIXT_ESt5tupleIJDpT0_EEE4typeERKSG_, symObjAddr: 0x2388, symBinAddr: 0x100008340, symSize: 0x1C }
  - { offsetInCU: 0xAAAE, offset: 0x1B37A, size: 0x8, addend: 0x0, symName: __ZSt18uninitialized_copyIN9__gnu_cxx17__normal_iteratorIPKNSt7__cxx1112basic_stringIcSt11char_traitsIcESaIcEEESt6vectorIS7_SaIS7_EEEEPS7_ET0_T_SG_SF_, symObjAddr: 0x232C, symBinAddr: 0x1000082E4, symSize: 0x34 }
  - { offsetInCU: 0xAAB6, offset: 0x1B382, size: 0x8, addend: 0x0, symName: __ZSt8_DestroyIPNSt7__cxx1112basic_stringIcSt11char_traitsIcESaIcEEEEvT_S7_, symObjAddr: 0x2360, symBinAddr: 0x100008318, symSize: 0x28 }
  - { offsetInCU: 0xA9F6, offset: 0x1B2C2, size: 0x8, addend: 0x0, symName: __ZNSt12_Vector_baseINSt7__cxx1112basic_stringIcSt11char_traitsIcESaIcEEESaIS5_EE13_M_deallocateEPS5_m, symObjAddr: 0x22F0, symBinAddr: 0x1000082A8, symSize: 0x3C }
  - { offsetInCU: 0xA9FE, offset: 0x1B2CA, size: 0x8, addend: 0x0, symName: __ZSt18uninitialized_copyIN9__gnu_cxx17__normal_iteratorIPKNSt7__cxx1112basic_stringIcSt11char_traitsIcESaIcEEESt6vectorIS7_SaIS7_EEEEPS7_ET0_T_SG_SF_, symObjAddr: 0x232C, symBinAddr: 0x1000082E4, symSize: 0x34 }
  - { offsetInCU: 0xAA4D, offset: 0x1B319, size: 0x8, addend: 0x0, symName: __ZNSt12_Vector_baseINSt7__cxx1112basic_stringIcSt11char_traitsIcESaIcEEESaIS5_EE17_M_create_storageEm, symObjAddr: 0x2290, symBinAddr: 0x100008248, symSize: 0x60 }
  - { offsetInCU: 0xAA55, offset: 0x1B321, size: 0x8, addend: 0x0, symName: __ZNSt12_Vector_baseINSt7__cxx1112basic_stringIcSt11char_traitsIcESaIcEEESaIS5_EE13_M_deallocateEPS5_m, symObjAddr: 0x22F0, symBinAddr: 0x1000082A8, symSize: 0x3C }
  - { offsetInCU: 0xAB20, offset: 0x1B3EC, size: 0x8, addend: 0x0, symName: __ZNSt12_Vector_baseINSt7__cxx1112basic_stringIcSt11char_traitsIcESaIcEEESaIS5_EE12_Vector_implC1ERKS6_, symObjAddr: 0x2260, symBinAddr: 0x100008218, symSize: 0x30 }
  - { offsetInCU: 0xAB28, offset: 0x1B3F4, size: 0x8, addend: 0x0, symName: __ZNSt12_Vector_baseINSt7__cxx1112basic_stringIcSt11char_traitsIcESaIcEEESaIS5_EE17_M_create_storageEm, symObjAddr: 0x2290, symBinAddr: 0x100008248, symSize: 0x60 }
  - { offsetInCU: 0xAAF3, offset: 0x1B3BF, size: 0x8, addend: 0x0, symName: __ZNSt16allocator_traitsISaINSt7__cxx1112basic_stringIcSt11char_traitsIcESaIcEEEEE37select_on_container_copy_constructionERKS6_, symObjAddr: 0x221C, symBinAddr: 0x1000081E8, symSize: 0x30 }
  - { offsetInCU: 0xAD7E, offset: 0x1B64A, size: 0x8, addend: 0x0, symName: __ZSt3getILm1EJPSt6vectorINSt7__cxx1112basic_stringIcSt11char_traitsIcESaIcEEESaIS6_EESt14default_deleteIS8_EEERNSt13tuple_elementIXT_ESt5tupleIJDpT0_EEE4typeERSG_, symObjAddr: 0x2200, symBinAddr: 0x1000081CC, symSize: 0x1C }
  - { offsetInCU: 0xAD86, offset: 0x1B652, size: 0x8, addend: 0x0, symName: __ZNSt16allocator_traitsISaINSt7__cxx1112basic_stringIcSt11char_traitsIcESaIcEEEEE37select_on_container_copy_constructionERKS6_, symObjAddr: 0x221C, symBinAddr: 0x1000081E8, symSize: 0x30 }
  - { offsetInCU: 0xAC4A, offset: 0x1B516, size: 0x8, addend: 0x0, symName: __ZNSt15__uniq_ptr_implISt6vectorINSt7__cxx1112basic_stringIcSt11char_traitsIcESaIcEEESaIS6_EESt14default_deleteIS8_EEC2EPS8_, symObjAddr: 0x21C4, symBinAddr: 0x100008190, symSize: 0x3C }
  - { offsetInCU: 0xAC52, offset: 0x1B51E, size: 0x8, addend: 0x0, symName: __ZSt3getILm1EJPSt6vectorINSt7__cxx1112basic_stringIcSt11char_traitsIcESaIcEEESaIS6_EESt14default_deleteIS8_EEERNSt13tuple_elementIXT_ESt5tupleIJDpT0_EEE4typeERSG_, symObjAddr: 0x2200, symBinAddr: 0x1000081CC, symSize: 0x1C }
  - { offsetInCU: 0xACB3, offset: 0x1B57F, size: 0x8, addend: 0x0, symName: __ZSt3getILm0EJPSt6vectorINSt7__cxx1112basic_stringIcSt11char_traitsIcESaIcEEESaIS6_EESt14default_deleteIS8_EEERNSt13tuple_elementIXT_ESt5tupleIJDpT0_EEE4typeERSG_, symObjAddr: 0x21A8, symBinAddr: 0x100008174, symSize: 0x1C }
  - { offsetInCU: 0xACBB, offset: 0x1B587, size: 0x8, addend: 0x0, symName: __ZNSt15__uniq_ptr_implISt6vectorINSt7__cxx1112basic_stringIcSt11char_traitsIcESaIcEEESaIS6_EESt14default_deleteIS8_EEC2EPS8_, symObjAddr: 0x21C4, symBinAddr: 0x100008190, symSize: 0x3C }
  - { offsetInCU: 0xACF6, offset: 0x1B5C2, size: 0x8, addend: 0x0, symName: __ZNSt10_Head_baseILm0EPSt6vectorINSt7__cxx1112basic_stringIcSt11char_traitsIcESaIcEEESaIS6_EELb0EEC2Ev, symObjAddr: 0x218C, symBinAddr: 0x100008158, symSize: 0x1C }
  - { offsetInCU: 0xACFE, offset: 0x1B5CA, size: 0x8, addend: 0x0, symName: __ZSt3getILm0EJPSt6vectorINSt7__cxx1112basic_stringIcSt11char_traitsIcESaIcEEESaIS6_EESt14default_deleteIS8_EEERNSt13tuple_elementIXT_ESt5tupleIJDpT0_EEE4typeERSG_, symObjAddr: 0x21A8, symBinAddr: 0x100008174, symSize: 0x1C }
  - { offsetInCU: 0xAD4F, offset: 0x1B61B, size: 0x8, addend: 0x0, symName: __ZNSt11_Tuple_implILm1EJSt14default_deleteISt6vectorINSt7__cxx1112basic_stringIcSt11char_traitsIcESaIcEEESaIS7_EEEEEC2Ev, symObjAddr: 0x216C, symBinAddr: 0x100008138, symSize: 0x20 }
  - { offsetInCU: 0xAD57, offset: 0x1B623, size: 0x8, addend: 0x0, symName: __ZNSt10_Head_baseILm0EPSt6vectorINSt7__cxx1112basic_stringIcSt11char_traitsIcESaIcEEESaIS6_EELb0EEC2Ev, symObjAddr: 0x218C, symBinAddr: 0x100008158, symSize: 0x1C }
  - { offsetInCU: 0xAD04, offset: 0x1B5D0, size: 0x8, addend: 0x0, symName: __ZNSt6vectorINSt7__cxx1112basic_stringIcSt11char_traitsIcESaIcEEESaIS5_EE8_M_eraseEN9__gnu_cxx17__normal_iteratorIPS5_S7_EESB_, symObjAddr: 0x2060, symBinAddr: 0x100008084, symSize: 0xB4 }
  - { offsetInCU: 0xAD59, offset: 0x1B625, size: 0x8, addend: 0x0, symName: __ZNK9__gnu_cxx17__normal_iteratorIPNSt7__cxx1112basic_stringIcSt11char_traitsIcESaIcEEESt6vectorIS6_SaIS6_EEEplEl, symObjAddr: 0x2020, symBinAddr: 0x100008044, symSize: 0x40 }
  - { offsetInCU: 0xAD61, offset: 0x1B62D, size: 0x8, addend: 0x0, symName: __ZNSt6vectorINSt7__cxx1112basic_stringIcSt11char_traitsIcESaIcEEESaIS5_EE8_M_eraseEN9__gnu_cxx17__normal_iteratorIPS5_S7_EESB_, symObjAddr: 0x2060, symBinAddr: 0x100008084, symSize: 0xB4 }
  - { offsetInCU: 0xAE9A, offset: 0x1B766, size: 0x8, addend: 0x0, symName: __ZN9__gnu_cxxmiIPKNSt7__cxx1112basic_stringIcSt11char_traitsIcESaIcEEESt6vectorIS6_SaIS6_EEEENS_17__normal_iteratorIT_T0_E15difference_typeERKSF_SI_, symObjAddr: 0x1FE0, symBinAddr: 0x100008004, symSize: 0x40 }
  - { offsetInCU: 0xAEA2, offset: 0x1B76E, size: 0x8, addend: 0x0, symName: __ZNK9__gnu_cxx17__normal_iteratorIPNSt7__cxx1112basic_stringIcSt11char_traitsIcESaIcEEESt6vectorIS6_SaIS6_EEEplEl, symObjAddr: 0x2020, symBinAddr: 0x100008044, symSize: 0x40 }
  - { offsetInCU: 0xAE09, offset: 0x1B6D5, size: 0x8, addend: 0x0, symName: __ZNKSt6vectorINSt7__cxx1112basic_stringIcSt11char_traitsIcESaIcEEESaIS5_EE6cbeginEv, symObjAddr: 0x1FBC, symBinAddr: 0x100007FE0, symSize: 0x24 }
  - { offsetInCU: 0xAE11, offset: 0x1B6DD, size: 0x8, addend: 0x0, symName: __ZN9__gnu_cxxmiIPKNSt7__cxx1112basic_stringIcSt11char_traitsIcESaIcEEESt6vectorIS6_SaIS6_EEEENS_17__normal_iteratorIT_T0_E15difference_typeERKSF_SI_, symObjAddr: 0x1FE0, symBinAddr: 0x100008004, symSize: 0x40 }
  - { offsetInCU: 0xAE38, offset: 0x1B704, size: 0x8, addend: 0x0, symName: __ZNK9__gnu_cxx17__normal_iteratorIPNSt7__cxx1112basic_stringIcSt11char_traitsIcESaIcEEESt6vectorIS6_SaIS6_EEE4baseEv, symObjAddr: 0x1FA8, symBinAddr: 0x100007FCC, symSize: 0x14 }
  - { offsetInCU: 0xAE40, offset: 0x1B70C, size: 0x8, addend: 0x0, symName: __ZNKSt6vectorINSt7__cxx1112basic_stringIcSt11char_traitsIcESaIcEEESaIS5_EE6cbeginEv, symObjAddr: 0x1FBC, symBinAddr: 0x100007FE0, symSize: 0x24 }
  - { offsetInCU: 0xAF4F, offset: 0x1B81B, size: 0x8, addend: 0x0, symName: __ZSt11__remove_ifIN9__gnu_cxx17__normal_iteratorIPNSt7__cxx1112basic_stringIcSt11char_traitsIcESaIcEEESt6vectorIS7_SaIS7_EEEENS0_5__ops10_Iter_predIZN15LiteratureEntry11remove_nameERKS7_EUlSH_E_EEET_SK_SK_T0_, symObjAddr: 0x1ED0, symBinAddr: 0x100007EF4, symSize: 0xD8 }
  - { offsetInCU: 0xAF57, offset: 0x1B823, size: 0x8, addend: 0x0, symName: __ZNK9__gnu_cxx17__normal_iteratorIPNSt7__cxx1112basic_stringIcSt11char_traitsIcESaIcEEESt6vectorIS6_SaIS6_EEE4baseEv, symObjAddr: 0x1FA8, symBinAddr: 0x100007FCC, symSize: 0x14 }
  - { offsetInCU: 0xAF4F, offset: 0x1B81B, size: 0x8, addend: 0x0, symName: __ZN9__gnu_cxx5__ops11__pred_iterIZN15LiteratureEntry11remove_nameERKNSt7__cxx1112basic_stringIcSt11char_traitsIcESaIcEEEEUlSA_E_EENS0_10_Iter_predIT_EESD_, symObjAddr: 0x1EA0, symBinAddr: 0x100007EC4, symSize: 0x30 }
  - { offsetInCU: 0xAF57, offset: 0x1B823, size: 0x8, addend: 0x0, symName: __ZSt11__remove_ifIN9__gnu_cxx17__normal_iteratorIPNSt7__cxx1112basic_stringIcSt11char_traitsIcESaIcEEESt6vectorIS7_SaIS7_EEEENS0_5__ops10_Iter_predIZN15LiteratureEntry11remove_nameERKS7_EUlSH_E_EEET_SK_SK_T0_, symObjAddr: 0x1ED0, symBinAddr: 0x100007EF4, symSize: 0xD8 }
  - { offsetInCU: 0xAFDF, offset: 0x1B8AB, size: 0x8, addend: 0x0, symName: __ZN9__gnu_cxx17__normal_iteratorIPNSt7__cxx1112basic_stringIcSt11char_traitsIcESaIcEEESt6vectorIS6_SaIS6_EEEC1ERKS7_, symObjAddr: 0x1E78, symBinAddr: 0x100007E9C, symSize: 0x28 }
  - { offsetInCU: 0xAFE7, offset: 0x1B8B3, size: 0x8, addend: 0x0, symName: __ZN9__gnu_cxx5__ops11__pred_iterIZN15LiteratureEntry11remove_nameERKNSt7__cxx1112basic_stringIcSt11char_traitsIcESaIcEEEEUlSA_E_EENS0_10_Iter_predIT_EESD_, symObjAddr: 0x1EA0, symBinAddr: 0x100007EC4, symSize: 0x30 }
  - { offsetInCU: 0xAFA4, offset: 0x1B870, size: 0x8, addend: 0x0, symName: __ZNSt6vectorINSt7__cxx1112basic_stringIcSt11char_traitsIcESaIcEEESaIS5_EE17_M_realloc_insertIJRKS5_EEEvN9__gnu_cxx17__normal_iteratorIPS5_S7_EEDpOT_, symObjAddr: 0x1C90, symBinAddr: 0x100007CB4, symSize: 0x1E8 }
  - { offsetInCU: 0xAFAC, offset: 0x1B878, size: 0x8, addend: 0x0, symName: __ZN9__gnu_cxx17__normal_iteratorIPNSt7__cxx1112basic_stringIcSt11char_traitsIcESaIcEEESt6vectorIS6_SaIS6_EEEC1ERKS7_, symObjAddr: 0x1E78, symBinAddr: 0x100007E9C, symSize: 0x28 }
  - { offsetInCU: 0xB083, offset: 0x1B94F, size: 0x8, addend: 0x0, symName: __ZNSt16allocator_traitsISaINSt7__cxx1112basic_stringIcSt11char_traitsIcESaIcEEEEE9constructIS5_JRKS5_EEEvRS6_PT_DpOT0_, symObjAddr: 0x1C58, symBinAddr: 0x100007C7C, symSize: 0x38 }
  - { offsetInCU: 0xB08B, offset: 0x1B957, size: 0x8, addend: 0x0, symName: __ZNSt6vectorINSt7__cxx1112basic_stringIcSt11char_traitsIcESaIcEEESaIS5_EE17_M_realloc_insertIJRKS5_EEEvN9__gnu_cxx17__normal_iteratorIPS5_S7_EEDpOT_, symObjAddr: 0x1C90, symBinAddr: 0x100007CB4, symSize: 0x1E8 }
  - { offsetInCU: 0xB0F7, offset: 0x1B9C3, size: 0x8, addend: 0x0, symName: __ZNK9__gnu_cxx17__normal_iteratorIPKNSt7__cxx1112basic_stringIcSt11char_traitsIcESaIcEEESt6vectorIS6_SaIS6_EEE4baseEv, symObjAddr: 0x1C44, symBinAddr: 0x100007C68, symSize: 0x14 }
  - { offsetInCU: 0xB0FF, offset: 0x1B9CB, size: 0x8, addend: 0x0, symName: __ZNSt16allocator_traitsISaINSt7__cxx1112basic_stringIcSt11char_traitsIcESaIcEEEEE9constructIS5_JRKS5_EEEvRS6_PT_DpOT0_, symObjAddr: 0x1C58, symBinAddr: 0x100007C7C, symSize: 0x38 }
  - { offsetInCU: 0xB1D9, offset: 0x1BAA5, size: 0x8, addend: 0x0, symName: __ZSt9__find_ifIN9__gnu_cxx17__normal_iteratorIPKNSt7__cxx1112basic_stringIcSt11char_traitsIcESaIcEEESt6vectorIS7_SaIS7_EEEENS0_5__ops16_Iter_equals_valIS8_EEET_SH_SH_T0_, symObjAddr: 0x1C04, symBinAddr: 0x100007C28, symSize: 0x40 }
  - { offsetInCU: 0xB1E1, offset: 0x1BAAD, size: 0x8, addend: 0x0, symName: __ZNK9__gnu_cxx17__normal_iteratorIPKNSt7__cxx1112basic_stringIcSt11char_traitsIcESaIcEEESt6vectorIS6_SaIS6_EEE4baseEv, symObjAddr: 0x1C44, symBinAddr: 0x100007C68, symSize: 0x14 }
  - { offsetInCU: 0xB265, offset: 0x1BB31, size: 0x8, addend: 0x0, symName: __ZN9__gnu_cxx5__ops17__iter_equals_valIKNSt7__cxx1112basic_stringIcSt11char_traitsIcESaIcEEEEENS0_16_Iter_equals_valIT_EERSA_, symObjAddr: 0x1BE0, symBinAddr: 0x100007C04, symSize: 0x24 }
  - { offsetInCU: 0xB26D, offset: 0x1BB39, size: 0x8, addend: 0x0, symName: __ZSt9__find_ifIN9__gnu_cxx17__normal_iteratorIPKNSt7__cxx1112basic_stringIcSt11char_traitsIcESaIcEEESt6vectorIS7_SaIS7_EEEENS0_5__ops16_Iter_equals_valIS8_EEET_SH_SH_T0_, symObjAddr: 0x1C04, symBinAddr: 0x100007C28, symSize: 0x40 }
  - { offsetInCU: 0xB293, offset: 0x1BB5F, size: 0x8, addend: 0x0, symName: __ZN9__gnu_cxx17__normal_iteratorIPKNSt7__cxx1112basic_stringIcSt11char_traitsIcESaIcEEESt6vectorIS6_SaIS6_EEEC1ERKS8_, symObjAddr: 0x1BB8, symBinAddr: 0x100007BDC, symSize: 0x28 }
  - { offsetInCU: 0xB29B, offset: 0x1BB67, size: 0x8, addend: 0x0, symName: __ZN9__gnu_cxx5__ops17__iter_equals_valIKNSt7__cxx1112basic_stringIcSt11char_traitsIcESaIcEEEEENS0_16_Iter_equals_valIT_EERSA_, symObjAddr: 0x1BE0, symBinAddr: 0x100007C04, symSize: 0x24 }
  - { offsetInCU: 0xB257, offset: 0x1BB23, size: 0x8, addend: 0x0, symName: __ZNKSt15__uniq_ptr_implISt6vectorINSt7__cxx1112basic_stringIcSt11char_traitsIcESaIcEEESaIS6_EESt14default_deleteIS8_EE6_M_ptrEv, symObjAddr: 0x1B98, symBinAddr: 0x100007BBC, symSize: 0x20 }
  - { offsetInCU: 0xB25F, offset: 0x1BB2B, size: 0x8, addend: 0x0, symName: __ZN9__gnu_cxx17__normal_iteratorIPKNSt7__cxx1112basic_stringIcSt11char_traitsIcESaIcEEESt6vectorIS6_SaIS6_EEEC1ERKS8_, symObjAddr: 0x1BB8, symBinAddr: 0x100007BDC, symSize: 0x28 }
  - { offsetInCU: 0xB32D, offset: 0x1BBF9, size: 0x8, addend: 0x0, symName: __ZSt8_DestroyIPNSt7__cxx1112basic_stringIcSt11char_traitsIcESaIcEEES5_EvT_S7_RSaIT0_E, symObjAddr: 0x1B6C, symBinAddr: 0x100007B90, symSize: 0x2C }
  - { offsetInCU: 0xB335, offset: 0x1BC01, size: 0x8, addend: 0x0, symName: __ZNKSt15__uniq_ptr_implISt6vectorINSt7__cxx1112basic_stringIcSt11char_traitsIcESaIcEEESaIS6_EESt14default_deleteIS8_EE6_M_ptrEv, symObjAddr: 0x1B98, symBinAddr: 0x100007BBC, symSize: 0x20 }
  - { offsetInCU: 0xB476, offset: 0x1BD42, size: 0x8, addend: 0x0, symName: __ZSt22__uninitialized_copy_aIN9__gnu_cxx17__normal_iteratorIPKNSt7__cxx1112basic_stringIcSt11char_traitsIcESaIcEEESt6vectorIS7_SaIS7_EEEEPS7_S7_ET0_T_SG_SF_RSaIT1_E, symObjAddr: 0x1B3C, symBinAddr: 0x100007B60, symSize: 0x30 }
  - { offsetInCU: 0xB47E, offset: 0x1BD4A, size: 0x8, addend: 0x0, symName: __ZSt8_DestroyIPNSt7__cxx1112basic_stringIcSt11char_traitsIcESaIcEEES5_EvT_S7_RSaIT0_E, symObjAddr: 0x1B6C, symBinAddr: 0x100007B90, symSize: 0x2C }
  - { offsetInCU: 0xB391, offset: 0x1BC5D, size: 0x8, addend: 0x0, symName: __ZNSt12_Vector_baseINSt7__cxx1112basic_stringIcSt11char_traitsIcESaIcEEESaIS5_EE19_M_get_Tp_allocatorEv, symObjAddr: 0x1B28, symBinAddr: 0x100007B4C, symSize: 0x14 }
  - { offsetInCU: 0xB399, offset: 0x1BC65, size: 0x8, addend: 0x0, symName: __ZSt22__uninitialized_copy_aIN9__gnu_cxx17__normal_iteratorIPKNSt7__cxx1112basic_stringIcSt11char_traitsIcESaIcEEESt6vectorIS7_SaIS7_EEEEPS7_S7_ET0_T_SG_SF_RSaIT1_E, symObjAddr: 0x1B3C, symBinAddr: 0x100007B60, symSize: 0x30 }
  - { offsetInCU: 0xB43C, offset: 0x1BD08, size: 0x8, addend: 0x0, symName: __ZNSt12_Vector_baseINSt7__cxx1112basic_stringIcSt11char_traitsIcESaIcEEESaIS5_EED2Ev, symObjAddr: 0x1AD8, symBinAddr: 0x100007AFC, symSize: 0x50 }
  - { offsetInCU: 0xB444, offset: 0x1BD10, size: 0x8, addend: 0x0, symName: __ZNSt12_Vector_baseINSt7__cxx1112basic_stringIcSt11char_traitsIcESaIcEEESaIS5_EE19_M_get_Tp_allocatorEv, symObjAddr: 0x1B28, symBinAddr: 0x100007B4C, symSize: 0x14 }
  - { offsetInCU: 0xB4AA, offset: 0x1BD76, size: 0x8, addend: 0x0, symName: __ZNSt12_Vector_baseINSt7__cxx1112basic_stringIcSt11char_traitsIcESaIcEEESaIS5_EEC2EmRKS6_, symObjAddr: 0x1A84, symBinAddr: 0x100007AA8, symSize: 0x54 }
  - { offsetInCU: 0xB4B2, offset: 0x1BD7E, size: 0x8, addend: 0x0, symName: __ZNSt12_Vector_baseINSt7__cxx1112basic_stringIcSt11char_traitsIcESaIcEEESaIS5_EED2Ev, symObjAddr: 0x1AD8, symBinAddr: 0x100007AFC, symSize: 0x50 }
  - { offsetInCU: 0xB523, offset: 0x1BDEF, size: 0x8, addend: 0x0, symName: __ZNSt12_Vector_baseINSt7__cxx1112basic_stringIcSt11char_traitsIcESaIcEEESaIS5_EE12_Vector_implD1Ev, symObjAddr: 0x1A64, symBinAddr: 0x100007A88, symSize: 0x20 }
  - { offsetInCU: 0xB52B, offset: 0x1BDF7, size: 0x8, addend: 0x0, symName: __ZNSt12_Vector_baseINSt7__cxx1112basic_stringIcSt11char_traitsIcESaIcEEESaIS5_EEC2EmRKS6_, symObjAddr: 0x1A84, symBinAddr: 0x100007AA8, symSize: 0x54 }
  - { offsetInCU: 0xB555, offset: 0x1BE21, size: 0x8, addend: 0x0, symName: __ZNSaINSt7__cxx1112basic_stringIcSt11char_traitsIcESaIcEEEED2Ev, symObjAddr: 0x1A24, symBinAddr: 0x100007A68, symSize: 0x20 }
  - { offsetInCU: 0xB543, offset: 0x1BE0F, size: 0x8, addend: 0x0, symName: __ZNKSt12_Vector_baseINSt7__cxx1112basic_stringIcSt11char_traitsIcESaIcEEESaIS5_EE19_M_get_Tp_allocatorEv, symObjAddr: 0x1A10, symBinAddr: 0x100007A54, symSize: 0x14 }
  - { offsetInCU: 0xB54B, offset: 0x1BE17, size: 0x8, addend: 0x0, symName: __ZNSaINSt7__cxx1112basic_stringIcSt11char_traitsIcESaIcEEEED2Ev, symObjAddr: 0x1A24, symBinAddr: 0x100007A68, symSize: 0x20 }
  - { offsetInCU: 0xB572, offset: 0x1BE3E, size: 0x8, addend: 0x0, symName: __ZN9__gnu_cxx14__alloc_traitsISaINSt7__cxx1112basic_stringIcSt11char_traitsIcESaIcEEEES6_E17_S_select_on_copyERKS7_, symObjAddr: 0x19E0, symBinAddr: 0x100007A24, symSize: 0x30 }
  - { offsetInCU: 0xB57A, offset: 0x1BE46, size: 0x8, addend: 0x0, symName: __ZNKSt12_Vector_baseINSt7__cxx1112basic_stringIcSt11char_traitsIcESaIcEEESaIS5_EE19_M_get_Tp_allocatorEv, symObjAddr: 0x1A10, symBinAddr: 0x100007A54, symSize: 0x14 }
  - { offsetInCU: 0xB5A3, offset: 0x1BE6F, size: 0x8, addend: 0x0, symName: __ZNKSt6vectorINSt7__cxx1112basic_stringIcSt11char_traitsIcESaIcEEESaIS5_EE4sizeEv, symObjAddr: 0x19B8, symBinAddr: 0x1000079FC, symSize: 0x28 }
  - { offsetInCU: 0xB5AB, offset: 0x1BE77, size: 0x8, addend: 0x0, symName: __ZN9__gnu_cxx14__alloc_traitsISaINSt7__cxx1112basic_stringIcSt11char_traitsIcESaIcEEEES6_E17_S_select_on_copyERKS7_, symObjAddr: 0x19E0, symBinAddr: 0x100007A24, symSize: 0x30 }
  - { offsetInCU: 0xB6B2, offset: 0x1BF7E, size: 0x8, addend: 0x0, symName: __ZSt7forwardISt14default_deleteISt6vectorINSt7__cxx1112basic_stringIcSt11char_traitsIcESaIcEEESaIS7_EEEEOT_RNSt16remove_referenceISB_E4typeE, symObjAddr: 0x19A4, symBinAddr: 0x1000079E8, symSize: 0x14 }
  - { offsetInCU: 0xB6BA, offset: 0x1BF86, size: 0x8, addend: 0x0, symName: __ZNKSt6vectorINSt7__cxx1112basic_stringIcSt11char_traitsIcESaIcEEESaIS5_EE4sizeEv, symObjAddr: 0x19B8, symBinAddr: 0x1000079FC, symSize: 0x28 }
  - { offsetInCU: 0xB630, offset: 0x1BEFC, size: 0x8, addend: 0x0, symName: __ZNSt15__uniq_ptr_implISt6vectorINSt7__cxx1112basic_stringIcSt11char_traitsIcESaIcEEESaIS6_EESt14default_deleteIS8_EE10_M_deleterEv, symObjAddr: 0x1988, symBinAddr: 0x1000079CC, symSize: 0x1C }
  - { offsetInCU: 0xB638, offset: 0x1BF04, size: 0x8, addend: 0x0, symName: __ZSt7forwardISt14default_deleteISt6vectorINSt7__cxx1112basic_stringIcSt11char_traitsIcESaIcEEESaIS7_EEEEOT_RNSt16remove_referenceISB_E4typeE, symObjAddr: 0x19A4, symBinAddr: 0x1000079E8, symSize: 0x14 }
  - { offsetInCU: 0xB65F, offset: 0x1BF2B, size: 0x8, addend: 0x0, symName: __ZNSt15__uniq_ptr_implISt6vectorINSt7__cxx1112basic_stringIcSt11char_traitsIcESaIcEEESaIS6_EESt14default_deleteIS8_EE7releaseEv, symObjAddr: 0x1954, symBinAddr: 0x100007998, symSize: 0x34 }
  - { offsetInCU: 0xB667, offset: 0x1BF33, size: 0x8, addend: 0x0, symName: __ZNSt15__uniq_ptr_implISt6vectorINSt7__cxx1112basic_stringIcSt11char_traitsIcESaIcEEESaIS6_EESt14default_deleteIS8_EE10_M_deleterEv, symObjAddr: 0x1988, symBinAddr: 0x1000079CC, symSize: 0x1C }
  - { offsetInCU: 0xB6A1, offset: 0x1BF6D, size: 0x8, addend: 0x0, symName: __ZNSt15__uniq_ptr_implISt6vectorINSt7__cxx1112basic_stringIcSt11char_traitsIcESaIcEEESaIS6_EESt14default_deleteIS8_EE5resetEPS8_, symObjAddr: 0x18F4, symBinAddr: 0x100007938, symSize: 0x60 }
  - { offsetInCU: 0xB6A9, offset: 0x1BF75, size: 0x8, addend: 0x0, symName: __ZNSt15__uniq_ptr_implISt6vectorINSt7__cxx1112basic_stringIcSt11char_traitsIcESaIcEEESaIS6_EESt14default_deleteIS8_EE7releaseEv, symObjAddr: 0x1954, symBinAddr: 0x100007998, symSize: 0x34 }
  - { offsetInCU: 0xB6F6, offset: 0x1BFC2, size: 0x8, addend: 0x0, symName: __ZNSt10unique_ptrISt6vectorINSt7__cxx1112basic_stringIcSt11char_traitsIcESaIcEEESaIS6_EESt14default_deleteIS8_EE5resetEPS8_, symObjAddr: 0x18B4, symBinAddr: 0x1000078F8, symSize: 0x40 }
  - { offsetInCU: 0xB6FE, offset: 0x1BFCA, size: 0x8, addend: 0x0, symName: __ZNSt15__uniq_ptr_implISt6vectorINSt7__cxx1112basic_stringIcSt11char_traitsIcESaIcEEESaIS6_EESt14default_deleteIS8_EE5resetEPS8_, symObjAddr: 0x18F4, symBinAddr: 0x100007938, symSize: 0x60 }
  - { offsetInCU: 0xB7EF, offset: 0x1C0BB, size: 0x8, addend: 0x0, symName: __ZNSt10unique_ptrISt6vectorINSt7__cxx1112basic_stringIcSt11char_traitsIcESaIcEEESaIS6_EESt14default_deleteIS8_EEC1ISA_vEEPS8_, symObjAddr: 0x188C, symBinAddr: 0x1000078D0, symSize: 0x28 }
  - { offsetInCU: 0xB7F7, offset: 0x1C0C3, size: 0x8, addend: 0x0, symName: __ZNSt10unique_ptrISt6vectorINSt7__cxx1112basic_stringIcSt11char_traitsIcESaIcEEESaIS6_EESt14default_deleteIS8_EE5resetEPS8_, symObjAddr: 0x18B4, symBinAddr: 0x1000078F8, symSize: 0x40 }
  - { offsetInCU: 0xB87F, offset: 0x1C14B, size: 0x8, addend: 0x0, symName: __ZNSt15__uniq_ptr_dataISt6vectorINSt7__cxx1112basic_stringIcSt11char_traitsIcESaIcEEESaIS6_EESt14default_deleteIS8_ELb1ELb1EECI1St15__uniq_ptr_implIS8_SA_EEPS8_, symObjAddr: 0x1864, symBinAddr: 0x1000078A8, symSize: 0x28 }
  - { offsetInCU: 0xB887, offset: 0x1C153, size: 0x8, addend: 0x0, symName: __ZNSt10unique_ptrISt6vectorINSt7__cxx1112basic_stringIcSt11char_traitsIcESaIcEEESaIS6_EESt14default_deleteIS8_EEC1ISA_vEEPS8_, symObjAddr: 0x188C, symBinAddr: 0x1000078D0, symSize: 0x28 }
  - { offsetInCU: 0xB8CF, offset: 0x1C19B, size: 0x8, addend: 0x0, symName: __ZSt7forwardIRSt6vectorINSt7__cxx1112basic_stringIcSt11char_traitsIcESaIcEEESaIS6_EEEOT_RNSt16remove_referenceISA_E4typeE, symObjAddr: 0x1850, symBinAddr: 0x100007894, symSize: 0x14 }
  - { offsetInCU: 0xB8D7, offset: 0x1C1A3, size: 0x8, addend: 0x0, symName: __ZNSt15__uniq_ptr_dataISt6vectorINSt7__cxx1112basic_stringIcSt11char_traitsIcESaIcEEESaIS6_EESt14default_deleteIS8_ELb1ELb1EECI1St15__uniq_ptr_implIS8_SA_EEPS8_, symObjAddr: 0x1864, symBinAddr: 0x1000078A8, symSize: 0x28 }
  - { offsetInCU: 0xB912, offset: 0x1C1DE, size: 0x8, addend: 0x0, symName: __ZNSt11_Tuple_implILm1EJSt14default_deleteISt6vectorINSt7__cxx1112basic_stringIcSt11char_traitsIcESaIcEEESaIS7_EEEEEC2EOSB_, symObjAddr: 0x1838, symBinAddr: 0x10000787C, symSize: 0x18 }
  - { offsetInCU: 0xB91A, offset: 0x1C1E6, size: 0x8, addend: 0x0, symName: __ZSt7forwardIRSt6vectorINSt7__cxx1112basic_stringIcSt11char_traitsIcESaIcEEESaIS6_EEEOT_RNSt16remove_referenceISA_E4typeE, symObjAddr: 0x1850, symBinAddr: 0x100007894, symSize: 0x14 }
  - { offsetInCU: 0xBB1B, offset: 0x1C3E7, size: 0x8, addend: 0x0, symName: __ZSt4moveIRSt5tupleIJPSt6vectorINSt7__cxx1112basic_stringIcSt11char_traitsIcESaIcEEESaIS7_EESt14default_deleteIS9_EEEEONSt16remove_referenceIT_E4typeEOSG_, symObjAddr: 0x1824, symBinAddr: 0x100007868, symSize: 0x14 }
  - { offsetInCU: 0xBB23, offset: 0x1C3EF, size: 0x8, addend: 0x0, symName: __ZNSt11_Tuple_implILm1EJSt14default_deleteISt6vectorINSt7__cxx1112basic_stringIcSt11char_traitsIcESaIcEEESaIS7_EEEEEC2EOSB_, symObjAddr: 0x1838, symBinAddr: 0x10000787C, symSize: 0x18 }
  - { offsetInCU: 0xB924, offset: 0x1C1F0, size: 0x8, addend: 0x0, symName: __ZNKSt14default_deleteISt6vectorINSt7__cxx1112basic_stringIcSt11char_traitsIcESaIcEEESaIS6_EEEclEPS8_, symObjAddr: 0x17E0, symBinAddr: 0x100007824, symSize: 0x44 }
  - { offsetInCU: 0xB92C, offset: 0x1C1F8, size: 0x8, addend: 0x0, symName: __ZSt4moveIRSt5tupleIJPSt6vectorINSt7__cxx1112basic_stringIcSt11char_traitsIcESaIcEEESaIS7_EESt14default_deleteIS9_EEEEONSt16remove_referenceIT_E4typeEOSG_, symObjAddr: 0x1824, symBinAddr: 0x100007868, symSize: 0x14 }
  - { offsetInCU: 0xBA19, offset: 0x1C2E5, size: 0x8, addend: 0x0, symName: __ZSt4moveIRPSt6vectorINSt7__cxx1112basic_stringIcSt11char_traitsIcESaIcEEESaIS6_EEEONSt16remove_referenceIT_E4typeEOSC_, symObjAddr: 0x17CC, symBinAddr: 0x100007810, symSize: 0x14 }
  - { offsetInCU: 0xBA21, offset: 0x1C2ED, size: 0x8, addend: 0x0, symName: __ZNKSt14default_deleteISt6vectorINSt7__cxx1112basic_stringIcSt11char_traitsIcESaIcEEESaIS6_EEEclEPS8_, symObjAddr: 0x17E0, symBinAddr: 0x100007824, symSize: 0x44 }
  - { offsetInCU: 0xB9BA, offset: 0x1C286, size: 0x8, addend: 0x0, symName: __ZNSt10unique_ptrISt6vectorINSt7__cxx1112basic_stringIcSt11char_traitsIcESaIcEEESaIS6_EESt14default_deleteIS8_EE11get_deleterEv, symObjAddr: 0x17B0, symBinAddr: 0x1000077F4, symSize: 0x1C }
  - { offsetInCU: 0xB9C2, offset: 0x1C28E, size: 0x8, addend: 0x0, symName: __ZSt4moveIRPSt6vectorINSt7__cxx1112basic_stringIcSt11char_traitsIcESaIcEEESaIS6_EEEONSt16remove_referenceIT_E4typeEOSC_, symObjAddr: 0x17CC, symBinAddr: 0x100007810, symSize: 0x14 }
  - { offsetInCU: 0xB9E9, offset: 0x1C2B5, size: 0x8, addend: 0x0, symName: __ZNSt15__uniq_ptr_implISt6vectorINSt7__cxx1112basic_stringIcSt11char_traitsIcESaIcEEESaIS6_EESt14default_deleteIS8_EE6_M_ptrEv, symObjAddr: 0x1794, symBinAddr: 0x1000077D8, symSize: 0x1C }
  - { offsetInCU: 0xB9F1, offset: 0x1C2BD, size: 0x8, addend: 0x0, symName: __ZNSt10unique_ptrISt6vectorINSt7__cxx1112basic_stringIcSt11char_traitsIcESaIcEEESaIS6_EESt14default_deleteIS8_EE11get_deleterEv, symObjAddr: 0x17B0, symBinAddr: 0x1000077F4, symSize: 0x1C }
  - { offsetInCU: 0xBAAE, offset: 0x1C37A, size: 0x8, addend: 0x0, symName: __ZNSt11_Tuple_implILm0EJPSt6vectorINSt7__cxx1112basic_stringIcSt11char_traitsIcESaIcEEESaIS6_EESt14default_deleteIS8_EEEC2Ev, symObjAddr: 0x176C, symBinAddr: 0x1000077B0, symSize: 0x28 }
  - { offsetInCU: 0xBAB6, offset: 0x1C382, size: 0x8, addend: 0x0, symName: __ZNSt15__uniq_ptr_implISt6vectorINSt7__cxx1112basic_stringIcSt11char_traitsIcESaIcEEESaIS6_EESt14default_deleteIS8_EE6_M_ptrEv, symObjAddr: 0x1794, symBinAddr: 0x1000077D8, symSize: 0x1C }
  - { offsetInCU: 0xBA5F, offset: 0x1C32B, size: 0x8, addend: 0x0, symName: __ZNK9__gnu_cxx17__normal_iteratorIPNSt7__cxx1112basic_stringIcSt11char_traitsIcESaIcEEESt6vectorIS6_SaIS6_EEEdeEv, symObjAddr: 0x1618, symBinAddr: 0x100007798, symSize: 0x18 }
  - { offsetInCU: 0xBA8E, offset: 0x1C35A, size: 0x8, addend: 0x0, symName: __ZN9__gnu_cxx17__normal_iteratorIPNSt7__cxx1112basic_stringIcSt11char_traitsIcESaIcEEESt6vectorIS6_SaIS6_EEEppEv, symObjAddr: 0x15F0, symBinAddr: 0x100007770, symSize: 0x28 }
  - { offsetInCU: 0xBA96, offset: 0x1C362, size: 0x8, addend: 0x0, symName: __ZNK9__gnu_cxx17__normal_iteratorIPNSt7__cxx1112basic_stringIcSt11char_traitsIcESaIcEEESt6vectorIS6_SaIS6_EEEdeEv, symObjAddr: 0x1618, symBinAddr: 0x100007798, symSize: 0x18 }
  - { offsetInCU: 0xBBA2, offset: 0x1C46E, size: 0x8, addend: 0x0, symName: __ZN9__gnu_cxxneIPNSt7__cxx1112basic_stringIcSt11char_traitsIcESaIcEEESt6vectorIS6_SaIS6_EEEEbRKNS_17__normal_iteratorIT_T0_EESG_, symObjAddr: 0x15AC, symBinAddr: 0x10000772C, symSize: 0x44 }
  - { offsetInCU: 0xBBAA, offset: 0x1C476, size: 0x8, addend: 0x0, symName: __ZN9__gnu_cxx17__normal_iteratorIPNSt7__cxx1112basic_stringIcSt11char_traitsIcESaIcEEESt6vectorIS6_SaIS6_EEEppEv, symObjAddr: 0x15F0, symBinAddr: 0x100007770, symSize: 0x28 }
  - { offsetInCU: 0xBB2A, offset: 0x1C3F6, size: 0x8, addend: 0x0, symName: __ZNSt6vectorINSt7__cxx1112basic_stringIcSt11char_traitsIcESaIcEEESaIS5_EE5eraseEN9__gnu_cxx17__normal_iteratorIPKS5_S7_EESC_, symObjAddr: 0x152C, symBinAddr: 0x1000076AC, symSize: 0x80 }
  - { offsetInCU: 0xBB32, offset: 0x1C3FE, size: 0x8, addend: 0x0, symName: __ZN9__gnu_cxxneIPNSt7__cxx1112basic_stringIcSt11char_traitsIcESaIcEEESt6vectorIS6_SaIS6_EEEEbRKNS_17__normal_iteratorIT_T0_EESG_, symObjAddr: 0x15AC, symBinAddr: 0x10000772C, symSize: 0x44 }
  - { offsetInCU: 0xBCA1, offset: 0x1C56D, size: 0x8, addend: 0x0, symName: __ZN9__gnu_cxx17__normal_iteratorIPKNSt7__cxx1112basic_stringIcSt11char_traitsIcESaIcEEESt6vectorIS6_SaIS6_EEEC1IPS6_EERKNS0_IT_NS_11__enable_ifIXsrSt10__are_sameISF_SE_E7__valueESB_E6__typeEEE, symObjAddr: 0x14FC, symBinAddr: 0x10000767C, symSize: 0x30 }
  - { offsetInCU: 0xBCA9, offset: 0x1C575, size: 0x8, addend: 0x0, symName: __ZNSt6vectorINSt7__cxx1112basic_stringIcSt11char_traitsIcESaIcEEESaIS5_EE5eraseEN9__gnu_cxx17__normal_iteratorIPKS5_S7_EESC_, symObjAddr: 0x152C, symBinAddr: 0x1000076AC, symSize: 0x80 }
  - { offsetInCU: 0xBCEE, offset: 0x1C5BA, size: 0x8, addend: 0x0, symName: __ZSt9remove_ifIN9__gnu_cxx17__normal_iteratorIPNSt7__cxx1112basic_stringIcSt11char_traitsIcESaIcEEESt6vectorIS7_SaIS7_EEEEZN15LiteratureEntry11remove_nameERKS7_EUlSF_E_ET_SH_SH_T0_, symObjAddr: 0x14C8, symBinAddr: 0x100007648, symSize: 0x34 }
  - { offsetInCU: 0xBCF6, offset: 0x1C5C2, size: 0x8, addend: 0x0, symName: __ZN9__gnu_cxx17__normal_iteratorIPKNSt7__cxx1112basic_stringIcSt11char_traitsIcESaIcEEESt6vectorIS6_SaIS6_EEEC1IPS6_EERKNS0_IT_NS_11__enable_ifIXsrSt10__are_sameISF_SE_E7__valueESB_E6__typeEEE, symObjAddr: 0x14FC, symBinAddr: 0x10000767C, symSize: 0x30 }
  - { offsetInCU: 0xBD42, offset: 0x1C60E, size: 0x8, addend: 0x0, symName: __ZSteqIcEN9__gnu_cxx11__enable_ifIXsrSt9__is_charIT_E7__valueEbE6__typeERKNSt7__cxx1112basic_stringIS3_St11char_traitsIS3_ESaIS3_EEESE_, symObjAddr: 0x1448, symBinAddr: 0x1000075C8, symSize: 0x80 }
  - { offsetInCU: 0xBD4A, offset: 0x1C616, size: 0x8, addend: 0x0, symName: __ZSt9remove_ifIN9__gnu_cxx17__normal_iteratorIPNSt7__cxx1112basic_stringIcSt11char_traitsIcESaIcEEESt6vectorIS7_SaIS7_EEEEZN15LiteratureEntry11remove_nameERKS7_EUlSF_E_ET_SH_SH_T0_, symObjAddr: 0x14C8, symBinAddr: 0x100007648, symSize: 0x34 }
  - { offsetInCU: 0xBD04, offset: 0x1C5D0, size: 0x8, addend: 0x0, symName: __ZNSt6vectorINSt7__cxx1112basic_stringIcSt11char_traitsIcESaIcEEESaIS5_EE3endEv, symObjAddr: 0x1420, symBinAddr: 0x1000075A0, symSize: 0x28 }
  - { offsetInCU: 0xBD0C, offset: 0x1C5D8, size: 0x8, addend: 0x0, symName: __ZSteqIcEN9__gnu_cxx11__enable_ifIXsrSt9__is_charIT_E7__valueEbE6__typeERKNSt7__cxx1112basic_stringIS3_St11char_traitsIS3_ESaIS3_EEESE_, symObjAddr: 0x1448, symBinAddr: 0x1000075C8, symSize: 0x80 }
  - { offsetInCU: 0xBD33, offset: 0x1C5FF, size: 0x8, addend: 0x0, symName: __ZNSt6vectorINSt7__cxx1112basic_stringIcSt11char_traitsIcESaIcEEESaIS5_EE5beginEv, symObjAddr: 0x13FC, symBinAddr: 0x10000757C, symSize: 0x24 }
  - { offsetInCU: 0xBD3B, offset: 0x1C607, size: 0x8, addend: 0x0, symName: __ZNSt6vectorINSt7__cxx1112basic_stringIcSt11char_traitsIcESaIcEEESaIS5_EE3endEv, symObjAddr: 0x1420, symBinAddr: 0x1000075A0, symSize: 0x28 }
  - { offsetInCU: 0xBD62, offset: 0x1C62E, size: 0x8, addend: 0x0, symName: __ZNSt6vectorINSt7__cxx1112basic_stringIcSt11char_traitsIcESaIcEEESaIS5_EE9push_backERKS5_, symObjAddr: 0x137C, symBinAddr: 0x1000074FC, symSize: 0x80 }
  - { offsetInCU: 0xBD6A, offset: 0x1C636, size: 0x8, addend: 0x0, symName: __ZNSt6vectorINSt7__cxx1112basic_stringIcSt11char_traitsIcESaIcEEESaIS5_EE5beginEv, symObjAddr: 0x13FC, symBinAddr: 0x10000757C, symSize: 0x24 }
  - { offsetInCU: 0xBDA5, offset: 0x1C671, size: 0x8, addend: 0x0, symName: __ZNKSt10unique_ptrISt6vectorINSt7__cxx1112basic_stringIcSt11char_traitsIcESaIcEEESaIS6_EESt14default_deleteIS8_EEptEv, symObjAddr: 0x1360, symBinAddr: 0x1000074E0, symSize: 0x1C }
  - { offsetInCU: 0xBDAD, offset: 0x1C679, size: 0x8, addend: 0x0, symName: __ZNSt6vectorINSt7__cxx1112basic_stringIcSt11char_traitsIcESaIcEEESaIS5_EE9push_backERKS5_, symObjAddr: 0x137C, symBinAddr: 0x1000074FC, symSize: 0x80 }
  - { offsetInCU: 0xBEC0, offset: 0x1C78C, size: 0x8, addend: 0x0, symName: __ZN9__gnu_cxxneIPKNSt7__cxx1112basic_stringIcSt11char_traitsIcESaIcEEESt6vectorIS6_SaIS6_EEEEbRKNS_17__normal_iteratorIT_T0_EESH_, symObjAddr: 0x131C, symBinAddr: 0x10000749C, symSize: 0x44 }
  - { offsetInCU: 0xBEC8, offset: 0x1C794, size: 0x8, addend: 0x0, symName: __ZNKSt10unique_ptrISt6vectorINSt7__cxx1112basic_stringIcSt11char_traitsIcESaIcEEESaIS6_EESt14default_deleteIS8_EEptEv, symObjAddr: 0x1360, symBinAddr: 0x1000074E0, symSize: 0x1C }
  - { offsetInCU: 0xBF6E, offset: 0x1C83A, size: 0x8, addend: 0x0, symName: __ZSt4findIN9__gnu_cxx17__normal_iteratorIPKNSt7__cxx1112basic_stringIcSt11char_traitsIcESaIcEEESt6vectorIS7_SaIS7_EEEES7_ET_SE_SE_RKT0_, symObjAddr: 0x12E8, symBinAddr: 0x100007468, symSize: 0x34 }
  - { offsetInCU: 0xBF76, offset: 0x1C842, size: 0x8, addend: 0x0, symName: __ZN9__gnu_cxxneIPKNSt7__cxx1112basic_stringIcSt11char_traitsIcESaIcEEESt6vectorIS6_SaIS6_EEEEbRKNS_17__normal_iteratorIT_T0_EESH_, symObjAddr: 0x131C, symBinAddr: 0x10000749C, symSize: 0x44 }
  - { offsetInCU: 0xBEC2, offset: 0x1C78E, size: 0x8, addend: 0x0, symName: __ZNKSt6vectorINSt7__cxx1112basic_stringIcSt11char_traitsIcESaIcEEESaIS5_EE3endEv, symObjAddr: 0x12C0, symBinAddr: 0x100007440, symSize: 0x28 }
  - { offsetInCU: 0xBECA, offset: 0x1C796, size: 0x8, addend: 0x0, symName: __ZSt4findIN9__gnu_cxx17__normal_iteratorIPKNSt7__cxx1112basic_stringIcSt11char_traitsIcESaIcEEESt6vectorIS7_SaIS7_EEEES7_ET_SE_SE_RKT0_, symObjAddr: 0x12E8, symBinAddr: 0x100007468, symSize: 0x34 }
  - { offsetInCU: 0xBEF1, offset: 0x1C7BD, size: 0x8, addend: 0x0, symName: __ZNKSt6vectorINSt7__cxx1112basic_stringIcSt11char_traitsIcESaIcEEESaIS5_EE5beginEv, symObjAddr: 0x129C, symBinAddr: 0x10000741C, symSize: 0x24 }
  - { offsetInCU: 0xBEF9, offset: 0x1C7C5, size: 0x8, addend: 0x0, symName: __ZNKSt6vectorINSt7__cxx1112basic_stringIcSt11char_traitsIcESaIcEEESaIS5_EE3endEv, symObjAddr: 0x12C0, symBinAddr: 0x100007440, symSize: 0x28 }
  - { offsetInCU: 0xBF20, offset: 0x1C7EC, size: 0x8, addend: 0x0, symName: __ZNKSt10unique_ptrISt6vectorINSt7__cxx1112basic_stringIcSt11char_traitsIcESaIcEEESaIS6_EESt14default_deleteIS8_EE3getEv, symObjAddr: 0x1280, symBinAddr: 0x100007400, symSize: 0x1C }
  - { offsetInCU: 0xBF28, offset: 0x1C7F4, size: 0x8, addend: 0x0, symName: __ZNKSt6vectorINSt7__cxx1112basic_stringIcSt11char_traitsIcESaIcEEESaIS5_EE5beginEv, symObjAddr: 0x129C, symBinAddr: 0x10000741C, symSize: 0x24 }
  - { offsetInCU: 0xBF4F, offset: 0x1C81B, size: 0x8, addend: 0x0, symName: __ZNKSt10unique_ptrISt6vectorINSt7__cxx1112basic_stringIcSt11char_traitsIcESaIcEEESaIS6_EESt14default_deleteIS8_EEcvbEv, symObjAddr: 0x1258, symBinAddr: 0x1000073D8, symSize: 0x28 }
  - { offsetInCU: 0xBF57, offset: 0x1C823, size: 0x8, addend: 0x0, symName: __ZNKSt10unique_ptrISt6vectorINSt7__cxx1112basic_stringIcSt11char_traitsIcESaIcEEESaIS6_EESt14default_deleteIS8_EE3getEv, symObjAddr: 0x1280, symBinAddr: 0x100007400, symSize: 0x1C }
  - { offsetInCU: 0xBFF3, offset: 0x1C8BF, size: 0x8, addend: 0x0, symName: __ZNSt6vectorINSt7__cxx1112basic_stringIcSt11char_traitsIcESaIcEEESaIS5_EED1Ev, symObjAddr: 0x1208, symBinAddr: 0x100007388, symSize: 0x50 }
  - { offsetInCU: 0xBFFB, offset: 0x1C8C7, size: 0x8, addend: 0x0, symName: __ZNKSt10unique_ptrISt6vectorINSt7__cxx1112basic_stringIcSt11char_traitsIcESaIcEEESaIS6_EESt14default_deleteIS8_EEcvbEv, symObjAddr: 0x1258, symBinAddr: 0x1000073D8, symSize: 0x28 }
  - { offsetInCU: 0xC04F, offset: 0x1C91B, size: 0x8, addend: 0x0, symName: __ZNSt6vectorINSt7__cxx1112basic_stringIcSt11char_traitsIcESaIcEEESaIS5_EEC1ERKS7_, symObjAddr: 0x1124, symBinAddr: 0x1000072A4, symSize: 0xE4 }
  - { offsetInCU: 0xC057, offset: 0x1C923, size: 0x8, addend: 0x0, symName: __ZNSt6vectorINSt7__cxx1112basic_stringIcSt11char_traitsIcESaIcEEESaIS5_EED1Ev, symObjAddr: 0x1208, symBinAddr: 0x100007388, symSize: 0x50 }
  - { offsetInCU: 0xC0B9, offset: 0x1C985, size: 0x8, addend: 0x0, symName: __ZSt11__addressofINSt7__cxx1112basic_stringIcSt11char_traitsIcESaIcEEEEPT_RS6_, symObjAddr: 0x1110, symBinAddr: 0x100007290, symSize: 0x14 }
  - { offsetInCU: 0xC0C1, offset: 0x1C98D, size: 0x8, addend: 0x0, symName: __ZNSt6vectorINSt7__cxx1112basic_stringIcSt11char_traitsIcESaIcEEESaIS5_EEC1ERKS7_, symObjAddr: 0x1124, symBinAddr: 0x1000072A4, symSize: 0xE4 }
  - { offsetInCU: 0xC081, offset: 0x1C94D, size: 0x8, addend: 0x0, symName: __ZNSt15__uniq_ptr_implISt6vectorINSt7__cxx1112basic_stringIcSt11char_traitsIcESaIcEEESaIS6_EESt14default_deleteIS8_EEaSEOSB_, symObjAddr: 0x10CC, symBinAddr: 0x10000724C, symSize: 0x44 }
  - { offsetInCU: 0xC089, offset: 0x1C955, size: 0x8, addend: 0x0, symName: __ZSt11__addressofINSt7__cxx1112basic_stringIcSt11char_traitsIcESaIcEEEEPT_RS6_, symObjAddr: 0x1110, symBinAddr: 0x100007290, symSize: 0x14 }
  - { offsetInCU: 0xC0C3, offset: 0x1C98F, size: 0x8, addend: 0x0, symName: __ZNSt10unique_ptrISt6vectorINSt7__cxx1112basic_stringIcSt11char_traitsIcESaIcEEESaIS6_EESt14default_deleteIS8_EEaSEDn, symObjAddr: 0x10A4, symBinAddr: 0x100007224, symSize: 0x28 }
  - { offsetInCU: 0xC0CB, offset: 0x1C997, size: 0x8, addend: 0x0, symName: __ZNSt15__uniq_ptr_implISt6vectorINSt7__cxx1112basic_stringIcSt11char_traitsIcESaIcEEESaIS6_EESt14default_deleteIS8_EEaSEOSB_, symObjAddr: 0x10CC, symBinAddr: 0x10000724C, symSize: 0x44 }
  - { offsetInCU: 0xC13F, offset: 0x1CA0B, size: 0x8, addend: 0x0, symName: __ZSt4moveIRiEONSt16remove_referenceIT_E4typeEOS2_, symObjAddr: 0x1090, symBinAddr: 0x100007210, symSize: 0x14 }
  - { offsetInCU: 0xC147, offset: 0x1CA13, size: 0x8, addend: 0x0, symName: __ZNSt10unique_ptrISt6vectorINSt7__cxx1112basic_stringIcSt11char_traitsIcESaIcEEESaIS6_EESt14default_deleteIS8_EEaSEDn, symObjAddr: 0x10A4, symBinAddr: 0x100007224, symSize: 0x28 }
  - { offsetInCU: 0xC1ED, offset: 0x1CAB9, size: 0x8, addend: 0x0, symName: __ZSt4moveIRNSt7__cxx1112basic_stringIcSt11char_traitsIcESaIcEEEEONSt16remove_referenceIT_E4typeEOS8_, symObjAddr: 0x107C, symBinAddr: 0x1000071FC, symSize: 0x14 }
  - { offsetInCU: 0xC1F5, offset: 0x1CAC1, size: 0x8, addend: 0x0, symName: __ZSt4moveIRiEONSt16remove_referenceIT_E4typeEOS2_, symObjAddr: 0x1090, symBinAddr: 0x100007210, symSize: 0x14 }
  - { offsetInCU: 0xC33C, offset: 0x1CC08, size: 0x8, addend: 0x0, symName: __ZSt11make_uniqueISt6vectorINSt7__cxx1112basic_stringIcSt11char_traitsIcESaIcEEESaIS6_EEJRS8_EENSt9_MakeUniqIT_E15__single_objectEDpOT0_, symObjAddr: 0x1004, symBinAddr: 0x100007184, symSize: 0x78 }
  - { offsetInCU: 0xC344, offset: 0x1CC10, size: 0x8, addend: 0x0, symName: __ZSt4moveIRNSt7__cxx1112basic_stringIcSt11char_traitsIcESaIcEEEEONSt16remove_referenceIT_E4typeEOS8_, symObjAddr: 0x107C, symBinAddr: 0x1000071FC, symSize: 0x14 }
  - { offsetInCU: 0xC209, offset: 0x1CAD5, size: 0x8, addend: 0x0, symName: __ZNKSt10unique_ptrISt6vectorINSt7__cxx1112basic_stringIcSt11char_traitsIcESaIcEEESaIS6_EESt14default_deleteIS8_EEdeEv, symObjAddr: 0xFE0, symBinAddr: 0x100007160, symSize: 0x24 }
  - { offsetInCU: 0xC211, offset: 0x1CADD, size: 0x8, addend: 0x0, symName: __ZSt11make_uniqueISt6vectorINSt7__cxx1112basic_stringIcSt11char_traitsIcESaIcEEESaIS6_EEJRS8_EENSt9_MakeUniqIT_E15__single_objectEDpOT0_, symObjAddr: 0x1004, symBinAddr: 0x100007184, symSize: 0x78 }
  - { offsetInCU: 0xC2A7, offset: 0x1CB73, size: 0x8, addend: 0x0, symName: __Z17check_nonnegativeIiET_S0_RKNSt7__cxx1112basic_stringIcSt11char_traitsIcESaIcEEE, symObjAddr: 0xF34, symBinAddr: 0x1000070B4, symSize: 0xAC }
  - { offsetInCU: 0xC2AF, offset: 0x1CB7B, size: 0x8, addend: 0x0, symName: __ZNKSt10unique_ptrISt6vectorINSt7__cxx1112basic_stringIcSt11char_traitsIcESaIcEEESaIS6_EESt14default_deleteIS8_EEdeEv, symObjAddr: 0xFE0, symBinAddr: 0x100007160, symSize: 0x24 }
  - { offsetInCU: 0xC33B, offset: 0x1CC07, size: 0x8, addend: 0x0, symName: __ZNSt15__uniq_ptr_implISt6vectorINSt7__cxx1112basic_stringIcSt11char_traitsIcESaIcEEESaIS6_EESt14default_deleteIS8_EEC2EOSB_, symObjAddr: 0xEEC, symBinAddr: 0x10000706C, symSize: 0x48 }
  - { offsetInCU: 0xC343, offset: 0x1CC0F, size: 0x8, addend: 0x0, symName: __Z17check_nonnegativeIiET_S0_RKNSt7__cxx1112basic_stringIcSt11char_traitsIcESaIcEEE, symObjAddr: 0xF34, symBinAddr: 0x1000070B4, symSize: 0xAC }
  - { offsetInCU: 0xC38F, offset: 0x1CC5B, size: 0x8, addend: 0x0, symName: __ZNSt5tupleIJPSt6vectorINSt7__cxx1112basic_stringIcSt11char_traitsIcESaIcEEESaIS6_EESt14default_deleteIS8_EEEC1EOSC_, symObjAddr: 0xEC4, symBinAddr: 0x100007044, symSize: 0x28 }
  - { offsetInCU: 0xC397, offset: 0x1CC63, size: 0x8, addend: 0x0, symName: __ZNSt15__uniq_ptr_implISt6vectorINSt7__cxx1112basic_stringIcSt11char_traitsIcESaIcEEESaIS6_EESt14default_deleteIS8_EEC2EOSB_, symObjAddr: 0xEEC, symBinAddr: 0x10000706C, symSize: 0x48 }
  - { offsetInCU: 0xC3F6, offset: 0x1CCC2, size: 0x8, addend: 0x0, symName: __ZNSt11_Tuple_implILm0EJPSt6vectorINSt7__cxx1112basic_stringIcSt11char_traitsIcESaIcEEESaIS6_EESt14default_deleteIS8_EEEC2EOSC_, symObjAddr: 0xE8C, symBinAddr: 0x10000700C, symSize: 0x38 }
  - { offsetInCU: 0xC3FE, offset: 0x1CCCA, size: 0x8, addend: 0x0, symName: __ZNSt5tupleIJPSt6vectorINSt7__cxx1112basic_stringIcSt11char_traitsIcESaIcEEESaIS6_EESt14default_deleteIS8_EEEC1EOSC_, symObjAddr: 0xEC4, symBinAddr: 0x100007044, symSize: 0x28 }
  - { offsetInCU: 0xC49A, offset: 0x1CD66, size: 0x8, addend: 0x0, symName: __ZSt4moveIRSt10unique_ptrISt6vectorINSt7__cxx1112basic_stringIcSt11char_traitsIcESaIcEEESaIS7_EESt14default_deleteIS9_EEEONSt16remove_referenceIT_E4typeEOSF_, symObjAddr: 0xE78, symBinAddr: 0x100006FF8, symSize: 0x14 }
  - { offsetInCU: 0xC4A2, offset: 0x1CD6E, size: 0x8, addend: 0x0, symName: __ZNSt11_Tuple_implILm0EJPSt6vectorINSt7__cxx1112basic_stringIcSt11char_traitsIcESaIcEEESaIS6_EESt14default_deleteIS8_EEEC2EOSC_, symObjAddr: 0xE8C, symBinAddr: 0x10000700C, symSize: 0x38 }
  - { offsetInCU: 0xC4B3, offset: 0x1CD7F, size: 0x8, addend: 0x0, symName: __ZNSt10unique_ptrISt6vectorINSt7__cxx1112basic_stringIcSt11char_traitsIcESaIcEEESaIS6_EESt14default_deleteIS8_EED1Ev, symObjAddr: 0xE10, symBinAddr: 0x100006F90, symSize: 0x68 }
  - { offsetInCU: 0xC4BB, offset: 0x1CD87, size: 0x8, addend: 0x0, symName: __ZSt4moveIRSt10unique_ptrISt6vectorINSt7__cxx1112basic_stringIcSt11char_traitsIcESaIcEEESaIS7_EESt14default_deleteIS9_EEEONSt16remove_referenceIT_E4typeEOSF_, symObjAddr: 0xE78, symBinAddr: 0x100006FF8, symSize: 0x14 }
  - { offsetInCU: 0xC549, offset: 0x1CE15, size: 0x8, addend: 0x0, symName: __ZNSt5tupleIJPSt6vectorINSt7__cxx1112basic_stringIcSt11char_traitsIcESaIcEEESaIS6_EESt14default_deleteIS8_EEEC1ILb1ELb1EEEv, symObjAddr: 0xDF0, symBinAddr: 0x100006F70, symSize: 0x20 }
  - { offsetInCU: 0xC551, offset: 0x1CE1D, size: 0x8, addend: 0x0, symName: __ZNSt10unique_ptrISt6vectorINSt7__cxx1112basic_stringIcSt11char_traitsIcESaIcEEESaIS6_EESt14default_deleteIS8_EED1Ev, symObjAddr: 0xE10, symBinAddr: 0x100006F90, symSize: 0x68 }
  - { offsetInCU: 0xC53B, offset: 0x1CE07, size: 0x8, addend: 0x0, symName: __ZSt3maxImERKT_S2_S2_, symObjAddr: 0xD20, symBinAddr: 0x100006F38, symSize: 0x38 }
  - { offsetInCU: 0xC5FA, offset: 0x1CEC6, size: 0x8, addend: 0x0, symName: __ZStplIcSt11char_traitsIcESaIcEENSt7__cxx1112basic_stringIT_T0_T1_EERKS8_PKS5_, symObjAddr: 0xCC8, symBinAddr: 0x100006EE0, symSize: 0x58 }
  - { offsetInCU: 0xC602, offset: 0x1CECE, size: 0x8, addend: 0x0, symName: __ZSt3maxImERKT_S2_S2_, symObjAddr: 0xD20, symBinAddr: 0x100006F38, symSize: 0x38 }
  - { offsetInCU: 0xC5F5, offset: 0x1CEC1, size: 0x8, addend: 0x0, symName: __ZNK15LiteratureEntry10print_dataEv, symObjAddr: 0xAD0, symBinAddr: 0x100006D90, symSize: 0x150 }
  - { offsetInCU: 0xC67F, offset: 0x1CF4B, size: 0x8, addend: 0x0, symName: __ZN15LiteratureEntry8set_yearEi, symObjAddr: 0xA38, symBinAddr: 0x100006CF8, symSize: 0x98 }
  - { offsetInCU: 0xC687, offset: 0x1CF53, size: 0x8, addend: 0x0, symName: __ZNK15LiteratureEntry10print_dataEv, symObjAddr: 0xAD0, symBinAddr: 0x100006D90, symSize: 0x150 }
  - { offsetInCU: 0xC6C1, offset: 0x1CF8D, size: 0x8, addend: 0x0, symName: __ZN15LiteratureEntry11remove_nameERKNSt7__cxx1112basic_stringIcSt11char_traitsIcESaIcEEE, symObjAddr: 0x98C, symBinAddr: 0x100006C4C, symSize: 0xAC }
  - { offsetInCU: 0xC6C9, offset: 0x1CF95, size: 0x8, addend: 0x0, symName: __ZN15LiteratureEntry8set_yearEi, symObjAddr: 0xA38, symBinAddr: 0x100006CF8, symSize: 0x98 }
  - { offsetInCU: 0xC77F, offset: 0x1D04B, size: 0x8, addend: 0x0, symName: __ZZN15LiteratureEntry11remove_nameERKNSt7__cxx1112basic_stringIcSt11char_traitsIcESaIcEEEENKUlS7_E_clES7_, symObjAddr: 0x95C, symBinAddr: 0x100006C1C, symSize: 0x30 }
  - { offsetInCU: 0xC787, offset: 0x1D053, size: 0x8, addend: 0x0, symName: __ZN15LiteratureEntry11remove_nameERKNSt7__cxx1112basic_stringIcSt11char_traitsIcESaIcEEE, symObjAddr: 0x98C, symBinAddr: 0x100006C4C, symSize: 0xAC }
  - { offsetInCU: 0xC7F2, offset: 0x1D0BE, size: 0x8, addend: 0x0, symName: __ZN15LiteratureEntry8add_nameERKNSt7__cxx1112basic_stringIcSt11char_traitsIcESaIcEEE, symObjAddr: 0x92C, symBinAddr: 0x100006BEC, symSize: 0x30 }
  - { offsetInCU: 0xC7FA, offset: 0x1D0C6, size: 0x8, addend: 0x0, symName: __ZZN15LiteratureEntry11remove_nameERKNSt7__cxx1112basic_stringIcSt11char_traitsIcESaIcEEEENKUlS7_E_clES7_, symObjAddr: 0x95C, symBinAddr: 0x100006C1C, symSize: 0x30 }
  - { offsetInCU: 0xC834, offset: 0x1D100, size: 0x8, addend: 0x0, symName: __ZNK15LiteratureEntry7is_nameERKNSt7__cxx1112basic_stringIcSt11char_traitsIcESaIcEEE, symObjAddr: 0x88C, symBinAddr: 0x100006B4C, symSize: 0xA0 }
  - { offsetInCU: 0xC83C, offset: 0x1D108, size: 0x8, addend: 0x0, symName: __ZN15LiteratureEntry8add_nameERKNSt7__cxx1112basic_stringIcSt11char_traitsIcESaIcEEE, symObjAddr: 0x92C, symBinAddr: 0x100006BEC, symSize: 0x30 }
  - { offsetInCU: 0xC89C, offset: 0x1D168, size: 0x8, addend: 0x0, symName: __ZNK15LiteratureEntry9get_namesB5cxx11Ev, symObjAddr: 0x850, symBinAddr: 0x100006B10, symSize: 0x3C }
  - { offsetInCU: 0xC8A4, offset: 0x1D170, size: 0x8, addend: 0x0, symName: __ZNK15LiteratureEntry7is_nameERKNSt7__cxx1112basic_stringIcSt11char_traitsIcESaIcEEE, symObjAddr: 0x88C, symBinAddr: 0x100006B4C, symSize: 0xA0 }
  - { offsetInCU: 0xC8CB, offset: 0x1D197, size: 0x8, addend: 0x0, symName: __ZN15LiteratureEntryaSEOS_, symObjAddr: 0x7AC, symBinAddr: 0x100006A6C, symSize: 0xA4 }
  - { offsetInCU: 0xC8D3, offset: 0x1D19F, size: 0x8, addend: 0x0, symName: __ZNK15LiteratureEntry9get_namesB5cxx11Ev, symObjAddr: 0x850, symBinAddr: 0x100006B10, symSize: 0x3C }
  - { offsetInCU: 0xC90D, offset: 0x1D1D9, size: 0x8, addend: 0x0, symName: __ZN15LiteratureEntryaSERKS_, symObjAddr: 0x714, symBinAddr: 0x1000069D4, symSize: 0x98 }
  - { offsetInCU: 0xC915, offset: 0x1D1E1, size: 0x8, addend: 0x0, symName: __ZN15LiteratureEntryaSEOS_, symObjAddr: 0x7AC, symBinAddr: 0x100006A6C, symSize: 0xA4 }
  - { offsetInCU: 0xC94F, offset: 0x1D21B, size: 0x8, addend: 0x0, symName: __ZNSt10unique_ptrISt6vectorINSt7__cxx1112basic_stringIcSt11char_traitsIcESaIcEEESaIS6_EESt14default_deleteIS8_EEaSEOSB_, symObjAddr: 0x6EC, symBinAddr: 0x1000069AC, symSize: 0x28 }
  - { offsetInCU: 0xC957, offset: 0x1D223, size: 0x8, addend: 0x0, symName: __ZN15LiteratureEntryaSERKS_, symObjAddr: 0x714, symBinAddr: 0x1000069D4, symSize: 0x98 }
  - { offsetInCU: 0xC98A, offset: 0x1D256, size: 0x8, addend: 0x0, symName: __ZNSt15__uniq_ptr_dataISt6vectorINSt7__cxx1112basic_stringIcSt11char_traitsIcESaIcEEESaIS6_EESt14default_deleteIS8_ELb1ELb1EEaSEOSB_, symObjAddr: 0x6C4, symBinAddr: 0x100006984, symSize: 0x28 }
  - { offsetInCU: 0xC992, offset: 0x1D25E, size: 0x8, addend: 0x0, symName: __ZNSt10unique_ptrISt6vectorINSt7__cxx1112basic_stringIcSt11char_traitsIcESaIcEEESaIS6_EESt14default_deleteIS8_EEaSEOSB_, symObjAddr: 0x6EC, symBinAddr: 0x1000069AC, symSize: 0x28 }
  - { offsetInCU: 0xCA09, offset: 0x1D2D5, size: 0x8, addend: 0x0, symName: __ZN15LiteratureEntryC1EOS_, symObjAddr: 0x608, symBinAddr: 0x1000068C8, symSize: 0xBC }
  - { offsetInCU: 0xCA11, offset: 0x1D2DD, size: 0x8, addend: 0x0, symName: __ZNSt15__uniq_ptr_dataISt6vectorINSt7__cxx1112basic_stringIcSt11char_traitsIcESaIcEEESaIS6_EESt14default_deleteIS8_ELb1ELb1EEaSEOSB_, symObjAddr: 0x6C4, symBinAddr: 0x100006984, symSize: 0x28 }
  - { offsetInCU: 0xCA43, offset: 0x1D30F, size: 0x8, addend: 0x0, symName: __ZN15LiteratureEntryC2EOS_, symObjAddr: 0x54C, symBinAddr: 0x10000680C, symSize: 0xBC }
  - { offsetInCU: 0xCA4B, offset: 0x1D317, size: 0x8, addend: 0x0, symName: __ZN15LiteratureEntryC1EOS_, symObjAddr: 0x608, symBinAddr: 0x1000068C8, symSize: 0xBC }
  - { offsetInCU: 0xCAA7, offset: 0x1D373, size: 0x8, addend: 0x0, symName: __ZN15LiteratureEntryC1ERKS_, symObjAddr: 0x4B0, symBinAddr: 0x100006770, symSize: 0x9C }
  - { offsetInCU: 0xCAAF, offset: 0x1D37B, size: 0x8, addend: 0x0, symName: __ZN15LiteratureEntryC2EOS_, symObjAddr: 0x54C, symBinAddr: 0x10000680C, symSize: 0xBC }
  - { offsetInCU: 0xCAE1, offset: 0x1D3AD, size: 0x8, addend: 0x0, symName: __ZN15LiteratureEntryC2ERKS_, symObjAddr: 0x414, symBinAddr: 0x1000066D4, symSize: 0x9C }
  - { offsetInCU: 0xCAE9, offset: 0x1D3B5, size: 0x8, addend: 0x0, symName: __ZN15LiteratureEntryC1ERKS_, symObjAddr: 0x4B0, symBinAddr: 0x100006770, symSize: 0x9C }
  - { offsetInCU: 0xCBD3, offset: 0x1D49F, size: 0x8, addend: 0x0, symName: __ZN15LiteratureEntryC1ERKNSt7__cxx1112basic_stringIcSt11char_traitsIcESaIcEEESt10unique_ptrISt6vectorIS5_SaIS5_EESt14default_deleteISB_EEi, symObjAddr: 0x318, symBinAddr: 0x1000065D8, symSize: 0xFC }
  - { offsetInCU: 0xCBDB, offset: 0x1D4A7, size: 0x8, addend: 0x0, symName: __ZN15LiteratureEntryC2ERKS_, symObjAddr: 0x414, symBinAddr: 0x1000066D4, symSize: 0x9C }
  - { offsetInCU: 0xCC28, offset: 0x1D4F4, size: 0x8, addend: 0x0, symName: __ZN15LiteratureEntryC2ERKNSt7__cxx1112basic_stringIcSt11char_traitsIcESaIcEEESt10unique_ptrISt6vectorIS5_SaIS5_EESt14default_deleteISB_EEi, symObjAddr: 0x21C, symBinAddr: 0x1000064DC, symSize: 0xFC }
  - { offsetInCU: 0xCC30, offset: 0x1D4FC, size: 0x8, addend: 0x0, symName: __ZN15LiteratureEntryC1ERKNSt7__cxx1112basic_stringIcSt11char_traitsIcESaIcEEESt10unique_ptrISt6vectorIS5_SaIS5_EESt14default_deleteISB_EEi, symObjAddr: 0x318, symBinAddr: 0x1000065D8, symSize: 0xFC }
  - { offsetInCU: 0xCC8C, offset: 0x1D558, size: 0x8, addend: 0x0, symName: __ZNSt10unique_ptrISt6vectorINSt7__cxx1112basic_stringIcSt11char_traitsIcESaIcEEESaIS6_EESt14default_deleteIS8_EEC1EOSB_, symObjAddr: 0x1F4, symBinAddr: 0x1000064B4, symSize: 0x28 }
  - { offsetInCU: 0xCC94, offset: 0x1D560, size: 0x8, addend: 0x0, symName: __ZN15LiteratureEntryC2ERKNSt7__cxx1112basic_stringIcSt11char_traitsIcESaIcEEESt10unique_ptrISt6vectorIS5_SaIS5_EESt14default_deleteISB_EEi, symObjAddr: 0x21C, symBinAddr: 0x1000064DC, symSize: 0xFC }
  - { offsetInCU: 0xCCF5, offset: 0x1D5C1, size: 0x8, addend: 0x0, symName: __ZNSt15__uniq_ptr_dataISt6vectorINSt7__cxx1112basic_stringIcSt11char_traitsIcESaIcEEESaIS6_EESt14default_deleteIS8_ELb1ELb1EEC1EOSB_, symObjAddr: 0x1CC, symBinAddr: 0x10000648C, symSize: 0x28 }
  - { offsetInCU: 0xCCFD, offset: 0x1D5C9, size: 0x8, addend: 0x0, symName: __ZNSt10unique_ptrISt6vectorINSt7__cxx1112basic_stringIcSt11char_traitsIcESaIcEEESaIS6_EESt14default_deleteIS8_EEC1EOSB_, symObjAddr: 0x1F4, symBinAddr: 0x1000064B4, symSize: 0x28 }
  - { offsetInCU: 0xCCDB, offset: 0x1D5A7, size: 0x8, addend: 0x0, symName: __ZSt3minImERKT_S2_S2_, symObjAddr: 0x194, symBinAddr: 0x100006454, symSize: 0x38 }
  - { offsetInCU: 0xCCE3, offset: 0x1D5AF, size: 0x8, addend: 0x0, symName: __ZNSt15__uniq_ptr_dataISt6vectorINSt7__cxx1112basic_stringIcSt11char_traitsIcESaIcEEESaIS6_EESt14default_deleteIS8_ELb1ELb1EEC1EOSB_, symObjAddr: 0x1CC, symBinAddr: 0x10000648C, symSize: 0x28 }
  - { offsetInCU: 0xCD07, offset: 0x1D5D3, size: 0x8, addend: 0x0, symName: __ZNSt11char_traitsIcE7compareEPKcS2_m, symObjAddr: 0x68, symBinAddr: 0x100006368, symSize: 0xEC }
  - { offsetInCU: 0xCD87, offset: 0x1D653, size: 0x8, addend: 0x0, symName: __ZNSt11char_traitsIcE2ltERKcS2_, symObjAddr: 0x30, symBinAddr: 0x100006330, symSize: 0x38 }
  - { offsetInCU: 0xCD8F, offset: 0x1D65B, size: 0x8, addend: 0x0, symName: __ZNSt11char_traitsIcE7compareEPKcS2_m, symObjAddr: 0x68, symBinAddr: 0x100006368, symSize: 0xEC }
  - { offsetInCU: 0xDA, offset: 0x1D77C, size: 0x8, addend: 0x0, symName: GCC_except_table0, symObjAddr: 0x28A8, symBinAddr: 0x1000342A0, symSize: 0x0 }
  - { offsetInCU: 0x53EB, offset: 0x22A8D, size: 0x8, addend: 0x0, symName: __ZStL8__ioinit, symObjAddr: 0x3B928, symBinAddr: 0x1000350A1, symSize: 0x0 }
  - { offsetInCU: 0x5499, offset: 0x22B3B, size: 0x8, addend: 0x0, symName: __ZN9__gnu_cxxL21__default_lock_policyE, symObjAddr: 0x2BC8, symBinAddr: 0x10001F770, symSize: 0x0 }
  - { offsetInCU: 0x5501, offset: 0x22BA3, size: 0x8, addend: 0x0, symName: __ZN6__pstl9execution2v1L3seqE, symObjAddr: 0x2BCC, symBinAddr: 0x10001F774, symSize: 0x0 }
  - { offsetInCU: 0x551B, offset: 0x22BBD, size: 0x8, addend: 0x0, symName: __ZN6__pstl9execution2v1L3parE, symObjAddr: 0x2BCD, symBinAddr: 0x10001F775, symSize: 0x0 }
  - { offsetInCU: 0x553B, offset: 0x22BDD, size: 0x8, addend: 0x0, symName: __ZN6__pstl9execution2v1L9par_unseqE, symObjAddr: 0x2BCE, symBinAddr: 0x10001F776, symSize: 0x0 }
  - { offsetInCU: 0x5551, offset: 0x22BF3, size: 0x8, addend: 0x0, symName: __ZN6__pstl9execution2v1L5unseqE, symObjAddr: 0x2BCF, symBinAddr: 0x10001F777, symSize: 0x0 }
  - { offsetInCU: 0x99EC, offset: 0x2708E, size: 0x8, addend: 0x0, symName: __GLOBAL__sub_I_Book.cpp, symObjAddr: 0x288C, symBinAddr: 0x10000B194, symSize: 0x1C }
  - { offsetInCU: 0x99F4, offset: 0x27096, size: 0x8, addend: 0x0, symName: GCC_except_table0, symObjAddr: 0x28A8, symBinAddr: 0x1000342A0, symSize: 0x0 }
  - { offsetInCU: 0x9A18, offset: 0x270BA, size: 0x8, addend: 0x0, symName: __Z41__static_initialization_and_destruction_0ii, symObjAddr: 0x282C, symBinAddr: 0x10000B134, symSize: 0x60 }
  - { offsetInCU: 0x9A20, offset: 0x270C2, size: 0x8, addend: 0x0, symName: __GLOBAL__sub_I_Book.cpp, symObjAddr: 0x288C, symBinAddr: 0x10000B194, symSize: 0x1C }
  - { offsetInCU: 0x9A9C, offset: 0x2713E, size: 0x8, addend: 0x0, symName: __ZNSt14default_deleteI15LiteratureEntryEC1I4BookvEERKS_IT_E, symObjAddr: 0x2800, symBinAddr: 0x10000B11C, symSize: 0x18 }
  - { offsetInCU: 0x9AA7, offset: 0x27149, size: 0x8, addend: 0x0, symName: __ZNSt10_Head_baseILm1ESt14default_deleteI4BookELb1EE7_M_headERS3_, symObjAddr: 0x27EC, symBinAddr: 0x10000B108, symSize: 0x14 }
  - { offsetInCU: 0x9AAF, offset: 0x27151, size: 0x8, addend: 0x0, symName: __ZNSt14default_deleteI15LiteratureEntryEC1I4BookvEERKS_IT_E, symObjAddr: 0x2800, symBinAddr: 0x10000B11C, symSize: 0x18 }
  - { offsetInCU: 0x9B2A, offset: 0x271CC, size: 0x8, addend: 0x0, symName: __ZNSt10_Head_baseILm1ESt14default_deleteI4BookELb1EEC2Ev, symObjAddr: 0x27D8, symBinAddr: 0x10000B0F4, symSize: 0x14 }
  - { offsetInCU: 0x9B32, offset: 0x271D4, size: 0x8, addend: 0x0, symName: __ZNSt10_Head_baseILm1ESt14default_deleteI4BookELb1EE7_M_headERS3_, symObjAddr: 0x27EC, symBinAddr: 0x10000B108, symSize: 0x14 }
  - { offsetInCU: 0x9BB2, offset: 0x27254, size: 0x8, addend: 0x0, symName: __ZNSt10_Head_baseILm1ESt14default_deleteI15LiteratureEntryELb1EEC2IS0_I4BookEEEOT_, symObjAddr: 0x2708, symBinAddr: 0x10000B0B8, symSize: 0x3C }
  - { offsetInCU: 0x9BA6, offset: 0x27248, size: 0x8, addend: 0x0, symName: __ZNSt11_Tuple_implILm1EJSt14default_deleteI4BookEEE7_M_headERS3_, symObjAddr: 0x26EC, symBinAddr: 0x10000B09C, symSize: 0x1C }
  - { offsetInCU: 0x9BAE, offset: 0x27250, size: 0x8, addend: 0x0, symName: __ZNSt10_Head_baseILm1ESt14default_deleteI15LiteratureEntryELb1EEC2IS0_I4BookEEEOT_, symObjAddr: 0x2708, symBinAddr: 0x10000B0B8, symSize: 0x3C }
  - { offsetInCU: 0x9BD8, offset: 0x2727A, size: 0x8, addend: 0x0, symName: __ZNSt10_Head_baseILm0EP4BookLb0EE7_M_headERS2_, symObjAddr: 0x26D8, symBinAddr: 0x10000B088, symSize: 0x14 }
  - { offsetInCU: 0x9BE0, offset: 0x27282, size: 0x8, addend: 0x0, symName: __ZNSt11_Tuple_implILm1EJSt14default_deleteI4BookEEE7_M_headERS3_, symObjAddr: 0x26EC, symBinAddr: 0x10000B09C, symSize: 0x1C }
  - { offsetInCU: 0x9C48, offset: 0x272EA, size: 0x8, addend: 0x0, symName: __ZNSt10_Head_baseILm0EP4BookLb0EEC2Ev, symObjAddr: 0x26BC, symBinAddr: 0x10000B06C, symSize: 0x1C }
  - { offsetInCU: 0x9C50, offset: 0x272F2, size: 0x8, addend: 0x0, symName: __ZNSt10_Head_baseILm0EP4BookLb0EE7_M_headERS2_, symObjAddr: 0x26D8, symBinAddr: 0x10000B088, symSize: 0x14 }
  - { offsetInCU: 0x9CA1, offset: 0x27343, size: 0x8, addend: 0x0, symName: __ZNSt11_Tuple_implILm1EJSt14default_deleteI4BookEEEC2Ev, symObjAddr: 0x269C, symBinAddr: 0x10000B04C, symSize: 0x20 }
  - { offsetInCU: 0x9CA9, offset: 0x2734B, size: 0x8, addend: 0x0, symName: __ZNSt10_Head_baseILm0EP4BookLb0EEC2Ev, symObjAddr: 0x26BC, symBinAddr: 0x10000B06C, symSize: 0x1C }
  - { offsetInCU: 0x9D07, offset: 0x273A9, size: 0x8, addend: 0x0, symName: __ZNSt10_Head_baseILm0EP15LiteratureEntryLb0EEC2IRS1_EEOT_, symObjAddr: 0x2590, symBinAddr: 0x10000B01C, symSize: 0x30 }
  - { offsetInCU: 0x9D9D, offset: 0x2743F, size: 0x8, addend: 0x0, symName: __ZNSt11_Tuple_implILm1EJSt14default_deleteI15LiteratureEntryEEEC2IS0_I4BookEEEOT_, symObjAddr: 0x2560, symBinAddr: 0x10000AFEC, symSize: 0x30 }
  - { offsetInCU: 0x9DA5, offset: 0x27447, size: 0x8, addend: 0x0, symName: __ZNSt10_Head_baseILm0EP15LiteratureEntryLb0EEC2IRS1_EEOT_, symObjAddr: 0x2590, symBinAddr: 0x10000B01C, symSize: 0x30 }
  - { offsetInCU: 0x9E1B, offset: 0x274BD, size: 0x8, addend: 0x0, symName: __ZSt12__get_helperILm1ESt14default_deleteI4BookEJEERT0_RSt11_Tuple_implIXT_EJS3_DpT1_EE, symObjAddr: 0x2544, symBinAddr: 0x10000AFD0, symSize: 0x1C }
  - { offsetInCU: 0x9E23, offset: 0x274C5, size: 0x8, addend: 0x0, symName: __ZNSt11_Tuple_implILm1EJSt14default_deleteI15LiteratureEntryEEEC2IS0_I4BookEEEOT_, symObjAddr: 0x2560, symBinAddr: 0x10000AFEC, symSize: 0x30 }
  - { offsetInCU: 0x9DF1, offset: 0x27493, size: 0x8, addend: 0x0, symName: __ZNSt11_Tuple_implILm0EJP4BookSt14default_deleteIS0_EEE7_M_headERS4_, symObjAddr: 0x2528, symBinAddr: 0x10000AFB4, symSize: 0x1C }
  - { offsetInCU: 0x9DF9, offset: 0x2749B, size: 0x8, addend: 0x0, symName: __ZSt12__get_helperILm1ESt14default_deleteI4BookEJEERT0_RSt11_Tuple_implIXT_EJS3_DpT1_EE, symObjAddr: 0x2544, symBinAddr: 0x10000AFD0, symSize: 0x1C }
  - { offsetInCU: 0x9E78, offset: 0x2751A, size: 0x8, addend: 0x0, symName: __ZNSt11_Tuple_implILm0EJP4BookSt14default_deleteIS0_EEEC2Ev, symObjAddr: 0x2500, symBinAddr: 0x10000AF8C, symSize: 0x28 }
  - { offsetInCU: 0x9E80, offset: 0x27522, size: 0x8, addend: 0x0, symName: __ZNSt11_Tuple_implILm0EJP4BookSt14default_deleteIS0_EEE7_M_headERS4_, symObjAddr: 0x2528, symBinAddr: 0x10000AFB4, symSize: 0x1C }
  - { offsetInCU: 0x9EE3, offset: 0x27585, size: 0x8, addend: 0x0, symName: __ZSt10__distanceIPcENSt15iterator_traitsIT_E15difference_typeES2_S2_St26random_access_iterator_tag, symObjAddr: 0x24DC, symBinAddr: 0x10000AF68, symSize: 0x24 }
  - { offsetInCU: 0x9EEB, offset: 0x2758D, size: 0x8, addend: 0x0, symName: __ZNSt11_Tuple_implILm0EJP4BookSt14default_deleteIS0_EEEC2Ev, symObjAddr: 0x2500, symBinAddr: 0x10000AF8C, symSize: 0x28 }
  - { offsetInCU: 0x9F41, offset: 0x275E3, size: 0x8, addend: 0x0, symName: __ZSt19__iterator_categoryIPcENSt15iterator_traitsIT_E17iterator_categoryERKS2_, symObjAddr: 0x24C8, symBinAddr: 0x10000AF54, symSize: 0x14 }
  - { offsetInCU: 0x9F49, offset: 0x275EB, size: 0x8, addend: 0x0, symName: __ZSt10__distanceIPcENSt15iterator_traitsIT_E15difference_typeES2_S2_St26random_access_iterator_tag, symObjAddr: 0x24DC, symBinAddr: 0x10000AF68, symSize: 0x24 }
  - { offsetInCU: 0x9F5B, offset: 0x275FD, size: 0x8, addend: 0x0, symName: __ZN9__gnu_cxx17__is_null_pointerIcEEbPT_, symObjAddr: 0x24A8, symBinAddr: 0x10000AF34, symSize: 0x20 }
  - { offsetInCU: 0x9F63, offset: 0x27605, size: 0x8, addend: 0x0, symName: __ZSt19__iterator_categoryIPcENSt15iterator_traitsIT_E17iterator_categoryERKS2_, symObjAddr: 0x24C8, symBinAddr: 0x10000AF54, symSize: 0x14 }
  - { offsetInCU: 0x9F60, offset: 0x27602, size: 0x8, addend: 0x0, symName: __ZN9__gnu_cxx17__normal_iteratorIPNSt7__cxx1112basic_stringIcSt11char_traitsIcESaIcEEESt6vectorIS6_SaIS6_EEEpLEl, symObjAddr: 0x23B8, symBinAddr: 0x10000AF00, symSize: 0x34 }
  - { offsetInCU: 0xA05B, offset: 0x276FD, size: 0x8, addend: 0x0, symName: __ZNSt11_Tuple_implILm0EJP15LiteratureEntrySt14default_deleteIS0_EEEC2IRS1_JS2_I4BookEEvEEOT_DpOT0_, symObjAddr: 0x2348, symBinAddr: 0x10000AEAC, symSize: 0x54 }
  - { offsetInCU: 0xA0C5, offset: 0x27767, size: 0x8, addend: 0x0, symName: __ZSt7forwardIRP15LiteratureEntryEOT_RNSt16remove_referenceIS3_E4typeE, symObjAddr: 0x2334, symBinAddr: 0x10000AE98, symSize: 0x14 }
  - { offsetInCU: 0xA0CD, offset: 0x2776F, size: 0x8, addend: 0x0, symName: __ZNSt11_Tuple_implILm0EJP15LiteratureEntrySt14default_deleteIS0_EEEC2IRS1_JS2_I4BookEEvEEOT_DpOT0_, symObjAddr: 0x2348, symBinAddr: 0x10000AEAC, symSize: 0x54 }
  - { offsetInCU: 0xA155, offset: 0x277F7, size: 0x8, addend: 0x0, symName: __ZSt3getILm1EJP4BookSt14default_deleteIS0_EEERNSt13tuple_elementIXT_ESt5tupleIJDpT0_EEE4typeERS8_, symObjAddr: 0x2318, symBinAddr: 0x10000AE7C, symSize: 0x1C }
  - { offsetInCU: 0xA15D, offset: 0x277FF, size: 0x8, addend: 0x0, symName: __ZSt7forwardIRP15LiteratureEntryEOT_RNSt16remove_referenceIS3_E4typeE, symObjAddr: 0x2334, symBinAddr: 0x10000AE98, symSize: 0x14 }
  - { offsetInCU: 0xA1C7, offset: 0x27869, size: 0x8, addend: 0x0, symName: __ZSt12__get_helperILm0EP4BookJSt14default_deleteIS0_EEERT0_RSt11_Tuple_implIXT_EJS4_DpT1_EE, symObjAddr: 0x22FC, symBinAddr: 0x10000AE60, symSize: 0x1C }
  - { offsetInCU: 0xA1CF, offset: 0x27871, size: 0x8, addend: 0x0, symName: __ZSt3getILm1EJP4BookSt14default_deleteIS0_EEERNSt13tuple_elementIXT_ESt5tupleIJDpT0_EEE4typeERS8_, symObjAddr: 0x2318, symBinAddr: 0x10000AE7C, symSize: 0x1C }
  - { offsetInCU: 0xA1FF, offset: 0x278A1, size: 0x8, addend: 0x0, symName: __ZNSt5tupleIJP4BookSt14default_deleteIS0_EEEC1ILb1ELb1EEEv, symObjAddr: 0x22DC, symBinAddr: 0x10000AE40, symSize: 0x20 }
  - { offsetInCU: 0xA207, offset: 0x278A9, size: 0x8, addend: 0x0, symName: __ZSt12__get_helperILm0EP4BookJSt14default_deleteIS0_EEERT0_RSt11_Tuple_implIXT_EJS4_DpT1_EE, symObjAddr: 0x22FC, symBinAddr: 0x10000AE60, symSize: 0x1C }
  - { offsetInCU: 0xA201, offset: 0x278A3, size: 0x8, addend: 0x0, symName: __ZNSt7__cxx1112basic_stringIcSt11char_traitsIcESaIcEE12_M_constructIPcEEvT_S7_St20forward_iterator_tag, symObjAddr: 0x21DC, symBinAddr: 0x10000AD40, symSize: 0x100 }
  - { offsetInCU: 0xA209, offset: 0x278AB, size: 0x8, addend: 0x0, symName: __ZNSt5tupleIJP4BookSt14default_deleteIS0_EEEC1ILb1ELb1EEEv, symObjAddr: 0x22DC, symBinAddr: 0x10000AE40, symSize: 0x20 }
  - { offsetInCU: 0xA2D8, offset: 0x2797A, size: 0x8, addend: 0x0, symName: __ZSt8distanceIPcENSt15iterator_traitsIT_E15difference_typeES2_S2_, symObjAddr: 0x21A0, symBinAddr: 0x10000AD04, symSize: 0x3C }
  - { offsetInCU: 0xA2E0, offset: 0x27982, size: 0x8, addend: 0x0, symName: __ZNSt7__cxx1112basic_stringIcSt11char_traitsIcESaIcEE12_M_constructIPcEEvT_S7_St20forward_iterator_tag, symObjAddr: 0x21DC, symBinAddr: 0x10000AD40, symSize: 0x100 }
  - { offsetInCU: 0xA407, offset: 0x27AA9, size: 0x8, addend: 0x0, symName: __ZSt9__advanceIN9__gnu_cxx17__normal_iteratorIPNSt7__cxx1112basic_stringIcSt11char_traitsIcESaIcEEESt6vectorIS7_SaIS7_EEEElEvRT_T0_St26random_access_iterator_tag, symObjAddr: 0x208C, symBinAddr: 0x10000ACD8, symSize: 0x2C }
  - { offsetInCU: 0xA3F9, offset: 0x27A9B, size: 0x8, addend: 0x0, symName: __ZNSt5tupleIJP15LiteratureEntrySt14default_deleteIS0_EEEC1IRS1_S2_I4BookELb1EEEOT_OT0_, symObjAddr: 0x2008, symBinAddr: 0x10000AC88, symSize: 0x50 }
  - { offsetInCU: 0xA402, offset: 0x27AA4, size: 0x8, addend: 0x0, symName: __ZNSt15__uniq_ptr_implI4BookSt14default_deleteIS0_EE7releaseEv, symObjAddr: 0x1FD4, symBinAddr: 0x10000AC54, symSize: 0x34 }
  - { offsetInCU: 0xA40A, offset: 0x27AAC, size: 0x8, addend: 0x0, symName: __ZNSt5tupleIJP15LiteratureEntrySt14default_deleteIS0_EEEC1IRS1_S2_I4BookELb1EEEOT_OT0_, symObjAddr: 0x2008, symBinAddr: 0x10000AC88, symSize: 0x50 }
  - { offsetInCU: 0xA444, offset: 0x27AE6, size: 0x8, addend: 0x0, symName: __ZNSt15__uniq_ptr_implI4BookSt14default_deleteIS0_EE10_M_deleterEv, symObjAddr: 0x1FB8, symBinAddr: 0x10000AC38, symSize: 0x1C }
  - { offsetInCU: 0xA44C, offset: 0x27AEE, size: 0x8, addend: 0x0, symName: __ZNSt15__uniq_ptr_implI4BookSt14default_deleteIS0_EE7releaseEv, symObjAddr: 0x1FD4, symBinAddr: 0x10000AC54, symSize: 0x34 }
  - { offsetInCU: 0xA514, offset: 0x27BB6, size: 0x8, addend: 0x0, symName: __ZSt3getILm0EJP4BookSt14default_deleteIS0_EEERNSt13tuple_elementIXT_ESt5tupleIJDpT0_EEE4typeERS8_, symObjAddr: 0x1F9C, symBinAddr: 0x10000AC1C, symSize: 0x1C }
  - { offsetInCU: 0xA51C, offset: 0x27BBE, size: 0x8, addend: 0x0, symName: __ZNSt15__uniq_ptr_implI4BookSt14default_deleteIS0_EE10_M_deleterEv, symObjAddr: 0x1FB8, symBinAddr: 0x10000AC38, symSize: 0x1C }
  - { offsetInCU: 0xA557, offset: 0x27BF9, size: 0x8, addend: 0x0, symName: __ZNSt15__uniq_ptr_implI4BookSt14default_deleteIS0_EEC2EPS0_, symObjAddr: 0x1F60, symBinAddr: 0x10000ABE0, symSize: 0x3C }
  - { offsetInCU: 0xA55F, offset: 0x27C01, size: 0x8, addend: 0x0, symName: __ZSt3getILm0EJP4BookSt14default_deleteIS0_EEERNSt13tuple_elementIXT_ESt5tupleIJDpT0_EEE4typeERS8_, symObjAddr: 0x1F9C, symBinAddr: 0x10000AC1C, symSize: 0x1C }
  - { offsetInCU: 0xA555, offset: 0x27BF7, size: 0x8, addend: 0x0, symName: __ZNSt7__cxx1112basic_stringIcSt11char_traitsIcESaIcEE16_M_construct_auxIPcEEvT_S7_St12__false_type, symObjAddr: 0x1F28, symBinAddr: 0x10000ABA8, symSize: 0x38 }
  - { offsetInCU: 0xA55D, offset: 0x27BFF, size: 0x8, addend: 0x0, symName: __ZNSt15__uniq_ptr_implI4BookSt14default_deleteIS0_EEC2EPS0_, symObjAddr: 0x1F60, symBinAddr: 0x10000ABE0, symSize: 0x3C }
  - { offsetInCU: 0xA5C3, offset: 0x27C65, size: 0x8, addend: 0x0, symName: __ZNSt16allocator_traitsISaIcEE37select_on_container_copy_constructionERKS0_, symObjAddr: 0x1EF8, symBinAddr: 0x10000AB78, symSize: 0x30 }
  - { offsetInCU: 0xA5CB, offset: 0x27C6D, size: 0x8, addend: 0x0, symName: __ZNSt7__cxx1112basic_stringIcSt11char_traitsIcESaIcEE16_M_construct_auxIPcEEvT_S7_St12__false_type, symObjAddr: 0x1F28, symBinAddr: 0x10000ABA8, symSize: 0x38 }
  - { offsetInCU: 0xA6FB, offset: 0x27D9D, size: 0x8, addend: 0x0, symName: __ZSt7advanceIN9__gnu_cxx17__normal_iteratorIPNSt7__cxx1112basic_stringIcSt11char_traitsIcESaIcEEESt6vectorIS7_SaIS7_EEEElEvRT_T0_, symObjAddr: 0x1DD4, symBinAddr: 0x10000AB34, symSize: 0x44 }
  - { offsetInCU: 0xA707, offset: 0x27DA9, size: 0x8, addend: 0x0, symName: __ZNSt15__uniq_ptr_implI15LiteratureEntrySt14default_deleteIS0_EEC2IS1_I4BookEEEPS0_OT_, symObjAddr: 0x1D04, symBinAddr: 0x10000AAE8, symSize: 0x4C }
  - { offsetInCU: 0xA777, offset: 0x27E19, size: 0x8, addend: 0x0, symName: __ZSt7forwardISt14default_deleteI4BookEEOT_RNSt16remove_referenceIS3_E4typeE, symObjAddr: 0x1CF0, symBinAddr: 0x10000AAD4, symSize: 0x14 }
  - { offsetInCU: 0xA77F, offset: 0x27E21, size: 0x8, addend: 0x0, symName: __ZNSt15__uniq_ptr_implI15LiteratureEntrySt14default_deleteIS0_EEC2IS1_I4BookEEEPS0_OT_, symObjAddr: 0x1D04, symBinAddr: 0x10000AAE8, symSize: 0x4C }
  - { offsetInCU: 0xA757, offset: 0x27DF9, size: 0x8, addend: 0x0, symName: __ZNSt10unique_ptrI4BookSt14default_deleteIS0_EE7releaseEv, symObjAddr: 0x1CD4, symBinAddr: 0x10000AAB8, symSize: 0x1C }
  - { offsetInCU: 0xA75F, offset: 0x27E01, size: 0x8, addend: 0x0, symName: __ZSt7forwardISt14default_deleteI4BookEEOT_RNSt16remove_referenceIS3_E4typeE, symObjAddr: 0x1CF0, symBinAddr: 0x10000AAD4, symSize: 0x14 }
  - { offsetInCU: 0xA786, offset: 0x27E28, size: 0x8, addend: 0x0, symName: __ZNKSt14default_deleteI4BookEclEPS0_, symObjAddr: 0x1C9C, symBinAddr: 0x10000AA80, symSize: 0x38 }
  - { offsetInCU: 0xA78E, offset: 0x27E30, size: 0x8, addend: 0x0, symName: __ZNSt10unique_ptrI4BookSt14default_deleteIS0_EE7releaseEv, symObjAddr: 0x1CD4, symBinAddr: 0x10000AAB8, symSize: 0x1C }
  - { offsetInCU: 0xA810, offset: 0x27EB2, size: 0x8, addend: 0x0, symName: __ZSt4moveIRP4BookEONSt16remove_referenceIT_E4typeEOS4_, symObjAddr: 0x1C88, symBinAddr: 0x10000AA6C, symSize: 0x14 }
  - { offsetInCU: 0xA818, offset: 0x27EBA, size: 0x8, addend: 0x0, symName: __ZNKSt14default_deleteI4BookEclEPS0_, symObjAddr: 0x1C9C, symBinAddr: 0x10000AA80, symSize: 0x38 }
  - { offsetInCU: 0xA81C, offset: 0x27EBE, size: 0x8, addend: 0x0, symName: __ZNSt10unique_ptrI4BookSt14default_deleteIS0_EE11get_deleterEv, symObjAddr: 0x1C6C, symBinAddr: 0x10000AA50, symSize: 0x1C }
  - { offsetInCU: 0xA824, offset: 0x27EC6, size: 0x8, addend: 0x0, symName: __ZSt4moveIRP4BookEONSt16remove_referenceIT_E4typeEOS4_, symObjAddr: 0x1C88, symBinAddr: 0x10000AA6C, symSize: 0x14 }
  - { offsetInCU: 0xA84B, offset: 0x27EED, size: 0x8, addend: 0x0, symName: __ZNSt15__uniq_ptr_implI4BookSt14default_deleteIS0_EE6_M_ptrEv, symObjAddr: 0x1C50, symBinAddr: 0x10000AA34, symSize: 0x1C }
  - { offsetInCU: 0xA853, offset: 0x27EF5, size: 0x8, addend: 0x0, symName: __ZNSt10unique_ptrI4BookSt14default_deleteIS0_EE11get_deleterEv, symObjAddr: 0x1C6C, symBinAddr: 0x10000AA50, symSize: 0x1C }
  - { offsetInCU: 0xA8EF, offset: 0x27F91, size: 0x8, addend: 0x0, symName: __ZNSt10unique_ptrI4BookSt14default_deleteIS0_EEC1IS2_vEEPS0_, symObjAddr: 0x1C28, symBinAddr: 0x10000AA0C, symSize: 0x28 }
  - { offsetInCU: 0xA8F7, offset: 0x27F99, size: 0x8, addend: 0x0, symName: __ZNSt15__uniq_ptr_implI4BookSt14default_deleteIS0_EE6_M_ptrEv, symObjAddr: 0x1C50, symBinAddr: 0x10000AA34, symSize: 0x1C }
  - { offsetInCU: 0xA97F, offset: 0x28021, size: 0x8, addend: 0x0, symName: __ZNSt15__uniq_ptr_dataI4BookSt14default_deleteIS0_ELb1ELb1EECI1St15__uniq_ptr_implIS0_S2_EEPS0_, symObjAddr: 0x1C00, symBinAddr: 0x10000A9E4, symSize: 0x28 }
  - { offsetInCU: 0xA987, offset: 0x28029, size: 0x8, addend: 0x0, symName: __ZNSt10unique_ptrI4BookSt14default_deleteIS0_EEC1IS2_vEEPS0_, symObjAddr: 0x1C28, symBinAddr: 0x10000AA0C, symSize: 0x28 }
  - { offsetInCU: 0xA9AC, offset: 0x2804E, size: 0x8, addend: 0x0, symName: __ZSt7forwardIRK4BookEOT_RNSt16remove_referenceIS3_E4typeE, symObjAddr: 0x1BEC, symBinAddr: 0x10000A9D0, symSize: 0x14 }
  - { offsetInCU: 0xA9B4, offset: 0x28056, size: 0x8, addend: 0x0, symName: __ZNSt15__uniq_ptr_dataI4BookSt14default_deleteIS0_ELb1ELb1EECI1St15__uniq_ptr_implIS0_S2_EEPS0_, symObjAddr: 0x1C00, symBinAddr: 0x10000A9E4, symSize: 0x28 }
  - { offsetInCU: 0xA9AD, offset: 0x2804F, size: 0x8, addend: 0x0, symName: __ZNSt7__cxx1112basic_stringIcSt11char_traitsIcESaIcEE12_M_constructIPcEEvT_S7_, symObjAddr: 0x1BBC, symBinAddr: 0x10000A9A0, symSize: 0x30 }
  - { offsetInCU: 0xA9B5, offset: 0x28057, size: 0x8, addend: 0x0, symName: __ZSt7forwardIRK4BookEOT_RNSt16remove_referenceIS3_E4typeE, symObjAddr: 0x1BEC, symBinAddr: 0x10000A9D0, symSize: 0x14 }
  - { offsetInCU: 0xAA11, offset: 0x280B3, size: 0x8, addend: 0x0, symName: __ZN9__gnu_cxx14__alloc_traitsISaIcEcE17_S_select_on_copyERKS1_, symObjAddr: 0x1B8C, symBinAddr: 0x10000A970, symSize: 0x30 }
  - { offsetInCU: 0xAA19, offset: 0x280BB, size: 0x8, addend: 0x0, symName: __ZNSt7__cxx1112basic_stringIcSt11char_traitsIcESaIcEE12_M_constructIPcEEvT_S7_, symObjAddr: 0x1BBC, symBinAddr: 0x10000A9A0, symSize: 0x30 }
  - { offsetInCU: 0xAAE3, offset: 0x28185, size: 0x8, addend: 0x0, symName: __ZNSt7__cxx1112basic_stringIcSt11char_traitsIcESaIcEEC1IPcvEET_S7_RKS3_, symObjAddr: 0x1940, symBinAddr: 0x10000A904, symSize: 0x6C }
  - { offsetInCU: 0xAB51, offset: 0x281F3, size: 0x8, addend: 0x0, symName: __ZStplIcSt11char_traitsIcESaIcEENSt7__cxx1112basic_stringIT_T0_T1_EEOS8_RKS8_, symObjAddr: 0x18FC, symBinAddr: 0x10000A8C0, symSize: 0x44 }
  - { offsetInCU: 0xAB59, offset: 0x281FB, size: 0x8, addend: 0x0, symName: __ZNSt7__cxx1112basic_stringIcSt11char_traitsIcESaIcEEC1IPcvEET_S7_RKS3_, symObjAddr: 0x1940, symBinAddr: 0x10000A904, symSize: 0x6C }
  - { offsetInCU: 0xABCB, offset: 0x2826D, size: 0x8, addend: 0x0, symName: __ZStplIcSt11char_traitsIcESaIcEENSt7__cxx1112basic_stringIT_T0_T1_EEOS8_PKS5_, symObjAddr: 0x18B8, symBinAddr: 0x10000A87C, symSize: 0x44 }
  - { offsetInCU: 0xABD3, offset: 0x28275, size: 0x8, addend: 0x0, symName: __ZStplIcSt11char_traitsIcESaIcEENSt7__cxx1112basic_stringIT_T0_T1_EEOS8_RKS8_, symObjAddr: 0x18FC, symBinAddr: 0x10000A8C0, symSize: 0x44 }
  - { offsetInCU: 0xAC46, offset: 0x282E8, size: 0x8, addend: 0x0, symName: __ZStplIcSt11char_traitsIcESaIcEENSt7__cxx1112basic_stringIT_T0_T1_EEPKS5_RKS8_, symObjAddr: 0x17DC, symBinAddr: 0x10000A7A0, symSize: 0xDC }
  - { offsetInCU: 0xAC4E, offset: 0x282F0, size: 0x8, addend: 0x0, symName: __ZStplIcSt11char_traitsIcESaIcEENSt7__cxx1112basic_stringIT_T0_T1_EEOS8_PKS5_, symObjAddr: 0x18B8, symBinAddr: 0x10000A87C, symSize: 0x44 }
  - { offsetInCU: 0xADDE, offset: 0x28480, size: 0x8, addend: 0x0, symName: __ZSt4nextIN9__gnu_cxx17__normal_iteratorIPNSt7__cxx1112basic_stringIcSt11char_traitsIcESaIcEEESt6vectorIS7_SaIS7_EEEEET_SD_NSt15iterator_traitsISD_E15difference_typeE, symObjAddr: 0x179C, symBinAddr: 0x10000A778, symSize: 0x28 }
  - { offsetInCU: 0xAD89, offset: 0x2842B, size: 0x8, addend: 0x0, symName: __Z17check_nonnegativeIfET_S0_RKNSt7__cxx1112basic_stringIcSt11char_traitsIcESaIcEEE, symObjAddr: 0x155C, symBinAddr: 0x10000A6C8, symSize: 0xB0 }
  - { offsetInCU: 0xAE12, offset: 0x284B4, size: 0x8, addend: 0x0, symName: __ZNSt10unique_ptrI15LiteratureEntrySt14default_deleteIS0_EEC1I4BookS1_IS5_EvEEOS_IT_T0_E, symObjAddr: 0x150C, symBinAddr: 0x10000A678, symSize: 0x50 }
  - { offsetInCU: 0xAE1A, offset: 0x284BC, size: 0x8, addend: 0x0, symName: __Z17check_nonnegativeIfET_S0_RKNSt7__cxx1112basic_stringIcSt11char_traitsIcESaIcEEE, symObjAddr: 0x155C, symBinAddr: 0x10000A6C8, symSize: 0xB0 }
  - { offsetInCU: 0xAEC3, offset: 0x28565, size: 0x8, addend: 0x0, symName: __ZNSt15__uniq_ptr_dataI15LiteratureEntrySt14default_deleteIS0_ELb1ELb1EECI1St15__uniq_ptr_implIS0_S2_EIS1_I4BookEEEPS0_OT_, symObjAddr: 0x14DC, symBinAddr: 0x10000A648, symSize: 0x30 }
  - { offsetInCU: 0xAECB, offset: 0x2856D, size: 0x8, addend: 0x0, symName: __ZNSt10unique_ptrI15LiteratureEntrySt14default_deleteIS0_EEC1I4BookS1_IS5_EvEEOS_IT_T0_E, symObjAddr: 0x150C, symBinAddr: 0x10000A678, symSize: 0x50 }
  - { offsetInCU: 0xAF09, offset: 0x285AB, size: 0x8, addend: 0x0, symName: __ZNSt10unique_ptrI4BookSt14default_deleteIS0_EED1Ev, symObjAddr: 0x1474, symBinAddr: 0x10000A5E0, symSize: 0x68 }
  - { offsetInCU: 0xAF11, offset: 0x285B3, size: 0x8, addend: 0x0, symName: __ZNSt15__uniq_ptr_dataI15LiteratureEntrySt14default_deleteIS0_ELb1ELb1EECI1St15__uniq_ptr_implIS0_S2_EIS1_I4BookEEEPS0_OT_, symObjAddr: 0x14DC, symBinAddr: 0x10000A648, symSize: 0x30 }
  - { offsetInCU: 0xAFA9, offset: 0x2864B, size: 0x8, addend: 0x0, symName: __ZSt11make_uniqueI4BookJRKS0_EENSt9_MakeUniqIT_E15__single_objectEDpOT0_, symObjAddr: 0x13FC, symBinAddr: 0x10000A568, symSize: 0x78 }
  - { offsetInCU: 0xAFB1, offset: 0x28653, size: 0x8, addend: 0x0, symName: __ZNSt10unique_ptrI4BookSt14default_deleteIS0_EED1Ev, symObjAddr: 0x1474, symBinAddr: 0x10000A5E0, symSize: 0x68 }
  - { offsetInCU: 0xAFCA, offset: 0x2866C, size: 0x8, addend: 0x0, symName: __ZN4BookC1ERKS_, symObjAddr: 0x134C, symBinAddr: 0x10000A4B8, symSize: 0xB0 }
  - { offsetInCU: 0xAFD2, offset: 0x28674, size: 0x8, addend: 0x0, symName: __ZSt11make_uniqueI4BookJRKS0_EENSt9_MakeUniqIT_E15__single_objectEDpOT0_, symObjAddr: 0x13FC, symBinAddr: 0x10000A568, symSize: 0x78 }
  - { offsetInCU: 0xB049, offset: 0x286EB, size: 0x8, addend: 0x0, symName: __ZStplIcSt11char_traitsIcESaIcEENSt7__cxx1112basic_stringIT_T0_T1_EEOS8_S9_, symObjAddr: 0x116C, symBinAddr: 0x10000A3D8, symSize: 0xE0 }
  - { offsetInCU: 0xB14C, offset: 0x287EE, size: 0x8, addend: 0x0, symName: __ZN9__gnu_cxx12__to_xstringINSt7__cxx1112basic_stringIcSt11char_traitsIcESaIcEEEcEET_PFiPT0_mPKS8_PcEmSB_z, symObjAddr: 0x1048, symBinAddr: 0x10000A30C, symSize: 0xCC }
  - { offsetInCU: 0xB1E5, offset: 0x28887, size: 0x8, addend: 0x0, symName: __ZNSt8__detail18__to_chars_10_implIjEEvPcjT_, symObjAddr: 0xEF8, symBinAddr: 0x10000A1BC, symSize: 0x150 }
  - { offsetInCU: 0xB1ED, offset: 0x2888F, size: 0x8, addend: 0x0, symName: __ZN9__gnu_cxx12__to_xstringINSt7__cxx1112basic_stringIcSt11char_traitsIcESaIcEEEcEET_PFiPT0_mPKS8_PcEmSB_z, symObjAddr: 0x1048, symBinAddr: 0x10000A30C, symSize: 0xCC }
  - { offsetInCU: 0xB241, offset: 0x288E3, size: 0x8, addend: 0x0, symName: __ZZNSt8__detail18__to_chars_10_implIjEEvPcjT_E8__digits, symObjAddr: 0x2BD0, symBinAddr: 0x10001F778, symSize: 0x0 }
  - { offsetInCU: 0xB32A, offset: 0x289CC, size: 0x8, addend: 0x0, symName: __ZNSt7__cxx1112basic_stringIcSt11char_traitsIcESaIcEEC1IS3_EEmcRKS3_, symObjAddr: 0xE8C, symBinAddr: 0x10000A150, symSize: 0x6C }
  - { offsetInCU: 0xB332, offset: 0x289D4, size: 0x8, addend: 0x0, symName: __ZNSt8__detail18__to_chars_10_implIjEEvPcjT_, symObjAddr: 0xEF8, symBinAddr: 0x10000A1BC, symSize: 0x150 }
  - { offsetInCU: 0xB337, offset: 0x289D9, size: 0x8, addend: 0x0, symName: __ZNK4Book12get_encodingB5cxx11Ev, symObjAddr: 0xA6C, symBinAddr: 0x100009DD8, symSize: 0x378 }
  - { offsetInCU: 0xB3A0, offset: 0x28A42, size: 0x8, addend: 0x0, symName: __ZNK4Book12print_bibtexEv, symObjAddr: 0x7FC, symBinAddr: 0x100009B68, symSize: 0x270 }
  - { offsetInCU: 0xB3A8, offset: 0x28A4A, size: 0x8, addend: 0x0, symName: __ZNK4Book12get_encodingB5cxx11Ev, symObjAddr: 0xA6C, symBinAddr: 0x100009DD8, symSize: 0x378 }
  - { offsetInCU: 0xB3F4, offset: 0x28A96, size: 0x8, addend: 0x0, symName: __ZNK4Book10print_dataEv, symObjAddr: 0x6BC, symBinAddr: 0x100009A28, symSize: 0x140 }
  - { offsetInCU: 0xB3FC, offset: 0x28A9E, size: 0x8, addend: 0x0, symName: __ZNK4Book12print_bibtexEv, symObjAddr: 0x7FC, symBinAddr: 0x100009B68, symSize: 0x270 }
  - { offsetInCU: 0xB522, offset: 0x28BC4, size: 0x8, addend: 0x0, symName: __ZN4BookC1ERKNSt7__cxx1112basic_stringIcSt11char_traitsIcESaIcEEESt10unique_ptrISt6vectorIS5_SaIS5_EESt14default_deleteISB_EEiS7_S7_f, symObjAddr: 0x564, symBinAddr: 0x1000098D0, symSize: 0x158 }
  - { offsetInCU: 0xB52A, offset: 0x28BCC, size: 0x8, addend: 0x0, symName: __ZNK4Book10print_dataEv, symObjAddr: 0x6BC, symBinAddr: 0x100009A28, symSize: 0x140 }
  - { offsetInCU: 0xB59E, offset: 0x28C40, size: 0x8, addend: 0x0, symName: __ZN4BookC2ERKNSt7__cxx1112basic_stringIcSt11char_traitsIcESaIcEEESt10unique_ptrISt6vectorIS5_SaIS5_EESt14default_deleteISB_EEiS7_S7_f, symObjAddr: 0x40C, symBinAddr: 0x100009778, symSize: 0x158 }
  - { offsetInCU: 0xB5A6, offset: 0x28C48, size: 0x8, addend: 0x0, symName: __ZN4BookC1ERKNSt7__cxx1112basic_stringIcSt11char_traitsIcESaIcEEESt10unique_ptrISt6vectorIS5_SaIS5_EESt14default_deleteISB_EEiS7_S7_f, symObjAddr: 0x564, symBinAddr: 0x1000098D0, symSize: 0x158 }
  - { offsetInCU: 0xB594, offset: 0x28C36, size: 0x8, addend: 0x0, symName: __ZNK4Book8get_typeB5cxx11Ev, symObjAddr: 0x358, symBinAddr: 0x100009714, symSize: 0x64 }
  - { offsetInCU: 0xB5C3, offset: 0x28C65, size: 0x8, addend: 0x0, symName: __ZNK4Book5cloneEv, symObjAddr: 0x308, symBinAddr: 0x1000096C4, symSize: 0x50 }
  - { offsetInCU: 0xB5CB, offset: 0x28C6D, size: 0x8, addend: 0x0, symName: __ZNK4Book8get_typeB5cxx11Ev, symObjAddr: 0x358, symBinAddr: 0x100009714, symSize: 0x64 }
  - { offsetInCU: 0xB626, offset: 0x28CC8, size: 0x8, addend: 0x0, symName: __ZN4BookD0Ev, symObjAddr: 0x2E0, symBinAddr: 0x10000969C, symSize: 0x28 }
  - { offsetInCU: 0xB62E, offset: 0x28CD0, size: 0x8, addend: 0x0, symName: __ZNK4Book5cloneEv, symObjAddr: 0x308, symBinAddr: 0x1000096C4, symSize: 0x50 }
  - { offsetInCU: 0xB654, offset: 0x28CF6, size: 0x8, addend: 0x0, symName: __ZN4BookD1Ev, symObjAddr: 0x298, symBinAddr: 0x100009654, symSize: 0x48 }
  - { offsetInCU: 0xB65C, offset: 0x28CFE, size: 0x8, addend: 0x0, symName: __ZN4BookD0Ev, symObjAddr: 0x2E0, symBinAddr: 0x10000969C, symSize: 0x28 }
  - { offsetInCU: 0xB6B5, offset: 0x28D57, size: 0x8, addend: 0x0, symName: __ZN15LiteratureEntryD2Ev, symObjAddr: 0x254, symBinAddr: 0x100009610, symSize: 0x44 }
  - { offsetInCU: 0xB6BD, offset: 0x28D5F, size: 0x8, addend: 0x0, symName: __ZN4BookD1Ev, symObjAddr: 0x298, symBinAddr: 0x100009654, symSize: 0x48 }
  - { offsetInCU: 0xB6ED, offset: 0x28D8F, size: 0x8, addend: 0x0, symName: __ZNSt7__cxx119to_stringEf, symObjAddr: 0x1F8, symBinAddr: 0x1000095B4, symSize: 0x5C }
  - { offsetInCU: 0xB6F5, offset: 0x28D97, size: 0x8, addend: 0x0, symName: __ZN15LiteratureEntryD2Ev, symObjAddr: 0x254, symBinAddr: 0x100009610, symSize: 0x44 }
  - { offsetInCU: 0xB765, offset: 0x28E07, size: 0x8, addend: 0x0, symName: __ZNSt8__detail14__to_chars_lenIjEEjT_i, symObjAddr: 0x120, symBinAddr: 0x1000094DC, symSize: 0xD8 }
  - { offsetInCU: 0xB76D, offset: 0x28E0F, size: 0x8, addend: 0x0, symName: __ZNSt7__cxx119to_stringEf, symObjAddr: 0x1F8, symBinAddr: 0x1000095B4, symSize: 0x5C }
  - { offsetInCU: 0xB7E9, offset: 0x28E8B, size: 0x8, addend: 0x0, symName: __ZNSt7__cxx119to_stringEi, symObjAddr: 0x40, symBinAddr: 0x1000093FC, symSize: 0xE0 }
  - { offsetInCU: 0xB7F1, offset: 0x28E93, size: 0x8, addend: 0x0, symName: __ZNSt8__detail14__to_chars_lenIjEEjT_i, symObjAddr: 0x120, symBinAddr: 0x1000094DC, symSize: 0xD8 }
  - { offsetInCU: 0x524F, offset: 0x2E14F, size: 0x8, addend: 0x0, symName: __ZStL8__ioinit, symObjAddr: 0x3BE78, symBinAddr: 0x1000350A2, symSize: 0x0 }
  - { offsetInCU: 0x52FD, offset: 0x2E1FD, size: 0x8, addend: 0x0, symName: __ZN9__gnu_cxxL21__default_lock_policyE, symObjAddr: 0x2C18, symBinAddr: 0x10001F850, symSize: 0x0 }
  - { offsetInCU: 0x5365, offset: 0x2E265, size: 0x8, addend: 0x0, symName: __ZN6__pstl9execution2v1L3seqE, symObjAddr: 0x2C1C, symBinAddr: 0x10001F854, symSize: 0x0 }
  - { offsetInCU: 0x537F, offset: 0x2E27F, size: 0x8, addend: 0x0, symName: __ZN6__pstl9execution2v1L3parE, symObjAddr: 0x2C1D, symBinAddr: 0x10001F855, symSize: 0x0 }
  - { offsetInCU: 0x539F, offset: 0x2E29F, size: 0x8, addend: 0x0, symName: __ZN6__pstl9execution2v1L9par_unseqE, symObjAddr: 0x2C1E, symBinAddr: 0x10001F856, symSize: 0x0 }
  - { offsetInCU: 0x53B5, offset: 0x2E2B5, size: 0x8, addend: 0x0, symName: __ZN6__pstl9execution2v1L5unseqE, symObjAddr: 0x2C1F, symBinAddr: 0x10001F857, symSize: 0x0 }
  - { offsetInCU: 0x9781, offset: 0x32681, size: 0x8, addend: 0x0, symName: __GLOBAL__sub_I_Journal.cpp, symObjAddr: 0x28C0, symBinAddr: 0x10000C300, symSize: 0x1C }
  - { offsetInCU: 0x97AA, offset: 0x326AA, size: 0x8, addend: 0x0, symName: __Z41__static_initialization_and_destruction_0ii, symObjAddr: 0x2860, symBinAddr: 0x10000C2A0, symSize: 0x60 }
  - { offsetInCU: 0x97B2, offset: 0x326B2, size: 0x8, addend: 0x0, symName: __GLOBAL__sub_I_Journal.cpp, symObjAddr: 0x28C0, symBinAddr: 0x10000C300, symSize: 0x1C }
  - { offsetInCU: 0x9831, offset: 0x32731, size: 0x8, addend: 0x0, symName: __ZNSt14default_deleteI15LiteratureEntryEC1I7JournalvEERKS_IT_E, symObjAddr: 0x2834, symBinAddr: 0x10000C288, symSize: 0x18 }
  - { offsetInCU: 0x9839, offset: 0x32739, size: 0x8, addend: 0x0, symName: __ZNSt10_Head_baseILm1ESt14default_deleteI7JournalELb1EE7_M_headERS3_, symObjAddr: 0x2820, symBinAddr: 0x10000C274, symSize: 0x14 }
  - { offsetInCU: 0x9841, offset: 0x32741, size: 0x8, addend: 0x0, symName: __ZNSt14default_deleteI15LiteratureEntryEC1I7JournalvEERKS_IT_E, symObjAddr: 0x2834, symBinAddr: 0x10000C288, symSize: 0x18 }
  - { offsetInCU: 0x98BF, offset: 0x327BF, size: 0x8, addend: 0x0, symName: __ZNSt10_Head_baseILm1ESt14default_deleteI7JournalELb1EEC2Ev, symObjAddr: 0x280C, symBinAddr: 0x10000C260, symSize: 0x14 }
  - { offsetInCU: 0x98C7, offset: 0x327C7, size: 0x8, addend: 0x0, symName: __ZNSt10_Head_baseILm1ESt14default_deleteI7JournalELb1EE7_M_headERS3_, symObjAddr: 0x2820, symBinAddr: 0x10000C274, symSize: 0x14 }
  - { offsetInCU: 0x9947, offset: 0x32847, size: 0x8, addend: 0x0, symName: __ZNSt10_Head_baseILm1ESt14default_deleteI15LiteratureEntryELb1EEC2IS0_I7JournalEEEOT_, symObjAddr: 0x273C, symBinAddr: 0x10000C224, symSize: 0x3C }
  - { offsetInCU: 0x9938, offset: 0x32838, size: 0x8, addend: 0x0, symName: __ZNSt11_Tuple_implILm1EJSt14default_deleteI7JournalEEE7_M_headERS3_, symObjAddr: 0x2720, symBinAddr: 0x10000C208, symSize: 0x1C }
  - { offsetInCU: 0x9940, offset: 0x32840, size: 0x8, addend: 0x0, symName: __ZNSt10_Head_baseILm1ESt14default_deleteI15LiteratureEntryELb1EEC2IS0_I7JournalEEEOT_, symObjAddr: 0x273C, symBinAddr: 0x10000C224, symSize: 0x3C }
  - { offsetInCU: 0x996A, offset: 0x3286A, size: 0x8, addend: 0x0, symName: __ZNSt10_Head_baseILm0EP7JournalLb0EE7_M_headERS2_, symObjAddr: 0x270C, symBinAddr: 0x10000C1F4, symSize: 0x14 }
  - { offsetInCU: 0x9972, offset: 0x32872, size: 0x8, addend: 0x0, symName: __ZNSt11_Tuple_implILm1EJSt14default_deleteI7JournalEEE7_M_headERS3_, symObjAddr: 0x2720, symBinAddr: 0x10000C208, symSize: 0x1C }
  - { offsetInCU: 0x99DD, offset: 0x328DD, size: 0x8, addend: 0x0, symName: __ZNSt10_Head_baseILm0EP7JournalLb0EEC2Ev, symObjAddr: 0x26F0, symBinAddr: 0x10000C1D8, symSize: 0x1C }
  - { offsetInCU: 0x99E5, offset: 0x328E5, size: 0x8, addend: 0x0, symName: __ZNSt10_Head_baseILm0EP7JournalLb0EE7_M_headERS2_, symObjAddr: 0x270C, symBinAddr: 0x10000C1F4, symSize: 0x14 }
  - { offsetInCU: 0x9A36, offset: 0x32936, size: 0x8, addend: 0x0, symName: __ZNSt11_Tuple_implILm1EJSt14default_deleteI7JournalEEEC2Ev, symObjAddr: 0x26D0, symBinAddr: 0x10000C1B8, symSize: 0x20 }
  - { offsetInCU: 0x9A3E, offset: 0x3293E, size: 0x8, addend: 0x0, symName: __ZNSt10_Head_baseILm0EP7JournalLb0EEC2Ev, symObjAddr: 0x26F0, symBinAddr: 0x10000C1D8, symSize: 0x1C }
  - { offsetInCU: 0x9AB5, offset: 0x329B5, size: 0x8, addend: 0x0, symName: __ZNSt11_Tuple_implILm1EJSt14default_deleteI15LiteratureEntryEEEC2IS0_I7JournalEEEOT_, symObjAddr: 0x2594, symBinAddr: 0x10000C188, symSize: 0x30 }
  - { offsetInCU: 0x9B36, offset: 0x32A36, size: 0x8, addend: 0x0, symName: __ZSt12__get_helperILm1ESt14default_deleteI7JournalEJEERT0_RSt11_Tuple_implIXT_EJS3_DpT1_EE, symObjAddr: 0x2578, symBinAddr: 0x10000C16C, symSize: 0x1C }
  - { offsetInCU: 0x9B3E, offset: 0x32A3E, size: 0x8, addend: 0x0, symName: __ZNSt11_Tuple_implILm1EJSt14default_deleteI15LiteratureEntryEEEC2IS0_I7JournalEEEOT_, symObjAddr: 0x2594, symBinAddr: 0x10000C188, symSize: 0x30 }
  - { offsetInCU: 0x9B06, offset: 0x32A06, size: 0x8, addend: 0x0, symName: __ZNSt11_Tuple_implILm0EJP7JournalSt14default_deleteIS0_EEE7_M_headERS4_, symObjAddr: 0x255C, symBinAddr: 0x10000C150, symSize: 0x1C }
  - { offsetInCU: 0x9B0E, offset: 0x32A0E, size: 0x8, addend: 0x0, symName: __ZSt12__get_helperILm1ESt14default_deleteI7JournalEJEERT0_RSt11_Tuple_implIXT_EJS3_DpT1_EE, symObjAddr: 0x2578, symBinAddr: 0x10000C16C, symSize: 0x1C }
  - { offsetInCU: 0x9B90, offset: 0x32A90, size: 0x8, addend: 0x0, symName: __ZNSt11_Tuple_implILm0EJP7JournalSt14default_deleteIS0_EEEC2Ev, symObjAddr: 0x2534, symBinAddr: 0x10000C128, symSize: 0x28 }
  - { offsetInCU: 0x9B98, offset: 0x32A98, size: 0x8, addend: 0x0, symName: __ZNSt11_Tuple_implILm0EJP7JournalSt14default_deleteIS0_EEE7_M_headERS4_, symObjAddr: 0x255C, symBinAddr: 0x10000C150, symSize: 0x1C }
  - { offsetInCU: 0x9C3A, offset: 0x32B3A, size: 0x8, addend: 0x0, symName: __ZNSt11_Tuple_implILm0EJP15LiteratureEntrySt14default_deleteIS0_EEEC2IRS1_JS2_I7JournalEEvEEOT_DpOT0_, symObjAddr: 0x237C, symBinAddr: 0x10000C0D4, symSize: 0x54 }
  - { offsetInCU: 0x9CE6, offset: 0x32BE6, size: 0x8, addend: 0x0, symName: __ZSt3getILm1EJP7JournalSt14default_deleteIS0_EEERNSt13tuple_elementIXT_ESt5tupleIJDpT0_EEE4typeERS8_, symObjAddr: 0x234C, symBinAddr: 0x10000C0B8, symSize: 0x1C }
  - { offsetInCU: 0x9D58, offset: 0x32C58, size: 0x8, addend: 0x0, symName: __ZSt12__get_helperILm0EP7JournalJSt14default_deleteIS0_EEERT0_RSt11_Tuple_implIXT_EJS4_DpT1_EE, symObjAddr: 0x2330, symBinAddr: 0x10000C09C, symSize: 0x1C }
  - { offsetInCU: 0x9D60, offset: 0x32C60, size: 0x8, addend: 0x0, symName: __ZSt3getILm1EJP7JournalSt14default_deleteIS0_EEERNSt13tuple_elementIXT_ESt5tupleIJDpT0_EEE4typeERS8_, symObjAddr: 0x234C, symBinAddr: 0x10000C0B8, symSize: 0x1C }
  - { offsetInCU: 0x9D8A, offset: 0x32C8A, size: 0x8, addend: 0x0, symName: __ZNSt5tupleIJP7JournalSt14default_deleteIS0_EEEC1ILb1ELb1EEEv, symObjAddr: 0x2310, symBinAddr: 0x10000C07C, symSize: 0x20 }
  - { offsetInCU: 0x9D92, offset: 0x32C92, size: 0x8, addend: 0x0, symName: __ZSt12__get_helperILm0EP7JournalJSt14default_deleteIS0_EEERT0_RSt11_Tuple_implIXT_EJS4_DpT1_EE, symObjAddr: 0x2330, symBinAddr: 0x10000C09C, symSize: 0x1C }
  - { offsetInCU: 0x9E38, offset: 0x32D38, size: 0x8, addend: 0x0, symName: __ZNSt5tupleIJP15LiteratureEntrySt14default_deleteIS0_EEEC1IRS1_S2_I7JournalELb1EEEOT_OT0_, symObjAddr: 0x203C, symBinAddr: 0x10000C02C, symSize: 0x50 }
  - { offsetInCU: 0x9E3E, offset: 0x32D3E, size: 0x8, addend: 0x0, symName: __ZNSt15__uniq_ptr_implI7JournalSt14default_deleteIS0_EE7releaseEv, symObjAddr: 0x2008, symBinAddr: 0x10000BFF8, symSize: 0x34 }
  - { offsetInCU: 0x9E46, offset: 0x32D46, size: 0x8, addend: 0x0, symName: __ZNSt5tupleIJP15LiteratureEntrySt14default_deleteIS0_EEEC1IRS1_S2_I7JournalELb1EEEOT_OT0_, symObjAddr: 0x203C, symBinAddr: 0x10000C02C, symSize: 0x50 }
  - { offsetInCU: 0x9E80, offset: 0x32D80, size: 0x8, addend: 0x0, symName: __ZNSt15__uniq_ptr_implI7JournalSt14default_deleteIS0_EE10_M_deleterEv, symObjAddr: 0x1FEC, symBinAddr: 0x10000BFDC, symSize: 0x1C }
  - { offsetInCU: 0x9E88, offset: 0x32D88, size: 0x8, addend: 0x0, symName: __ZNSt15__uniq_ptr_implI7JournalSt14default_deleteIS0_EE7releaseEv, symObjAddr: 0x2008, symBinAddr: 0x10000BFF8, symSize: 0x34 }
  - { offsetInCU: 0x9F59, offset: 0x32E59, size: 0x8, addend: 0x0, symName: __ZSt3getILm0EJP7JournalSt14default_deleteIS0_EEERNSt13tuple_elementIXT_ESt5tupleIJDpT0_EEE4typeERS8_, symObjAddr: 0x1FD0, symBinAddr: 0x10000BFC0, symSize: 0x1C }
  - { offsetInCU: 0x9F61, offset: 0x32E61, size: 0x8, addend: 0x0, symName: __ZNSt15__uniq_ptr_implI7JournalSt14default_deleteIS0_EE10_M_deleterEv, symObjAddr: 0x1FEC, symBinAddr: 0x10000BFDC, symSize: 0x1C }
  - { offsetInCU: 0x9F96, offset: 0x32E96, size: 0x8, addend: 0x0, symName: __ZNSt15__uniq_ptr_implI7JournalSt14default_deleteIS0_EEC2EPS0_, symObjAddr: 0x1F94, symBinAddr: 0x10000BF84, symSize: 0x3C }
  - { offsetInCU: 0x9F9E, offset: 0x32E9E, size: 0x8, addend: 0x0, symName: __ZSt3getILm0EJP7JournalSt14default_deleteIS0_EEERNSt13tuple_elementIXT_ESt5tupleIJDpT0_EEE4typeERS8_, symObjAddr: 0x1FD0, symBinAddr: 0x10000BFC0, symSize: 0x1C }
  - { offsetInCU: 0xA031, offset: 0x32F31, size: 0x8, addend: 0x0, symName: __ZNSt15__uniq_ptr_implI15LiteratureEntrySt14default_deleteIS0_EEC2IS1_I7JournalEEEPS0_OT_, symObjAddr: 0x1D38, symBinAddr: 0x10000BF38, symSize: 0x4C }
  - { offsetInCU: 0xA0A4, offset: 0x32FA4, size: 0x8, addend: 0x0, symName: __ZSt7forwardISt14default_deleteI7JournalEEOT_RNSt16remove_referenceIS3_E4typeE, symObjAddr: 0x1D24, symBinAddr: 0x10000BF24, symSize: 0x14 }
  - { offsetInCU: 0xA0AC, offset: 0x32FAC, size: 0x8, addend: 0x0, symName: __ZNSt15__uniq_ptr_implI15LiteratureEntrySt14default_deleteIS0_EEC2IS1_I7JournalEEEPS0_OT_, symObjAddr: 0x1D38, symBinAddr: 0x10000BF38, symSize: 0x4C }
  - { offsetInCU: 0xA07E, offset: 0x32F7E, size: 0x8, addend: 0x0, symName: __ZNSt10unique_ptrI7JournalSt14default_deleteIS0_EE7releaseEv, symObjAddr: 0x1D08, symBinAddr: 0x10000BF08, symSize: 0x1C }
  - { offsetInCU: 0xA086, offset: 0x32F86, size: 0x8, addend: 0x0, symName: __ZSt7forwardISt14default_deleteI7JournalEEOT_RNSt16remove_referenceIS3_E4typeE, symObjAddr: 0x1D24, symBinAddr: 0x10000BF24, symSize: 0x14 }
  - { offsetInCU: 0xA0AD, offset: 0x32FAD, size: 0x8, addend: 0x0, symName: __ZNKSt14default_deleteI7JournalEclEPS0_, symObjAddr: 0x1CD0, symBinAddr: 0x10000BED0, symSize: 0x38 }
  - { offsetInCU: 0xA0B5, offset: 0x32FB5, size: 0x8, addend: 0x0, symName: __ZNSt10unique_ptrI7JournalSt14default_deleteIS0_EE7releaseEv, symObjAddr: 0x1D08, symBinAddr: 0x10000BF08, symSize: 0x1C }
  - { offsetInCU: 0xA13D, offset: 0x3303D, size: 0x8, addend: 0x0, symName: __ZSt4moveIRP7JournalEONSt16remove_referenceIT_E4typeEOS4_, symObjAddr: 0x1CBC, symBinAddr: 0x10000BEBC, symSize: 0x14 }
  - { offsetInCU: 0xA145, offset: 0x33045, size: 0x8, addend: 0x0, symName: __ZNKSt14default_deleteI7JournalEclEPS0_, symObjAddr: 0x1CD0, symBinAddr: 0x10000BED0, symSize: 0x38 }
  - { offsetInCU: 0xA143, offset: 0x33043, size: 0x8, addend: 0x0, symName: __ZNSt10unique_ptrI7JournalSt14default_deleteIS0_EE11get_deleterEv, symObjAddr: 0x1CA0, symBinAddr: 0x10000BEA0, symSize: 0x1C }
  - { offsetInCU: 0xA14B, offset: 0x3304B, size: 0x8, addend: 0x0, symName: __ZSt4moveIRP7JournalEONSt16remove_referenceIT_E4typeEOS4_, symObjAddr: 0x1CBC, symBinAddr: 0x10000BEBC, symSize: 0x14 }
  - { offsetInCU: 0xA172, offset: 0x33072, size: 0x8, addend: 0x0, symName: __ZNSt15__uniq_ptr_implI7JournalSt14default_deleteIS0_EE6_M_ptrEv, symObjAddr: 0x1C84, symBinAddr: 0x10000BE84, symSize: 0x1C }
  - { offsetInCU: 0xA17A, offset: 0x3307A, size: 0x8, addend: 0x0, symName: __ZNSt10unique_ptrI7JournalSt14default_deleteIS0_EE11get_deleterEv, symObjAddr: 0x1CA0, symBinAddr: 0x10000BEA0, symSize: 0x1C }
  - { offsetInCU: 0xA219, offset: 0x33119, size: 0x8, addend: 0x0, symName: __ZNSt10unique_ptrI7JournalSt14default_deleteIS0_EEC1IS2_vEEPS0_, symObjAddr: 0x1C5C, symBinAddr: 0x10000BE5C, symSize: 0x28 }
  - { offsetInCU: 0xA221, offset: 0x33121, size: 0x8, addend: 0x0, symName: __ZNSt15__uniq_ptr_implI7JournalSt14default_deleteIS0_EE6_M_ptrEv, symObjAddr: 0x1C84, symBinAddr: 0x10000BE84, symSize: 0x1C }
  - { offsetInCU: 0xA2A9, offset: 0x331A9, size: 0x8, addend: 0x0, symName: __ZNSt15__uniq_ptr_dataI7JournalSt14default_deleteIS0_ELb1ELb1EECI1St15__uniq_ptr_implIS0_S2_EEPS0_, symObjAddr: 0x1C34, symBinAddr: 0x10000BE34, symSize: 0x28 }
  - { offsetInCU: 0xA2B1, offset: 0x331B1, size: 0x8, addend: 0x0, symName: __ZNSt10unique_ptrI7JournalSt14default_deleteIS0_EEC1IS2_vEEPS0_, symObjAddr: 0x1C5C, symBinAddr: 0x10000BE5C, symSize: 0x28 }
  - { offsetInCU: 0xA2D9, offset: 0x331D9, size: 0x8, addend: 0x0, symName: __ZSt7forwardIRK7JournalEOT_RNSt16remove_referenceIS3_E4typeE, symObjAddr: 0x1C20, symBinAddr: 0x10000BE20, symSize: 0x14 }
  - { offsetInCU: 0xA2E1, offset: 0x331E1, size: 0x8, addend: 0x0, symName: __ZNSt15__uniq_ptr_dataI7JournalSt14default_deleteIS0_ELb1ELb1EECI1St15__uniq_ptr_implIS0_S2_EEPS0_, symObjAddr: 0x1C34, symBinAddr: 0x10000BE34, symSize: 0x28 }
  - { offsetInCU: 0xA374, offset: 0x33274, size: 0x8, addend: 0x0, symName: __ZNSt10unique_ptrI15LiteratureEntrySt14default_deleteIS0_EEC1I7JournalS1_IS5_EvEEOS_IT_T0_E, symObjAddr: 0x1470, symBinAddr: 0x10000BDD0, symSize: 0x50 }
  - { offsetInCU: 0xA425, offset: 0x33325, size: 0x8, addend: 0x0, symName: __ZNSt15__uniq_ptr_dataI15LiteratureEntrySt14default_deleteIS0_ELb1ELb1EECI1St15__uniq_ptr_implIS0_S2_EIS1_I7JournalEEEPS0_OT_, symObjAddr: 0x1440, symBinAddr: 0x10000BDA0, symSize: 0x30 }
  - { offsetInCU: 0xA42D, offset: 0x3332D, size: 0x8, addend: 0x0, symName: __ZNSt10unique_ptrI15LiteratureEntrySt14default_deleteIS0_EEC1I7JournalS1_IS5_EvEEOS_IT_T0_E, symObjAddr: 0x1470, symBinAddr: 0x10000BDD0, symSize: 0x50 }
  - { offsetInCU: 0xA46B, offset: 0x3336B, size: 0x8, addend: 0x0, symName: __ZNSt10unique_ptrI7JournalSt14default_deleteIS0_EED1Ev, symObjAddr: 0x13D8, symBinAddr: 0x10000BD38, symSize: 0x68 }
  - { offsetInCU: 0xA473, offset: 0x33373, size: 0x8, addend: 0x0, symName: __ZNSt15__uniq_ptr_dataI15LiteratureEntrySt14default_deleteIS0_ELb1ELb1EECI1St15__uniq_ptr_implIS0_S2_EIS1_I7JournalEEEPS0_OT_, symObjAddr: 0x1440, symBinAddr: 0x10000BDA0, symSize: 0x30 }
  - { offsetInCU: 0xA511, offset: 0x33411, size: 0x8, addend: 0x0, symName: __ZSt11make_uniqueI7JournalJRKS0_EENSt9_MakeUniqIT_E15__single_objectEDpOT0_, symObjAddr: 0x1360, symBinAddr: 0x10000BCC0, symSize: 0x78 }
  - { offsetInCU: 0xA519, offset: 0x33419, size: 0x8, addend: 0x0, symName: __ZNSt10unique_ptrI7JournalSt14default_deleteIS0_EED1Ev, symObjAddr: 0x13D8, symBinAddr: 0x10000BD38, symSize: 0x68 }
  - { offsetInCU: 0xA52C, offset: 0x3342C, size: 0x8, addend: 0x0, symName: __ZN7JournalC1ERKS_, symObjAddr: 0x12D0, symBinAddr: 0x10000BC30, symSize: 0x90 }
  - { offsetInCU: 0xA534, offset: 0x33434, size: 0x8, addend: 0x0, symName: __ZSt11make_uniqueI7JournalJRKS0_EENSt9_MakeUniqIT_E15__single_objectEDpOT0_, symObjAddr: 0x1360, symBinAddr: 0x10000BCC0, symSize: 0x78 }
  - { offsetInCU: 0xA553, offset: 0x33453, size: 0x8, addend: 0x0, symName: __ZNK7Journal12get_encodingB5cxx11Ev, symObjAddr: 0x9C8, symBinAddr: 0x10000B890, symSize: 0x3A0 }
  - { offsetInCU: 0xA5BC, offset: 0x334BC, size: 0x8, addend: 0x0, symName: __ZNK7Journal10print_dataEv, symObjAddr: 0x758, symBinAddr: 0x10000B620, symSize: 0x270 }
  - { offsetInCU: 0xA5C4, offset: 0x334C4, size: 0x8, addend: 0x0, symName: __ZNK7Journal12get_encodingB5cxx11Ev, symObjAddr: 0x9C8, symBinAddr: 0x10000B890, symSize: 0x3A0 }
  - { offsetInCU: 0xA746, offset: 0x33646, size: 0x8, addend: 0x0, symName: __ZN7JournalC1ERKNSt7__cxx1112basic_stringIcSt11char_traitsIcESaIcEEESt10unique_ptrISt6vectorIS5_SaIS5_EESt14default_deleteISB_EEifS5_i, symObjAddr: 0x5AC, symBinAddr: 0x10000B474, symSize: 0x1AC }
  - { offsetInCU: 0xA74E, offset: 0x3364E, size: 0x8, addend: 0x0, symName: __ZNK7Journal10print_dataEv, symObjAddr: 0x758, symBinAddr: 0x10000B620, symSize: 0x270 }
  - { offsetInCU: 0xA7C5, offset: 0x336C5, size: 0x8, addend: 0x0, symName: __ZN7JournalC2ERKNSt7__cxx1112basic_stringIcSt11char_traitsIcESaIcEEESt10unique_ptrISt6vectorIS5_SaIS5_EESt14default_deleteISB_EEifS5_i, symObjAddr: 0x400, symBinAddr: 0x10000B2C8, symSize: 0x1AC }
  - { offsetInCU: 0xA7CD, offset: 0x336CD, size: 0x8, addend: 0x0, symName: __ZN7JournalC1ERKNSt7__cxx1112basic_stringIcSt11char_traitsIcESaIcEEESt10unique_ptrISt6vectorIS5_SaIS5_EESt14default_deleteISB_EEifS5_i, symObjAddr: 0x5AC, symBinAddr: 0x10000B474, symSize: 0x1AC }
  - { offsetInCU: 0xA7BD, offset: 0x336BD, size: 0x8, addend: 0x0, symName: __ZNK7Journal8get_typeB5cxx11Ev, symObjAddr: 0x34C, symBinAddr: 0x10000B264, symSize: 0x64 }
  - { offsetInCU: 0xA7EC, offset: 0x336EC, size: 0x8, addend: 0x0, symName: __ZNK7Journal5cloneEv, symObjAddr: 0x2FC, symBinAddr: 0x10000B214, symSize: 0x50 }
  - { offsetInCU: 0xA7F4, offset: 0x336F4, size: 0x8, addend: 0x0, symName: __ZNK7Journal8get_typeB5cxx11Ev, symObjAddr: 0x34C, symBinAddr: 0x10000B264, symSize: 0x64 }
  - { offsetInCU: 0xA852, offset: 0x33752, size: 0x8, addend: 0x0, symName: __ZN7JournalD0Ev, symObjAddr: 0x2D4, symBinAddr: 0x10000B1EC, symSize: 0x28 }
  - { offsetInCU: 0xA85A, offset: 0x3375A, size: 0x8, addend: 0x0, symName: __ZNK7Journal5cloneEv, symObjAddr: 0x2FC, symBinAddr: 0x10000B214, symSize: 0x50 }
  - { offsetInCU: 0xA880, offset: 0x33780, size: 0x8, addend: 0x0, symName: __ZN7JournalD1Ev, symObjAddr: 0x298, symBinAddr: 0x10000B1B0, symSize: 0x3C }
  - { offsetInCU: 0xA888, offset: 0x33788, size: 0x8, addend: 0x0, symName: __ZN7JournalD0Ev, symObjAddr: 0x2D4, symBinAddr: 0x10000B1EC, symSize: 0x28 }
  - { offsetInCU: 0x5146, offset: 0x388ED, size: 0x8, addend: 0x0, symName: __ZStL8__ioinit, symObjAddr: 0x4BA00, symBinAddr: 0x1000350A3, symSize: 0x0 }
  - { offsetInCU: 0x51F4, offset: 0x3899B, size: 0x8, addend: 0x0, symName: __ZN9__gnu_cxxL21__default_lock_policyE, symObjAddr: 0x45F8, symBinAddr: 0x10001F868, symSize: 0x0 }
  - { offsetInCU: 0x525C, offset: 0x38A03, size: 0x8, addend: 0x0, symName: __ZN6__pstl9execution2v1L3seqE, symObjAddr: 0x45FC, symBinAddr: 0x10001F86C, symSize: 0x0 }
  - { offsetInCU: 0x5276, offset: 0x38A1D, size: 0x8, addend: 0x0, symName: __ZN6__pstl9execution2v1L3parE, symObjAddr: 0x45FD, symBinAddr: 0x10001F86D, symSize: 0x0 }
  - { offsetInCU: 0x5296, offset: 0x38A3D, size: 0x8, addend: 0x0, symName: __ZN6__pstl9execution2v1L9par_unseqE, symObjAddr: 0x45FE, symBinAddr: 0x10001F86E, symSize: 0x0 }
  - { offsetInCU: 0x52AC, offset: 0x38A53, size: 0x8, addend: 0x0, symName: __ZN6__pstl9execution2v1L5unseqE, symObjAddr: 0x45FF, symBinAddr: 0x10001F86F, symSize: 0x0 }
  - { offsetInCU: 0x9A32, offset: 0x3D1D9, size: 0x8, addend: 0x0, symName: __GLOBAL__sub_I_Thesis.cpp, symObjAddr: 0x43AC, symBinAddr: 0x10000DD00, symSize: 0x1C }
  - { offsetInCU: 0x9A5C, offset: 0x3D203, size: 0x8, addend: 0x0, symName: __Z41__static_initialization_and_destruction_0ii, symObjAddr: 0x434C, symBinAddr: 0x10000DCA0, symSize: 0x60 }
  - { offsetInCU: 0x9A64, offset: 0x3D20B, size: 0x8, addend: 0x0, symName: __GLOBAL__sub_I_Thesis.cpp, symObjAddr: 0x43AC, symBinAddr: 0x10000DD00, symSize: 0x1C }
  - { offsetInCU: 0x9AE2, offset: 0x3D289, size: 0x8, addend: 0x0, symName: __ZNSt14default_deleteI15LiteratureEntryEC1I6ThesisvEERKS_IT_E, symObjAddr: 0x41A4, symBinAddr: 0x10000DC88, symSize: 0x18 }
  - { offsetInCU: 0x9AEB, offset: 0x3D292, size: 0x8, addend: 0x0, symName: __ZNSt10_Head_baseILm1ESt14default_deleteI6ThesisELb1EE7_M_headERS3_, symObjAddr: 0x4190, symBinAddr: 0x10000DC74, symSize: 0x14 }
  - { offsetInCU: 0x9AF3, offset: 0x3D29A, size: 0x8, addend: 0x0, symName: __ZNSt14default_deleteI15LiteratureEntryEC1I6ThesisvEERKS_IT_E, symObjAddr: 0x41A4, symBinAddr: 0x10000DC88, symSize: 0x18 }
  - { offsetInCU: 0x9B70, offset: 0x3D317, size: 0x8, addend: 0x0, symName: __ZNSt10_Head_baseILm1ESt14default_deleteI6ThesisELb1EEC2Ev, symObjAddr: 0x417C, symBinAddr: 0x10000DC60, symSize: 0x14 }
  - { offsetInCU: 0x9B78, offset: 0x3D31F, size: 0x8, addend: 0x0, symName: __ZNSt10_Head_baseILm1ESt14default_deleteI6ThesisELb1EE7_M_headERS3_, symObjAddr: 0x4190, symBinAddr: 0x10000DC74, symSize: 0x14 }
  - { offsetInCU: 0x9BF8, offset: 0x3D39F, size: 0x8, addend: 0x0, symName: __ZNSt10_Head_baseILm1ESt14default_deleteI15LiteratureEntryELb1EEC2IS0_I6ThesisEEEOT_, symObjAddr: 0x3F04, symBinAddr: 0x10000DC24, symSize: 0x3C }
  - { offsetInCU: 0x9BEA, offset: 0x3D391, size: 0x8, addend: 0x0, symName: __ZNSt11_Tuple_implILm1EJSt14default_deleteI6ThesisEEE7_M_headERS3_, symObjAddr: 0x3EE8, symBinAddr: 0x10000DC08, symSize: 0x1C }
  - { offsetInCU: 0x9BF2, offset: 0x3D399, size: 0x8, addend: 0x0, symName: __ZNSt10_Head_baseILm1ESt14default_deleteI15LiteratureEntryELb1EEC2IS0_I6ThesisEEEOT_, symObjAddr: 0x3F04, symBinAddr: 0x10000DC24, symSize: 0x3C }
  - { offsetInCU: 0x9C1C, offset: 0x3D3C3, size: 0x8, addend: 0x0, symName: __ZNSt10_Head_baseILm0EP6ThesisLb0EE7_M_headERS2_, symObjAddr: 0x3ED4, symBinAddr: 0x10000DBF4, symSize: 0x14 }
  - { offsetInCU: 0x9C24, offset: 0x3D3CB, size: 0x8, addend: 0x0, symName: __ZNSt11_Tuple_implILm1EJSt14default_deleteI6ThesisEEE7_M_headERS3_, symObjAddr: 0x3EE8, symBinAddr: 0x10000DC08, symSize: 0x1C }
  - { offsetInCU: 0x9C8E, offset: 0x3D435, size: 0x8, addend: 0x0, symName: __ZNSt10_Head_baseILm0EP6ThesisLb0EEC2Ev, symObjAddr: 0x3EB8, symBinAddr: 0x10000DBD8, symSize: 0x1C }
  - { offsetInCU: 0x9C96, offset: 0x3D43D, size: 0x8, addend: 0x0, symName: __ZNSt10_Head_baseILm0EP6ThesisLb0EE7_M_headERS2_, symObjAddr: 0x3ED4, symBinAddr: 0x10000DBF4, symSize: 0x14 }
  - { offsetInCU: 0x9CE7, offset: 0x3D48E, size: 0x8, addend: 0x0, symName: __ZNSt11_Tuple_implILm1EJSt14default_deleteI6ThesisEEEC2Ev, symObjAddr: 0x3E98, symBinAddr: 0x10000DBB8, symSize: 0x20 }
  - { offsetInCU: 0x9CEF, offset: 0x3D496, size: 0x8, addend: 0x0, symName: __ZNSt10_Head_baseILm0EP6ThesisLb0EEC2Ev, symObjAddr: 0x3EB8, symBinAddr: 0x10000DBD8, symSize: 0x1C }
  - { offsetInCU: 0x9D66, offset: 0x3D50D, size: 0x8, addend: 0x0, symName: __ZNSt11_Tuple_implILm1EJSt14default_deleteI15LiteratureEntryEEEC2IS0_I6ThesisEEEOT_, symObjAddr: 0x3AA4, symBinAddr: 0x10000DB88, symSize: 0x30 }
  - { offsetInCU: 0x9DE6, offset: 0x3D58D, size: 0x8, addend: 0x0, symName: __ZSt12__get_helperILm1ESt14default_deleteI6ThesisEJEERT0_RSt11_Tuple_implIXT_EJS3_DpT1_EE, symObjAddr: 0x3A88, symBinAddr: 0x10000DB6C, symSize: 0x1C }
  - { offsetInCU: 0x9DEE, offset: 0x3D595, size: 0x8, addend: 0x0, symName: __ZNSt11_Tuple_implILm1EJSt14default_deleteI15LiteratureEntryEEEC2IS0_I6ThesisEEEOT_, symObjAddr: 0x3AA4, symBinAddr: 0x10000DB88, symSize: 0x30 }
  - { offsetInCU: 0x9DB8, offset: 0x3D55F, size: 0x8, addend: 0x0, symName: __ZNSt11_Tuple_implILm0EJP6ThesisSt14default_deleteIS0_EEE7_M_headERS4_, symObjAddr: 0x3A6C, symBinAddr: 0x10000DB50, symSize: 0x1C }
  - { offsetInCU: 0x9DC0, offset: 0x3D567, size: 0x8, addend: 0x0, symName: __ZSt12__get_helperILm1ESt14default_deleteI6ThesisEJEERT0_RSt11_Tuple_implIXT_EJS3_DpT1_EE, symObjAddr: 0x3A88, symBinAddr: 0x10000DB6C, symSize: 0x1C }
  - { offsetInCU: 0x9E41, offset: 0x3D5E8, size: 0x8, addend: 0x0, symName: __ZNSt11_Tuple_implILm0EJP6ThesisSt14default_deleteIS0_EEEC2Ev, symObjAddr: 0x3A44, symBinAddr: 0x10000DB28, symSize: 0x28 }
  - { offsetInCU: 0x9E49, offset: 0x3D5F0, size: 0x8, addend: 0x0, symName: __ZNSt11_Tuple_implILm0EJP6ThesisSt14default_deleteIS0_EEE7_M_headERS4_, symObjAddr: 0x3A6C, symBinAddr: 0x10000DB50, symSize: 0x1C }
  - { offsetInCU: 0x9E3A, offset: 0x3D5E1, size: 0x8, addend: 0x0, symName: __ZSt9__find_ifIN9__gnu_cxx17__normal_iteratorIPNSt7__cxx1112basic_stringIcSt11char_traitsIcESaIcEEESt6vectorIS7_SaIS7_EEEENS0_5__ops10_Iter_predIZN6Thesis17remove_supervisorERKS7_EUlSH_E_EEET_SK_SK_T0_St26random_access_iterator_tag, symObjAddr: 0x37E4, symBinAddr: 0x10000D98C, symSize: 0x19C }
  - { offsetInCU: 0x9F88, offset: 0x3D72F, size: 0x8, addend: 0x0, symName: __ZNSt11_Tuple_implILm0EJP15LiteratureEntrySt14default_deleteIS0_EEEC2IRS1_JS2_I6ThesisEEvEEOT_DpOT0_, symObjAddr: 0x3554, symBinAddr: 0x10000D938, symSize: 0x54 }
  - { offsetInCU: 0xA032, offset: 0x3D7D9, size: 0x8, addend: 0x0, symName: __ZSt3getILm1EJP6ThesisSt14default_deleteIS0_EEERNSt13tuple_elementIXT_ESt5tupleIJDpT0_EEE4typeERS8_, symObjAddr: 0x3524, symBinAddr: 0x10000D91C, symSize: 0x1C }
  - { offsetInCU: 0xA0A4, offset: 0x3D84B, size: 0x8, addend: 0x0, symName: __ZSt12__get_helperILm0EP6ThesisJSt14default_deleteIS0_EEERT0_RSt11_Tuple_implIXT_EJS4_DpT1_EE, symObjAddr: 0x3508, symBinAddr: 0x10000D900, symSize: 0x1C }
  - { offsetInCU: 0xA0AC, offset: 0x3D853, size: 0x8, addend: 0x0, symName: __ZSt3getILm1EJP6ThesisSt14default_deleteIS0_EEERNSt13tuple_elementIXT_ESt5tupleIJDpT0_EEE4typeERS8_, symObjAddr: 0x3524, symBinAddr: 0x10000D91C, symSize: 0x1C }
  - { offsetInCU: 0xA0D8, offset: 0x3D87F, size: 0x8, addend: 0x0, symName: __ZNSt5tupleIJP6ThesisSt14default_deleteIS0_EEEC1ILb1ELb1EEEv, symObjAddr: 0x34E8, symBinAddr: 0x10000D8E0, symSize: 0x20 }
  - { offsetInCU: 0xA0E0, offset: 0x3D887, size: 0x8, addend: 0x0, symName: __ZSt12__get_helperILm0EP6ThesisJSt14default_deleteIS0_EEERT0_RSt11_Tuple_implIXT_EJS4_DpT1_EE, symObjAddr: 0x3508, symBinAddr: 0x10000D900, symSize: 0x1C }
  - { offsetInCU: 0xA0D8, offset: 0x3D87F, size: 0x8, addend: 0x0, symName: __ZN9__gnu_cxx5__ops10_Iter_predIZN6Thesis17remove_supervisorERKNSt7__cxx1112basic_stringIcSt11char_traitsIcESaIcEEEEUlSA_E_EclINS_17__normal_iteratorIPS8_St6vectorIS8_SaIS8_EEEEEEbT_, symObjAddr: 0x3344, symBinAddr: 0x10000D8A4, symSize: 0x3C }
  - { offsetInCU: 0xA131, offset: 0x3D8D8, size: 0x8, addend: 0x0, symName: __ZSt9__find_ifIN9__gnu_cxx17__normal_iteratorIPNSt7__cxx1112basic_stringIcSt11char_traitsIcESaIcEEESt6vectorIS7_SaIS7_EEEENS0_5__ops10_Iter_predIZN6Thesis17remove_supervisorERKS7_EUlSH_E_EEET_SK_SK_T0_, symObjAddr: 0x32C0, symBinAddr: 0x10000D864, symSize: 0x40 }
  - { offsetInCU: 0xA1D0, offset: 0x3D977, size: 0x8, addend: 0x0, symName: __ZN9__gnu_cxx5__ops10_Iter_predIZN6Thesis17remove_supervisorERKNSt7__cxx1112basic_stringIcSt11char_traitsIcESaIcEEEEUlSA_E_EC1ESB_, symObjAddr: 0x328C, symBinAddr: 0x10000D830, symSize: 0x34 }
  - { offsetInCU: 0xA1D8, offset: 0x3D97F, size: 0x8, addend: 0x0, symName: __ZSt9__find_ifIN9__gnu_cxx17__normal_iteratorIPNSt7__cxx1112basic_stringIcSt11char_traitsIcESaIcEEESt6vectorIS7_SaIS7_EEEENS0_5__ops10_Iter_predIZN6Thesis17remove_supervisorERKS7_EUlSH_E_EEET_SK_SK_T0_, symObjAddr: 0x32C0, symBinAddr: 0x10000D864, symSize: 0x40 }
  - { offsetInCU: 0xA253, offset: 0x3D9FA, size: 0x8, addend: 0x0, symName: __ZSt4moveIRZN6Thesis17remove_supervisorERKNSt7__cxx1112basic_stringIcSt11char_traitsIcESaIcEEEEUlS8_E_EONSt16remove_referenceIT_E4typeEOSC_, symObjAddr: 0x3278, symBinAddr: 0x10000D81C, symSize: 0x14 }
  - { offsetInCU: 0xA25B, offset: 0x3DA02, size: 0x8, addend: 0x0, symName: __ZN9__gnu_cxx5__ops10_Iter_predIZN6Thesis17remove_supervisorERKNSt7__cxx1112basic_stringIcSt11char_traitsIcESaIcEEEEUlSA_E_EC1ESB_, symObjAddr: 0x328C, symBinAddr: 0x10000D830, symSize: 0x34 }
  - { offsetInCU: 0xA30E, offset: 0x3DAB5, size: 0x8, addend: 0x0, symName: __ZNSt5tupleIJP15LiteratureEntrySt14default_deleteIS0_EEEC1IRS1_S2_I6ThesisELb1EEEOT_OT0_, symObjAddr: 0x2D20, symBinAddr: 0x10000D7CC, symSize: 0x50 }
  - { offsetInCU: 0xA315, offset: 0x3DABC, size: 0x8, addend: 0x0, symName: __ZNSt15__uniq_ptr_implI6ThesisSt14default_deleteIS0_EE7releaseEv, symObjAddr: 0x2CEC, symBinAddr: 0x10000D798, symSize: 0x34 }
  - { offsetInCU: 0xA31D, offset: 0x3DAC4, size: 0x8, addend: 0x0, symName: __ZNSt5tupleIJP15LiteratureEntrySt14default_deleteIS0_EEEC1IRS1_S2_I6ThesisELb1EEEOT_OT0_, symObjAddr: 0x2D20, symBinAddr: 0x10000D7CC, symSize: 0x50 }
  - { offsetInCU: 0xA357, offset: 0x3DAFE, size: 0x8, addend: 0x0, symName: __ZNSt15__uniq_ptr_implI6ThesisSt14default_deleteIS0_EE10_M_deleterEv, symObjAddr: 0x2CD0, symBinAddr: 0x10000D77C, symSize: 0x1C }
  - { offsetInCU: 0xA35F, offset: 0x3DB06, size: 0x8, addend: 0x0, symName: __ZNSt15__uniq_ptr_implI6ThesisSt14default_deleteIS0_EE7releaseEv, symObjAddr: 0x2CEC, symBinAddr: 0x10000D798, symSize: 0x34 }
  - { offsetInCU: 0xA42D, offset: 0x3DBD4, size: 0x8, addend: 0x0, symName: __ZSt3getILm0EJP6ThesisSt14default_deleteIS0_EEERNSt13tuple_elementIXT_ESt5tupleIJDpT0_EEE4typeERS8_, symObjAddr: 0x2CB4, symBinAddr: 0x10000D760, symSize: 0x1C }
  - { offsetInCU: 0xA435, offset: 0x3DBDC, size: 0x8, addend: 0x0, symName: __ZNSt15__uniq_ptr_implI6ThesisSt14default_deleteIS0_EE10_M_deleterEv, symObjAddr: 0x2CD0, symBinAddr: 0x10000D77C, symSize: 0x1C }
  - { offsetInCU: 0xA46C, offset: 0x3DC13, size: 0x8, addend: 0x0, symName: __ZNSt15__uniq_ptr_implI6ThesisSt14default_deleteIS0_EEC2EPS0_, symObjAddr: 0x2C78, symBinAddr: 0x10000D724, symSize: 0x3C }
  - { offsetInCU: 0xA474, offset: 0x3DC1B, size: 0x8, addend: 0x0, symName: __ZSt3getILm0EJP6ThesisSt14default_deleteIS0_EEERNSt13tuple_elementIXT_ESt5tupleIJDpT0_EEE4typeERS8_, symObjAddr: 0x2CB4, symBinAddr: 0x10000D760, symSize: 0x1C }
  - { offsetInCU: 0xA54D, offset: 0x3DCF4, size: 0x8, addend: 0x0, symName: __ZSt11__remove_ifIN9__gnu_cxx17__normal_iteratorIPNSt7__cxx1112basic_stringIcSt11char_traitsIcESaIcEEESt6vectorIS7_SaIS7_EEEENS0_5__ops10_Iter_predIZN6Thesis17remove_supervisorERKS7_EUlSH_E_EEET_SK_SK_T0_, symObjAddr: 0x28C0, symBinAddr: 0x10000D64C, symSize: 0xD8 }
  - { offsetInCU: 0xA54D, offset: 0x3DCF4, size: 0x8, addend: 0x0, symName: __ZN9__gnu_cxx5__ops11__pred_iterIZN6Thesis17remove_supervisorERKNSt7__cxx1112basic_stringIcSt11char_traitsIcESaIcEEEEUlSA_E_EENS0_10_Iter_predIT_EESD_, symObjAddr: 0x2890, symBinAddr: 0x10000D61C, symSize: 0x30 }
  - { offsetInCU: 0xA555, offset: 0x3DCFC, size: 0x8, addend: 0x0, symName: __ZSt11__remove_ifIN9__gnu_cxx17__normal_iteratorIPNSt7__cxx1112basic_stringIcSt11char_traitsIcESaIcEEESt6vectorIS7_SaIS7_EEEENS0_5__ops10_Iter_predIZN6Thesis17remove_supervisorERKS7_EUlSH_E_EEET_SK_SK_T0_, symObjAddr: 0x28C0, symBinAddr: 0x10000D64C, symSize: 0xD8 }
  - { offsetInCU: 0xA5E0, offset: 0x3DD87, size: 0x8, addend: 0x0, symName: __ZNSt15__uniq_ptr_implI15LiteratureEntrySt14default_deleteIS0_EEC2IS1_I6ThesisEEEPS0_OT_, symObjAddr: 0x2368, symBinAddr: 0x10000D5D0, symSize: 0x4C }
  - { offsetInCU: 0xA652, offset: 0x3DDF9, size: 0x8, addend: 0x0, symName: __ZSt7forwardISt14default_deleteI6ThesisEEOT_RNSt16remove_referenceIS3_E4typeE, symObjAddr: 0x2354, symBinAddr: 0x10000D5BC, symSize: 0x14 }
  - { offsetInCU: 0xA65A, offset: 0x3DE01, size: 0x8, addend: 0x0, symName: __ZNSt15__uniq_ptr_implI15LiteratureEntrySt14default_deleteIS0_EEC2IS1_I6ThesisEEEPS0_OT_, symObjAddr: 0x2368, symBinAddr: 0x10000D5D0, symSize: 0x4C }
  - { offsetInCU: 0xA62E, offset: 0x3DDD5, size: 0x8, addend: 0x0, symName: __ZNSt10unique_ptrI6ThesisSt14default_deleteIS0_EE7releaseEv, symObjAddr: 0x2338, symBinAddr: 0x10000D5A0, symSize: 0x1C }
  - { offsetInCU: 0xA636, offset: 0x3DDDD, size: 0x8, addend: 0x0, symName: __ZSt7forwardISt14default_deleteI6ThesisEEOT_RNSt16remove_referenceIS3_E4typeE, symObjAddr: 0x2354, symBinAddr: 0x10000D5BC, symSize: 0x14 }
  - { offsetInCU: 0xA65D, offset: 0x3DE04, size: 0x8, addend: 0x0, symName: __ZNKSt14default_deleteI6ThesisEclEPS0_, symObjAddr: 0x2300, symBinAddr: 0x10000D568, symSize: 0x38 }
  - { offsetInCU: 0xA665, offset: 0x3DE0C, size: 0x8, addend: 0x0, symName: __ZNSt10unique_ptrI6ThesisSt14default_deleteIS0_EE7releaseEv, symObjAddr: 0x2338, symBinAddr: 0x10000D5A0, symSize: 0x1C }
  - { offsetInCU: 0xA6EB, offset: 0x3DE92, size: 0x8, addend: 0x0, symName: __ZSt4moveIRP6ThesisEONSt16remove_referenceIT_E4typeEOS4_, symObjAddr: 0x22EC, symBinAddr: 0x10000D554, symSize: 0x14 }
  - { offsetInCU: 0xA6F3, offset: 0x3DE9A, size: 0x8, addend: 0x0, symName: __ZNKSt14default_deleteI6ThesisEclEPS0_, symObjAddr: 0x2300, symBinAddr: 0x10000D568, symSize: 0x38 }
  - { offsetInCU: 0xA6F3, offset: 0x3DE9A, size: 0x8, addend: 0x0, symName: __ZNSt10unique_ptrI6ThesisSt14default_deleteIS0_EE11get_deleterEv, symObjAddr: 0x22D0, symBinAddr: 0x10000D538, symSize: 0x1C }
  - { offsetInCU: 0xA6FB, offset: 0x3DEA2, size: 0x8, addend: 0x0, symName: __ZSt4moveIRP6ThesisEONSt16remove_referenceIT_E4typeEOS4_, symObjAddr: 0x22EC, symBinAddr: 0x10000D554, symSize: 0x14 }
  - { offsetInCU: 0xA722, offset: 0x3DEC9, size: 0x8, addend: 0x0, symName: __ZNSt15__uniq_ptr_implI6ThesisSt14default_deleteIS0_EE6_M_ptrEv, symObjAddr: 0x22B4, symBinAddr: 0x10000D51C, symSize: 0x1C }
  - { offsetInCU: 0xA72A, offset: 0x3DED1, size: 0x8, addend: 0x0, symName: __ZNSt10unique_ptrI6ThesisSt14default_deleteIS0_EE11get_deleterEv, symObjAddr: 0x22D0, symBinAddr: 0x10000D538, symSize: 0x1C }
  - { offsetInCU: 0xA7C8, offset: 0x3DF6F, size: 0x8, addend: 0x0, symName: __ZNSt10unique_ptrI6ThesisSt14default_deleteIS0_EEC1IS2_vEEPS0_, symObjAddr: 0x228C, symBinAddr: 0x10000D4F4, symSize: 0x28 }
  - { offsetInCU: 0xA7D0, offset: 0x3DF77, size: 0x8, addend: 0x0, symName: __ZNSt15__uniq_ptr_implI6ThesisSt14default_deleteIS0_EE6_M_ptrEv, symObjAddr: 0x22B4, symBinAddr: 0x10000D51C, symSize: 0x1C }
  - { offsetInCU: 0xA858, offset: 0x3DFFF, size: 0x8, addend: 0x0, symName: __ZNSt15__uniq_ptr_dataI6ThesisSt14default_deleteIS0_ELb1ELb1EECI1St15__uniq_ptr_implIS0_S2_EEPS0_, symObjAddr: 0x2264, symBinAddr: 0x10000D4CC, symSize: 0x28 }
  - { offsetInCU: 0xA860, offset: 0x3E007, size: 0x8, addend: 0x0, symName: __ZNSt10unique_ptrI6ThesisSt14default_deleteIS0_EEC1IS2_vEEPS0_, symObjAddr: 0x228C, symBinAddr: 0x10000D4F4, symSize: 0x28 }
  - { offsetInCU: 0xA887, offset: 0x3E02E, size: 0x8, addend: 0x0, symName: __ZSt7forwardIRK6ThesisEOT_RNSt16remove_referenceIS3_E4typeE, symObjAddr: 0x2250, symBinAddr: 0x10000D4B8, symSize: 0x14 }
  - { offsetInCU: 0xA88F, offset: 0x3E036, size: 0x8, addend: 0x0, symName: __ZNSt15__uniq_ptr_dataI6ThesisSt14default_deleteIS0_ELb1ELb1EECI1St15__uniq_ptr_implIS0_S2_EEPS0_, symObjAddr: 0x2264, symBinAddr: 0x10000D4CC, symSize: 0x28 }
  - { offsetInCU: 0xA948, offset: 0x3E0EF, size: 0x8, addend: 0x0, symName: __ZSt9remove_ifIN9__gnu_cxx17__normal_iteratorIPNSt7__cxx1112basic_stringIcSt11char_traitsIcESaIcEEESt6vectorIS7_SaIS7_EEEEZN6Thesis17remove_supervisorERKS7_EUlSF_E_ET_SH_SH_T0_, symObjAddr: 0x1D38, symBinAddr: 0x10000D484, symSize: 0x34 }
  - { offsetInCU: 0xA94B, offset: 0x3E0F2, size: 0x8, addend: 0x0, symName: __ZSt4moveIR6ThesisEONSt16remove_referenceIT_E4typeEOS3_, symObjAddr: 0x1B94, symBinAddr: 0x10000D470, symSize: 0x14 }
  - { offsetInCU: 0xA9F4, offset: 0x3E19B, size: 0x8, addend: 0x0, symName: __ZNSt10unique_ptrI15LiteratureEntrySt14default_deleteIS0_EEC1I6ThesisS1_IS5_EvEEOS_IT_T0_E, symObjAddr: 0x1980, symBinAddr: 0x10000D420, symSize: 0x50 }
  - { offsetInCU: 0xAAA5, offset: 0x3E24C, size: 0x8, addend: 0x0, symName: __ZNSt15__uniq_ptr_dataI15LiteratureEntrySt14default_deleteIS0_ELb1ELb1EECI1St15__uniq_ptr_implIS0_S2_EIS1_I6ThesisEEEPS0_OT_, symObjAddr: 0x1950, symBinAddr: 0x10000D3F0, symSize: 0x30 }
  - { offsetInCU: 0xAAAD, offset: 0x3E254, size: 0x8, addend: 0x0, symName: __ZNSt10unique_ptrI15LiteratureEntrySt14default_deleteIS0_EEC1I6ThesisS1_IS5_EvEEOS_IT_T0_E, symObjAddr: 0x1980, symBinAddr: 0x10000D420, symSize: 0x50 }
  - { offsetInCU: 0xAAEB, offset: 0x3E292, size: 0x8, addend: 0x0, symName: __ZNSt10unique_ptrI6ThesisSt14default_deleteIS0_EED1Ev, symObjAddr: 0x18E8, symBinAddr: 0x10000D388, symSize: 0x68 }
  - { offsetInCU: 0xAAF3, offset: 0x3E29A, size: 0x8, addend: 0x0, symName: __ZNSt15__uniq_ptr_dataI15LiteratureEntrySt14default_deleteIS0_ELb1ELb1EECI1St15__uniq_ptr_implIS0_S2_EIS1_I6ThesisEEEPS0_OT_, symObjAddr: 0x1950, symBinAddr: 0x10000D3F0, symSize: 0x30 }
  - { offsetInCU: 0xAB8F, offset: 0x3E336, size: 0x8, addend: 0x0, symName: __ZSt11make_uniqueI6ThesisJRKS0_EENSt9_MakeUniqIT_E15__single_objectEDpOT0_, symObjAddr: 0x1870, symBinAddr: 0x10000D310, symSize: 0x78 }
  - { offsetInCU: 0xAB97, offset: 0x3E33E, size: 0x8, addend: 0x0, symName: __ZNSt10unique_ptrI6ThesisSt14default_deleteIS0_EED1Ev, symObjAddr: 0x18E8, symBinAddr: 0x10000D388, symSize: 0x68 }
  - { offsetInCU: 0xAC21, offset: 0x3E3C8, size: 0x8, addend: 0x0, symName: __ZNSt10unique_ptrISt6vectorINSt7__cxx1112basic_stringIcSt11char_traitsIcESaIcEEESaIS6_EESt14default_deleteIS8_EEC1ISA_vEEDn, symObjAddr: 0x17DC, symBinAddr: 0x10000D2E4, symSize: 0x2C }
  - { offsetInCU: 0xACA7, offset: 0x3E44E, size: 0x8, addend: 0x0, symName: __ZNSt15__uniq_ptr_dataISt6vectorINSt7__cxx1112basic_stringIcSt11char_traitsIcESaIcEEESaIS6_EESt14default_deleteIS8_ELb1ELb1EECI1St15__uniq_ptr_implIS8_SA_EEv, symObjAddr: 0x17BC, symBinAddr: 0x10000D2C4, symSize: 0x20 }
  - { offsetInCU: 0xACAF, offset: 0x3E456, size: 0x8, addend: 0x0, symName: __ZNSt10unique_ptrISt6vectorINSt7__cxx1112basic_stringIcSt11char_traitsIcESaIcEEESaIS6_EESt14default_deleteIS8_EEC1ISA_vEEDn, symObjAddr: 0x17DC, symBinAddr: 0x10000D2E4, symSize: 0x2C }
  - { offsetInCU: 0xACCA, offset: 0x3E471, size: 0x8, addend: 0x0, symName: __ZNSt15__uniq_ptr_implISt6vectorINSt7__cxx1112basic_stringIcSt11char_traitsIcESaIcEEESaIS6_EESt14default_deleteIS8_EEC2Ev, symObjAddr: 0x179C, symBinAddr: 0x10000D2A4, symSize: 0x20 }
  - { offsetInCU: 0xACD2, offset: 0x3E479, size: 0x8, addend: 0x0, symName: __ZNSt15__uniq_ptr_dataISt6vectorINSt7__cxx1112basic_stringIcSt11char_traitsIcESaIcEEESaIS6_EESt14default_deleteIS8_ELb1ELb1EECI1St15__uniq_ptr_implIS8_SA_EEv, symObjAddr: 0x17BC, symBinAddr: 0x10000D2C4, symSize: 0x20 }
  - { offsetInCU: 0xAC7E, offset: 0x3E425, size: 0x8, addend: 0x0, symName: __ZNK6Thesis12get_encodingB5cxx11Ev, symObjAddr: 0x1044, symBinAddr: 0x10000CEF8, symSize: 0x3AC }
  - { offsetInCU: 0xAD0D, offset: 0x3E4B4, size: 0x8, addend: 0x0, symName: __ZNK6Thesis12print_bibtexEv, symObjAddr: 0xDD4, symBinAddr: 0x10000CC88, symSize: 0x270 }
  - { offsetInCU: 0xAD15, offset: 0x3E4BC, size: 0x8, addend: 0x0, symName: __ZNK6Thesis12get_encodingB5cxx11Ev, symObjAddr: 0x1044, symBinAddr: 0x10000CEF8, symSize: 0x3AC }
  - { offsetInCU: 0xAD61, offset: 0x3E508, size: 0x8, addend: 0x0, symName: __ZNK6Thesis10print_dataEv, symObjAddr: 0xC94, symBinAddr: 0x10000CB48, symSize: 0x140 }
  - { offsetInCU: 0xAD69, offset: 0x3E510, size: 0x8, addend: 0x0, symName: __ZNK6Thesis12print_bibtexEv, symObjAddr: 0xDD4, symBinAddr: 0x10000CC88, symSize: 0x270 }
  - { offsetInCU: 0xADEB, offset: 0x3E592, size: 0x8, addend: 0x0, symName: __ZN6Thesis17remove_supervisorERKNSt7__cxx1112basic_stringIcSt11char_traitsIcESaIcEEE, symObjAddr: 0xBE8, symBinAddr: 0x10000CA9C, symSize: 0xAC }
  - { offsetInCU: 0xADF3, offset: 0x3E59A, size: 0x8, addend: 0x0, symName: __ZNK6Thesis10print_dataEv, symObjAddr: 0xC94, symBinAddr: 0x10000CB48, symSize: 0x140 }
  - { offsetInCU: 0xAEA9, offset: 0x3E650, size: 0x8, addend: 0x0, symName: __ZZN6Thesis17remove_supervisorERKNSt7__cxx1112basic_stringIcSt11char_traitsIcESaIcEEEENKUlS7_E_clES7_, symObjAddr: 0xBB8, symBinAddr: 0x10000CA6C, symSize: 0x30 }
  - { offsetInCU: 0xAEB1, offset: 0x3E658, size: 0x8, addend: 0x0, symName: __ZN6Thesis17remove_supervisorERKNSt7__cxx1112basic_stringIcSt11char_traitsIcESaIcEEE, symObjAddr: 0xBE8, symBinAddr: 0x10000CA9C, symSize: 0xAC }
  - { offsetInCU: 0xAF1C, offset: 0x3E6C3, size: 0x8, addend: 0x0, symName: __ZN6Thesis14add_supervisorERKNSt7__cxx1112basic_stringIcSt11char_traitsIcESaIcEEE, symObjAddr: 0xB88, symBinAddr: 0x10000CA3C, symSize: 0x30 }
  - { offsetInCU: 0xAF24, offset: 0x3E6CB, size: 0x8, addend: 0x0, symName: __ZZN6Thesis17remove_supervisorERKNSt7__cxx1112basic_stringIcSt11char_traitsIcESaIcEEEENKUlS7_E_clES7_, symObjAddr: 0xBB8, symBinAddr: 0x10000CA6C, symSize: 0x30 }
  - { offsetInCU: 0xAF5E, offset: 0x3E705, size: 0x8, addend: 0x0, symName: __ZN6ThesisaSEOS_, symObjAddr: 0xAF8, symBinAddr: 0x10000C9AC, symSize: 0x90 }
  - { offsetInCU: 0xAF66, offset: 0x3E70D, size: 0x8, addend: 0x0, symName: __ZN6Thesis14add_supervisorERKNSt7__cxx1112basic_stringIcSt11char_traitsIcESaIcEEE, symObjAddr: 0xB88, symBinAddr: 0x10000CA3C, symSize: 0x30 }
  - { offsetInCU: 0xAFA0, offset: 0x3E747, size: 0x8, addend: 0x0, symName: __ZN6ThesisaSERKS_, symObjAddr: 0xA64, symBinAddr: 0x10000C918, symSize: 0x94 }
  - { offsetInCU: 0xAFA8, offset: 0x3E74F, size: 0x8, addend: 0x0, symName: __ZN6ThesisaSEOS_, symObjAddr: 0xAF8, symBinAddr: 0x10000C9AC, symSize: 0x90 }
  - { offsetInCU: 0xB01C, offset: 0x3E7C3, size: 0x8, addend: 0x0, symName: __ZN6ThesisC1EOS_, symObjAddr: 0x9B0, symBinAddr: 0x10000C864, symSize: 0xB4 }
  - { offsetInCU: 0xB024, offset: 0x3E7CB, size: 0x8, addend: 0x0, symName: __ZN6ThesisaSERKS_, symObjAddr: 0xA64, symBinAddr: 0x10000C918, symSize: 0x94 }
  - { offsetInCU: 0xB056, offset: 0x3E7FD, size: 0x8, addend: 0x0, symName: __ZN6ThesisC2EOS_, symObjAddr: 0x8FC, symBinAddr: 0x10000C7B0, symSize: 0xB4 }
  - { offsetInCU: 0xB05E, offset: 0x3E805, size: 0x8, addend: 0x0, symName: __ZN6ThesisC1EOS_, symObjAddr: 0x9B0, symBinAddr: 0x10000C864, symSize: 0xB4 }
  - { offsetInCU: 0xB0BA, offset: 0x3E861, size: 0x8, addend: 0x0, symName: __ZN6ThesisC1ERKS_, symObjAddr: 0x814, symBinAddr: 0x10000C6C8, symSize: 0xE8 }
  - { offsetInCU: 0xB0C2, offset: 0x3E869, size: 0x8, addend: 0x0, symName: __ZN6ThesisC2EOS_, symObjAddr: 0x8FC, symBinAddr: 0x10000C7B0, symSize: 0xB4 }
  - { offsetInCU: 0xB0F4, offset: 0x3E89B, size: 0x8, addend: 0x0, symName: __ZN6ThesisC2ERKS_, symObjAddr: 0x72C, symBinAddr: 0x10000C5E0, symSize: 0xE8 }
  - { offsetInCU: 0xB0FC, offset: 0x3E8A3, size: 0x8, addend: 0x0, symName: __ZN6ThesisC1ERKS_, symObjAddr: 0x814, symBinAddr: 0x10000C6C8, symSize: 0xE8 }
  - { offsetInCU: 0xB20C, offset: 0x3E9B3, size: 0x8, addend: 0x0, symName: __ZN6ThesisC1ERKNSt7__cxx1112basic_stringIcSt11char_traitsIcESaIcEEESt10unique_ptrISt6vectorIS5_SaIS5_EESt14default_deleteISB_EEiS7_SE_, symObjAddr: 0x60C, symBinAddr: 0x10000C510, symSize: 0xD0 }
  - { offsetInCU: 0xB278, offset: 0x3EA1F, size: 0x8, addend: 0x0, symName: __ZN6ThesisC2ERKNSt7__cxx1112basic_stringIcSt11char_traitsIcESaIcEEESt10unique_ptrISt6vectorIS5_SaIS5_EESt14default_deleteISB_EEiS7_SE_, symObjAddr: 0x53C, symBinAddr: 0x10000C440, symSize: 0xD0 }
  - { offsetInCU: 0xB280, offset: 0x3EA27, size: 0x8, addend: 0x0, symName: __ZN6ThesisC1ERKNSt7__cxx1112basic_stringIcSt11char_traitsIcESaIcEEESt10unique_ptrISt6vectorIS5_SaIS5_EESt14default_deleteISB_EEiS7_SE_, symObjAddr: 0x60C, symBinAddr: 0x10000C510, symSize: 0xD0 }
  - { offsetInCU: 0xB25D, offset: 0x3EA04, size: 0x8, addend: 0x0, symName: __ZNK6Thesis8get_typeB5cxx11Ev, symObjAddr: 0x488, symBinAddr: 0x10000C3DC, symSize: 0x64 }
  - { offsetInCU: 0xB28C, offset: 0x3EA33, size: 0x8, addend: 0x0, symName: __ZNK6Thesis5cloneEv, symObjAddr: 0x438, symBinAddr: 0x10000C38C, symSize: 0x50 }
  - { offsetInCU: 0xB294, offset: 0x3EA3B, size: 0x8, addend: 0x0, symName: __ZNK6Thesis8get_typeB5cxx11Ev, symObjAddr: 0x488, symBinAddr: 0x10000C3DC, symSize: 0x64 }
  - { offsetInCU: 0xB2F1, offset: 0x3EA98, size: 0x8, addend: 0x0, symName: __ZN6ThesisD0Ev, symObjAddr: 0x410, symBinAddr: 0x10000C364, symSize: 0x28 }
  - { offsetInCU: 0xB2F9, offset: 0x3EAA0, size: 0x8, addend: 0x0, symName: __ZNK6Thesis5cloneEv, symObjAddr: 0x438, symBinAddr: 0x10000C38C, symSize: 0x50 }
  - { offsetInCU: 0xB31F, offset: 0x3EAC6, size: 0x8, addend: 0x0, symName: __ZN6ThesisD1Ev, symObjAddr: 0x3C8, symBinAddr: 0x10000C31C, symSize: 0x48 }
  - { offsetInCU: 0xB327, offset: 0x3EACE, size: 0x8, addend: 0x0, symName: __ZN6ThesisD0Ev, symObjAddr: 0x410, symBinAddr: 0x10000C364, symSize: 0x28 }
  - { offsetInCU: 0x52FA, offset: 0x43DE8, size: 0x8, addend: 0x0, symName: __ZStL8__ioinit, symObjAddr: 0x762C0, symBinAddr: 0x1000350A4, symSize: 0x0 }
  - { offsetInCU: 0x53A8, offset: 0x43E96, size: 0x8, addend: 0x0, symName: __ZN9__gnu_cxxL21__default_lock_policyE, symObjAddr: 0x7C4C, symBinAddr: 0x10001F878, symSize: 0x0 }
  - { offsetInCU: 0x5410, offset: 0x43EFE, size: 0x8, addend: 0x0, symName: __ZN6__pstl9execution2v1L3seqE, symObjAddr: 0x7C50, symBinAddr: 0x10001F87C, symSize: 0x0 }
  - { offsetInCU: 0x542A, offset: 0x43F18, size: 0x8, addend: 0x0, symName: __ZN6__pstl9execution2v1L3parE, symObjAddr: 0x7C51, symBinAddr: 0x10001F87D, symSize: 0x0 }
  - { offsetInCU: 0x544A, offset: 0x43F38, size: 0x8, addend: 0x0, symName: __ZN6__pstl9execution2v1L9par_unseqE, symObjAddr: 0x7C52, symBinAddr: 0x10001F87E, symSize: 0x0 }
  - { offsetInCU: 0x5460, offset: 0x43F4E, size: 0x8, addend: 0x0, symName: __ZN6__pstl9execution2v1L5unseqE, symObjAddr: 0x7C53, symBinAddr: 0x10001F87F, symSize: 0x0 }
  - { offsetInCU: 0xBD25, offset: 0x4A813, size: 0x8, addend: 0x0, symName: __GLOBAL__sub_I_LiteratureDatabase.cpp, symObjAddr: 0x79B4, symBinAddr: 0x100012AB8, symSize: 0x1C }
  - { offsetInCU: 0xBD43, offset: 0x4A831, size: 0x8, addend: 0x0, symName: __Z41__static_initialization_and_destruction_0ii, symObjAddr: 0x7954, symBinAddr: 0x100012A58, symSize: 0x60 }
  - { offsetInCU: 0xBD4B, offset: 0x4A839, size: 0x8, addend: 0x0, symName: __GLOBAL__sub_I_LiteratureDatabase.cpp, symObjAddr: 0x79B4, symBinAddr: 0x100012AB8, symSize: 0x1C }
  - { offsetInCU: 0xBDE9, offset: 0x4A8D7, size: 0x8, addend: 0x0, symName: __ZSt7forwardISt14default_deleteI15LiteratureEntryEEOT_RNSt16remove_referenceIS3_E4typeE, symObjAddr: 0x7940, symBinAddr: 0x100012A44, symSize: 0x14 }
  - { offsetInCU: 0xBDF1, offset: 0x4A8DF, size: 0x8, addend: 0x0, symName: __Z41__static_initialization_and_destruction_0ii, symObjAddr: 0x7954, symBinAddr: 0x100012A58, symSize: 0x60 }
  - { offsetInCU: 0xBDBC, offset: 0x4A8AA, size: 0x8, addend: 0x0, symName: __ZNSt15__uniq_ptr_implI15LiteratureEntrySt14default_deleteIS0_EE7releaseEv, symObjAddr: 0x790C, symBinAddr: 0x100012A10, symSize: 0x34 }
  - { offsetInCU: 0xBDC4, offset: 0x4A8B2, size: 0x8, addend: 0x0, symName: __ZSt7forwardISt14default_deleteI15LiteratureEntryEEOT_RNSt16remove_referenceIS3_E4typeE, symObjAddr: 0x7940, symBinAddr: 0x100012A44, symSize: 0x14 }
  - { offsetInCU: 0xBDFE, offset: 0x4A8EC, size: 0x8, addend: 0x0, symName: __ZNSt15__uniq_ptr_implI15LiteratureEntrySt14default_deleteIS0_EE5resetEPS0_, symObjAddr: 0x78AC, symBinAddr: 0x1000129B0, symSize: 0x60 }
  - { offsetInCU: 0xBE06, offset: 0x4A8F4, size: 0x8, addend: 0x0, symName: __ZNSt15__uniq_ptr_implI15LiteratureEntrySt14default_deleteIS0_EE7releaseEv, symObjAddr: 0x790C, symBinAddr: 0x100012A10, symSize: 0x34 }
  - { offsetInCU: 0xBE53, offset: 0x4A941, size: 0x8, addend: 0x0, symName: __ZNSt15__uniq_ptr_implI15LiteratureEntrySt14default_deleteIS0_EEaSEOS3_, symObjAddr: 0x7808, symBinAddr: 0x10001296C, symSize: 0x44 }
  - { offsetInCU: 0xBF8C, offset: 0x4AA7A, size: 0x8, addend: 0x0, symName: __ZSt19__relocate_object_aISt10unique_ptrI15LiteratureEntrySt14default_deleteIS1_EES4_SaIS4_EEvPT_PT0_RT1_, symObjAddr: 0x77BC, symBinAddr: 0x100012920, symSize: 0x4C }
  - { offsetInCU: 0xBF94, offset: 0x4AA82, size: 0x8, addend: 0x0, symName: __ZNSt15__uniq_ptr_implI15LiteratureEntrySt14default_deleteIS0_EEaSEOS3_, symObjAddr: 0x7808, symBinAddr: 0x10001296C, symSize: 0x44 }
  - { offsetInCU: 0xBF1B, offset: 0x4AA09, size: 0x8, addend: 0x0, symName: __ZNK9__gnu_cxx13new_allocatorISt10unique_ptrI15LiteratureEntrySt14default_deleteIS2_EEE8max_sizeEv, symObjAddr: 0x77A0, symBinAddr: 0x100012904, symSize: 0x1C }
  - { offsetInCU: 0xBF23, offset: 0x4AA11, size: 0x8, addend: 0x0, symName: __ZSt19__relocate_object_aISt10unique_ptrI15LiteratureEntrySt14default_deleteIS1_EES4_SaIS4_EEvPT_PT0_RT1_, symObjAddr: 0x77BC, symBinAddr: 0x100012920, symSize: 0x4C }
  - { offsetInCU: 0xBF4A, offset: 0x4AA38, size: 0x8, addend: 0x0, symName: __ZNSt10_Head_baseILm0EPNSt7__cxx1112basic_stringIcSt11char_traitsIcESaIcEEELb0EE7_M_headERKS7_, symObjAddr: 0x7754, symBinAddr: 0x1000128F0, symSize: 0x14 }
  - { offsetInCU: 0xBF7B, offset: 0x4AA69, size: 0x8, addend: 0x0, symName: __ZNSt10_Head_baseILm1ESt14default_deleteINSt7__cxx1112basic_stringIcSt11char_traitsIcESaIcEEEELb1EE7_M_headERS8_, symObjAddr: 0x7740, symBinAddr: 0x1000128DC, symSize: 0x14 }
  - { offsetInCU: 0xBF83, offset: 0x4AA71, size: 0x8, addend: 0x0, symName: __ZNSt10_Head_baseILm0EPNSt7__cxx1112basic_stringIcSt11char_traitsIcESaIcEEELb0EE7_M_headERKS7_, symObjAddr: 0x7754, symBinAddr: 0x1000128F0, symSize: 0x14 }
  - { offsetInCU: 0xC02D, offset: 0x4AB1B, size: 0x8, addend: 0x0, symName: __ZNSt10_Head_baseILm1ESt14default_deleteINSt7__cxx1112basic_stringIcSt11char_traitsIcESaIcEEEELb1EEC2Ev, symObjAddr: 0x772C, symBinAddr: 0x1000128C8, symSize: 0x14 }
  - { offsetInCU: 0xC035, offset: 0x4AB23, size: 0x8, addend: 0x0, symName: __ZNSt10_Head_baseILm1ESt14default_deleteINSt7__cxx1112basic_stringIcSt11char_traitsIcESaIcEEEELb1EE7_M_headERS8_, symObjAddr: 0x7740, symBinAddr: 0x1000128DC, symSize: 0x14 }
  - { offsetInCU: 0xBFF3, offset: 0x4AAE1, size: 0x8, addend: 0x0, symName: __ZNSt11__copy_moveILb1ELb0ESt26random_access_iterator_tagE8__copy_mIPSt10unique_ptrI15LiteratureEntrySt14default_deleteIS4_EES8_EET0_T_SA_S9_, symObjAddr: 0x76B0, symBinAddr: 0x10001284C, symSize: 0x7C }
  - { offsetInCU: 0xBFFB, offset: 0x4AAE9, size: 0x8, addend: 0x0, symName: __ZNSt10_Head_baseILm1ESt14default_deleteINSt7__cxx1112basic_stringIcSt11char_traitsIcESaIcEEEELb1EEC2Ev, symObjAddr: 0x772C, symBinAddr: 0x1000128C8, symSize: 0x14 }
  - { offsetInCU: 0xC09E, offset: 0x4AB8C, size: 0x8, addend: 0x0, symName: __ZNSt10unique_ptrI15LiteratureEntrySt14default_deleteIS0_EEaSEOS3_, symObjAddr: 0x7688, symBinAddr: 0x100012824, symSize: 0x28 }
  - { offsetInCU: 0xC0A6, offset: 0x4AB94, size: 0x8, addend: 0x0, symName: __ZNSt11__copy_moveILb1ELb0ESt26random_access_iterator_tagE8__copy_mIPSt10unique_ptrI15LiteratureEntrySt14default_deleteIS4_EES8_EET0_T_SA_S9_, symObjAddr: 0x76B0, symBinAddr: 0x10001284C, symSize: 0x7C }
  - { offsetInCU: 0xC0D9, offset: 0x4ABC7, size: 0x8, addend: 0x0, symName: __ZNSt15__uniq_ptr_dataI15LiteratureEntrySt14default_deleteIS0_ELb1ELb1EEaSEOS3_, symObjAddr: 0x7660, symBinAddr: 0x1000127FC, symSize: 0x28 }
  - { offsetInCU: 0xC0E1, offset: 0x4ABCF, size: 0x8, addend: 0x0, symName: __ZNSt10unique_ptrI15LiteratureEntrySt14default_deleteIS0_EEaSEOS3_, symObjAddr: 0x7688, symBinAddr: 0x100012824, symSize: 0x28 }
  - { offsetInCU: 0xC20B, offset: 0x4ACF9, size: 0x8, addend: 0x0, symName: __ZSt14__relocate_a_1IPSt10unique_ptrI15LiteratureEntrySt14default_deleteIS1_EES5_SaIS4_EET0_T_S8_S7_RT1_, symObjAddr: 0x75DC, symBinAddr: 0x100012778, symSize: 0x84 }
  - { offsetInCU: 0xC213, offset: 0x4AD01, size: 0x8, addend: 0x0, symName: __ZNSt15__uniq_ptr_dataI15LiteratureEntrySt14default_deleteIS0_ELb1ELb1EEaSEOS3_, symObjAddr: 0x7660, symBinAddr: 0x1000127FC, symSize: 0x28 }
  - { offsetInCU: 0xC252, offset: 0x4AD40, size: 0x8, addend: 0x0, symName: __ZSt12__niter_baseIPSt10unique_ptrI15LiteratureEntrySt14default_deleteIS1_EEET_S6_, symObjAddr: 0x75C8, symBinAddr: 0x100012764, symSize: 0x14 }
  - { offsetInCU: 0xC25A, offset: 0x4AD48, size: 0x8, addend: 0x0, symName: __ZSt14__relocate_a_1IPSt10unique_ptrI15LiteratureEntrySt14default_deleteIS1_EES5_SaIS4_EET0_T_S8_S7_RT1_, symObjAddr: 0x75DC, symBinAddr: 0x100012778, symSize: 0x84 }
  - { offsetInCU: 0xC216, offset: 0x4AD04, size: 0x8, addend: 0x0, symName: __ZNSt16allocator_traitsISaISt10unique_ptrI15LiteratureEntrySt14default_deleteIS1_EEEE8max_sizeERKS5_, symObjAddr: 0x75AC, symBinAddr: 0x100012748, symSize: 0x1C }
  - { offsetInCU: 0xC21E, offset: 0x4AD0C, size: 0x8, addend: 0x0, symName: __ZSt12__niter_baseIPSt10unique_ptrI15LiteratureEntrySt14default_deleteIS1_EEET_S6_, symObjAddr: 0x75C8, symBinAddr: 0x100012764, symSize: 0x14 }
  - { offsetInCU: 0xC248, offset: 0x4AD36, size: 0x8, addend: 0x0, symName: __ZNSt11_Tuple_implILm0EJPNSt7__cxx1112basic_stringIcSt11char_traitsIcESaIcEEESt14default_deleteIS5_EEE7_M_headERKS9_, symObjAddr: 0x745C, symBinAddr: 0x10001272C, symSize: 0x1C }
  - { offsetInCU: 0xC27A, offset: 0x4AD68, size: 0x8, addend: 0x0, symName: __ZNSt11_Tuple_implILm1EJSt14default_deleteINSt7__cxx1112basic_stringIcSt11char_traitsIcESaIcEEEEEE7_M_headERS8_, symObjAddr: 0x7440, symBinAddr: 0x100012710, symSize: 0x1C }
  - { offsetInCU: 0xC282, offset: 0x4AD70, size: 0x8, addend: 0x0, symName: __ZNSt11_Tuple_implILm0EJPNSt7__cxx1112basic_stringIcSt11char_traitsIcESaIcEEESt14default_deleteIS5_EEE7_M_headERKS9_, symObjAddr: 0x745C, symBinAddr: 0x10001272C, symSize: 0x1C }
  - { offsetInCU: 0xC2AC, offset: 0x4AD9A, size: 0x8, addend: 0x0, symName: __ZNSt10_Head_baseILm0EPNSt7__cxx1112basic_stringIcSt11char_traitsIcESaIcEEELb0EE7_M_headERS7_, symObjAddr: 0x742C, symBinAddr: 0x1000126FC, symSize: 0x14 }
  - { offsetInCU: 0xC2B4, offset: 0x4ADA2, size: 0x8, addend: 0x0, symName: __ZNSt11_Tuple_implILm1EJSt14default_deleteINSt7__cxx1112basic_stringIcSt11char_traitsIcESaIcEEEEEE7_M_headERS8_, symObjAddr: 0x7440, symBinAddr: 0x100012710, symSize: 0x1C }
  - { offsetInCU: 0xC34B, offset: 0x4AE39, size: 0x8, addend: 0x0, symName: __ZNSt10_Head_baseILm0EPNSt7__cxx1112basic_stringIcSt11char_traitsIcESaIcEEELb0EEC2Ev, symObjAddr: 0x7410, symBinAddr: 0x1000126E0, symSize: 0x1C }
  - { offsetInCU: 0xC353, offset: 0x4AE41, size: 0x8, addend: 0x0, symName: __ZNSt10_Head_baseILm0EPNSt7__cxx1112basic_stringIcSt11char_traitsIcESaIcEEELb0EE7_M_headERS7_, symObjAddr: 0x742C, symBinAddr: 0x1000126FC, symSize: 0x14 }
  - { offsetInCU: 0xC3A4, offset: 0x4AE92, size: 0x8, addend: 0x0, symName: __ZNSt11_Tuple_implILm1EJSt14default_deleteINSt7__cxx1112basic_stringIcSt11char_traitsIcESaIcEEEEEEC2Ev, symObjAddr: 0x73F0, symBinAddr: 0x1000126C0, symSize: 0x20 }
  - { offsetInCU: 0xC3AC, offset: 0x4AE9A, size: 0x8, addend: 0x0, symName: __ZNSt10_Head_baseILm0EPNSt7__cxx1112basic_stringIcSt11char_traitsIcESaIcEEELb0EEC2Ev, symObjAddr: 0x7410, symBinAddr: 0x1000126E0, symSize: 0x1C }
  - { offsetInCU: 0xC42E, offset: 0x4AF1C, size: 0x8, addend: 0x0, symName: __ZSt14__copy_move_a2ILb1EPSt10unique_ptrI15LiteratureEntrySt14default_deleteIS1_EES5_ET1_T0_S7_S6_, symObjAddr: 0x73C4, symBinAddr: 0x100012694, symSize: 0x2C }
  - { offsetInCU: 0xC436, offset: 0x4AF24, size: 0x8, addend: 0x0, symName: __ZNSt11_Tuple_implILm1EJSt14default_deleteINSt7__cxx1112basic_stringIcSt11char_traitsIcESaIcEEEEEEC2Ev, symObjAddr: 0x73F0, symBinAddr: 0x1000126C0, symSize: 0x20 }
  - { offsetInCU: 0xC47B, offset: 0x4AF69, size: 0x8, addend: 0x0, symName: __ZSt10_ConstructINSt7__cxx1112basic_stringIcSt11char_traitsIcESaIcEEEJEEvPT_DpOT0_, symObjAddr: 0x7398, symBinAddr: 0x100012668, symSize: 0x2C }
  - { offsetInCU: 0xC483, offset: 0x4AF71, size: 0x8, addend: 0x0, symName: __ZSt14__copy_move_a2ILb1EPSt10unique_ptrI15LiteratureEntrySt14default_deleteIS1_EES5_ET1_T0_S7_S6_, symObjAddr: 0x73C4, symBinAddr: 0x100012694, symSize: 0x2C }
  - { offsetInCU: 0xC539, offset: 0x4B027, size: 0x8, addend: 0x0, symName: __ZSt12__relocate_aIPSt10unique_ptrI15LiteratureEntrySt14default_deleteIS1_EES5_SaIS4_EET0_T_S8_S7_RT1_, symObjAddr: 0x733C, symBinAddr: 0x10001260C, symSize: 0x5C }
  - { offsetInCU: 0xC541, offset: 0x4B02F, size: 0x8, addend: 0x0, symName: __ZSt10_ConstructINSt7__cxx1112basic_stringIcSt11char_traitsIcESaIcEEEJEEvPT_DpOT0_, symObjAddr: 0x7398, symBinAddr: 0x100012668, symSize: 0x2C }
  - { offsetInCU: 0xC4E8, offset: 0x4AFD6, size: 0x8, addend: 0x0, symName: __ZN9__gnu_cxx13new_allocatorISt10unique_ptrI15LiteratureEntrySt14default_deleteIS2_EEE8allocateEmPKv, symObjAddr: 0x72C4, symBinAddr: 0x100012594, symSize: 0x78 }
  - { offsetInCU: 0xC4F0, offset: 0x4AFDE, size: 0x8, addend: 0x0, symName: __ZSt12__relocate_aIPSt10unique_ptrI15LiteratureEntrySt14default_deleteIS1_EES5_SaIS4_EET0_T_S8_S7_RT1_, symObjAddr: 0x733C, symBinAddr: 0x10001260C, symSize: 0x5C }
  - { offsetInCU: 0xC548, offset: 0x4B036, size: 0x8, addend: 0x0, symName: __ZNK9__gnu_cxx13new_allocatorISt10unique_ptrI15LiteratureEntrySt14default_deleteIS2_EEE11_M_max_sizeEv, symObjAddr: 0x72B0, symBinAddr: 0x100012580, symSize: 0x14 }
  - { offsetInCU: 0xC550, offset: 0x4B03E, size: 0x8, addend: 0x0, symName: __ZN9__gnu_cxx13new_allocatorISt10unique_ptrI15LiteratureEntrySt14default_deleteIS2_EEE8allocateEmPKv, symObjAddr: 0x72C4, symBinAddr: 0x100012594, symSize: 0x78 }
  - { offsetInCU: 0xC577, offset: 0x4B065, size: 0x8, addend: 0x0, symName: __ZNSt6vectorISt10unique_ptrI15LiteratureEntrySt14default_deleteIS1_EESaIS4_EE11_S_max_sizeERKS5_, symObjAddr: 0x7278, symBinAddr: 0x100012548, symSize: 0x38 }
  - { offsetInCU: 0xC57F, offset: 0x4B06D, size: 0x8, addend: 0x0, symName: __ZNK9__gnu_cxx13new_allocatorISt10unique_ptrI15LiteratureEntrySt14default_deleteIS2_EEE11_M_max_sizeEv, symObjAddr: 0x72B0, symBinAddr: 0x100012580, symSize: 0x14 }
  - { offsetInCU: 0xC642, offset: 0x4B130, size: 0x8, addend: 0x0, symName: __ZNSt11_Tuple_implILm1EJSt14default_deleteI15LiteratureEntryEEEC2EOS3_, symObjAddr: 0x7260, symBinAddr: 0x100012530, symSize: 0x18 }
  - { offsetInCU: 0xC64A, offset: 0x4B138, size: 0x8, addend: 0x0, symName: __ZNSt6vectorISt10unique_ptrI15LiteratureEntrySt14default_deleteIS1_EESaIS4_EE11_S_max_sizeERKS5_, symObjAddr: 0x7278, symBinAddr: 0x100012548, symSize: 0x38 }
  - { offsetInCU: 0xC6EA, offset: 0x4B1D8, size: 0x8, addend: 0x0, symName: __ZSt4moveIRSt5tupleIJP15LiteratureEntrySt14default_deleteIS1_EEEEONSt16remove_referenceIT_E4typeEOS8_, symObjAddr: 0x724C, symBinAddr: 0x10001251C, symSize: 0x14 }
  - { offsetInCU: 0xC6F2, offset: 0x4B1E0, size: 0x8, addend: 0x0, symName: __ZNSt11_Tuple_implILm1EJSt14default_deleteI15LiteratureEntryEEEC2EOS3_, symObjAddr: 0x7260, symBinAddr: 0x100012530, symSize: 0x18 }
  - { offsetInCU: 0xC689, offset: 0x4B177, size: 0x8, addend: 0x0, symName: __ZNSt10_Head_baseILm0EP15LiteratureEntryLb0EE7_M_headERKS2_, symObjAddr: 0x7238, symBinAddr: 0x100012508, symSize: 0x14 }
  - { offsetInCU: 0xC691, offset: 0x4B17F, size: 0x8, addend: 0x0, symName: __ZSt4moveIRSt5tupleIJP15LiteratureEntrySt14default_deleteIS1_EEEEONSt16remove_referenceIT_E4typeEOS8_, symObjAddr: 0x724C, symBinAddr: 0x10001251C, symSize: 0x14 }
  - { offsetInCU: 0xC76E, offset: 0x4B25C, size: 0x8, addend: 0x0, symName: __ZSt12__get_helperILm0EPNSt7__cxx1112basic_stringIcSt11char_traitsIcESaIcEEEJSt14default_deleteIS5_EEERKT0_RKSt11_Tuple_implIXT_EJS9_DpT1_EE, symObjAddr: 0x6F2C, symBinAddr: 0x1000124EC, symSize: 0x1C }
  - { offsetInCU: 0xC816, offset: 0x4B304, size: 0x8, addend: 0x0, symName: __ZSt12__get_helperILm1ESt14default_deleteINSt7__cxx1112basic_stringIcSt11char_traitsIcESaIcEEEEJEERT0_RSt11_Tuple_implIXT_EJS8_DpT1_EE, symObjAddr: 0x6F10, symBinAddr: 0x1000124D0, symSize: 0x1C }
  - { offsetInCU: 0xC81E, offset: 0x4B30C, size: 0x8, addend: 0x0, symName: __ZSt12__get_helperILm0EPNSt7__cxx1112basic_stringIcSt11char_traitsIcESaIcEEEJSt14default_deleteIS5_EEERKT0_RKSt11_Tuple_implIXT_EJS9_DpT1_EE, symObjAddr: 0x6F2C, symBinAddr: 0x1000124EC, symSize: 0x1C }
  - { offsetInCU: 0xC7A0, offset: 0x4B28E, size: 0x8, addend: 0x0, symName: __ZNSt11_Tuple_implILm0EJPNSt7__cxx1112basic_stringIcSt11char_traitsIcESaIcEEESt14default_deleteIS5_EEE7_M_headERS9_, symObjAddr: 0x6EF4, symBinAddr: 0x1000124B4, symSize: 0x1C }
  - { offsetInCU: 0xC7A8, offset: 0x4B296, size: 0x8, addend: 0x0, symName: __ZSt12__get_helperILm1ESt14default_deleteINSt7__cxx1112basic_stringIcSt11char_traitsIcESaIcEEEEJEERT0_RSt11_Tuple_implIXT_EJS8_DpT1_EE, symObjAddr: 0x6F10, symBinAddr: 0x1000124D0, symSize: 0x1C }
  - { offsetInCU: 0xC856, offset: 0x4B344, size: 0x8, addend: 0x0, symName: __ZNSt11_Tuple_implILm0EJPNSt7__cxx1112basic_stringIcSt11char_traitsIcESaIcEEESt14default_deleteIS5_EEEC2Ev, symObjAddr: 0x6ECC, symBinAddr: 0x10001248C, symSize: 0x28 }
  - { offsetInCU: 0xC85E, offset: 0x4B34C, size: 0x8, addend: 0x0, symName: __ZNSt11_Tuple_implILm0EJPNSt7__cxx1112basic_stringIcSt11char_traitsIcESaIcEEESt14default_deleteIS5_EEE7_M_headERS9_, symObjAddr: 0x6EF4, symBinAddr: 0x1000124B4, symSize: 0x1C }
  - { offsetInCU: 0xC94F, offset: 0x4B43D, size: 0x8, addend: 0x0, symName: __ZSt12__niter_wrapIN9__gnu_cxx17__normal_iteratorIPSt10unique_ptrI15LiteratureEntrySt14default_deleteIS3_EESt6vectorIS6_SaIS6_EEEES7_ET_SC_T0_, symObjAddr: 0x6E90, symBinAddr: 0x100012450, symSize: 0x3C }
  - { offsetInCU: 0xC957, offset: 0x4B445, size: 0x8, addend: 0x0, symName: __ZNSt11_Tuple_implILm0EJPNSt7__cxx1112basic_stringIcSt11char_traitsIcESaIcEEESt14default_deleteIS5_EEEC2Ev, symObjAddr: 0x6ECC, symBinAddr: 0x10001248C, symSize: 0x28 }
  - { offsetInCU: 0xC949, offset: 0x4B437, size: 0x8, addend: 0x0, symName: __ZSt14__copy_move_a1ILb1EPSt10unique_ptrI15LiteratureEntrySt14default_deleteIS1_EES5_ET1_T0_S7_S6_, symObjAddr: 0x6E64, symBinAddr: 0x100012424, symSize: 0x2C }
  - { offsetInCU: 0xC951, offset: 0x4B43F, size: 0x8, addend: 0x0, symName: __ZSt12__niter_wrapIN9__gnu_cxx17__normal_iteratorIPSt10unique_ptrI15LiteratureEntrySt14default_deleteIS3_EESt6vectorIS6_SaIS6_EEEES7_ET_SC_T0_, symObjAddr: 0x6E90, symBinAddr: 0x100012450, symSize: 0x3C }
  - { offsetInCU: 0xCA07, offset: 0x4B4F5, size: 0x8, addend: 0x0, symName: __ZSt12__niter_baseIPSt10unique_ptrI15LiteratureEntrySt14default_deleteIS1_EESt6vectorIS4_SaIS4_EEET_N9__gnu_cxx17__normal_iteratorIS9_T0_EE, symObjAddr: 0x6E44, symBinAddr: 0x100012404, symSize: 0x20 }
  - { offsetInCU: 0xCA0F, offset: 0x4B4FD, size: 0x8, addend: 0x0, symName: __ZSt14__copy_move_a1ILb1EPSt10unique_ptrI15LiteratureEntrySt14default_deleteIS1_EES5_ET1_T0_S7_S6_, symObjAddr: 0x6E64, symBinAddr: 0x100012424, symSize: 0x2C }
  - { offsetInCU: 0xC96E, offset: 0x4B45C, size: 0x8, addend: 0x0, symName: __ZNSt27__uninitialized_default_n_1ILb0EE18__uninit_default_nIPNSt7__cxx1112basic_stringIcSt11char_traitsIcESaIcEEEmEET_S9_T0_, symObjAddr: 0x6DEC, symBinAddr: 0x1000123AC, symSize: 0x58 }
  - { offsetInCU: 0xC976, offset: 0x4B464, size: 0x8, addend: 0x0, symName: __ZSt12__niter_baseIPSt10unique_ptrI15LiteratureEntrySt14default_deleteIS1_EESt6vectorIS4_SaIS4_EEET_N9__gnu_cxx17__normal_iteratorIS9_T0_EE, symObjAddr: 0x6E44, symBinAddr: 0x100012404, symSize: 0x20 }
  - { offsetInCU: 0xCA76, offset: 0x4B564, size: 0x8, addend: 0x0, symName: __ZNSt12_Vector_baseISt10unique_ptrI15LiteratureEntrySt14default_deleteIS1_EESaIS4_EE12_Vector_implC1ERKS5_, symObjAddr: 0x6DA0, symBinAddr: 0x10001237C, symSize: 0x30 }
  - { offsetInCU: 0xCAC6, offset: 0x4B5B4, size: 0x8, addend: 0x0, symName: __ZN9__gnu_cxx13new_allocatorISt10unique_ptrI15LiteratureEntrySt14default_deleteIS2_EEEC2ERKS6_, symObjAddr: 0x6D88, symBinAddr: 0x100012364, symSize: 0x18 }
  - { offsetInCU: 0xCACE, offset: 0x4B5BC, size: 0x8, addend: 0x0, symName: __ZNSt12_Vector_baseISt10unique_ptrI15LiteratureEntrySt14default_deleteIS1_EESaIS4_EE12_Vector_implC1ERKS5_, symObjAddr: 0x6DA0, symBinAddr: 0x10001237C, symSize: 0x30 }
  - { offsetInCU: 0xCAA1, offset: 0x4B58F, size: 0x8, addend: 0x0, symName: __ZNSt6vectorISt10unique_ptrI15LiteratureEntrySt14default_deleteIS1_EESaIS4_EE14_S_do_relocateEPS4_S7_S7_RS5_St17integral_constantIbLb1EE, symObjAddr: 0x6D50, symBinAddr: 0x10001232C, symSize: 0x38 }
  - { offsetInCU: 0xCAA9, offset: 0x4B597, size: 0x8, addend: 0x0, symName: __ZN9__gnu_cxx13new_allocatorISt10unique_ptrI15LiteratureEntrySt14default_deleteIS2_EEEC2ERKS6_, symObjAddr: 0x6D88, symBinAddr: 0x100012364, symSize: 0x18 }
  - { offsetInCU: 0xCB1B, offset: 0x4B609, size: 0x8, addend: 0x0, symName: __ZNSt16allocator_traitsISaISt10unique_ptrI15LiteratureEntrySt14default_deleteIS1_EEEE8allocateERS5_m, symObjAddr: 0x6D28, symBinAddr: 0x100012304, symSize: 0x28 }
  - { offsetInCU: 0xCB23, offset: 0x4B611, size: 0x8, addend: 0x0, symName: __ZNSt6vectorISt10unique_ptrI15LiteratureEntrySt14default_deleteIS1_EESaIS4_EE14_S_do_relocateEPS4_S7_S7_RS5_St17integral_constantIbLb1EE, symObjAddr: 0x6D50, symBinAddr: 0x10001232C, symSize: 0x38 }
  - { offsetInCU: 0xCB61, offset: 0x4B64F, size: 0x8, addend: 0x0, symName: __ZNKSt6vectorISt10unique_ptrI15LiteratureEntrySt14default_deleteIS1_EESaIS4_EE8max_sizeEv, symObjAddr: 0x6D08, symBinAddr: 0x1000122E4, symSize: 0x20 }
  - { offsetInCU: 0xCB69, offset: 0x4B657, size: 0x8, addend: 0x0, symName: __ZNSt16allocator_traitsISaISt10unique_ptrI15LiteratureEntrySt14default_deleteIS1_EEEE8allocateERS5_m, symObjAddr: 0x6D28, symBinAddr: 0x100012304, symSize: 0x28 }
  - { offsetInCU: 0xCC01, offset: 0x4B6EF, size: 0x8, addend: 0x0, symName: __ZNSt15__uniq_ptr_implI15LiteratureEntrySt14default_deleteIS0_EEC2EOS3_, symObjAddr: 0x6CC0, symBinAddr: 0x10001229C, symSize: 0x48 }
  - { offsetInCU: 0xCC09, offset: 0x4B6F7, size: 0x8, addend: 0x0, symName: __ZNKSt6vectorISt10unique_ptrI15LiteratureEntrySt14default_deleteIS1_EESaIS4_EE8max_sizeEv, symObjAddr: 0x6D08, symBinAddr: 0x1000122E4, symSize: 0x20 }
  - { offsetInCU: 0xCC55, offset: 0x4B743, size: 0x8, addend: 0x0, symName: __ZNSt5tupleIJP15LiteratureEntrySt14default_deleteIS0_EEEC1EOS4_, symObjAddr: 0x6C98, symBinAddr: 0x100012274, symSize: 0x28 }
  - { offsetInCU: 0xCC5D, offset: 0x4B74B, size: 0x8, addend: 0x0, symName: __ZNSt15__uniq_ptr_implI15LiteratureEntrySt14default_deleteIS0_EEC2EOS3_, symObjAddr: 0x6CC0, symBinAddr: 0x10001229C, symSize: 0x48 }
  - { offsetInCU: 0xCCBC, offset: 0x4B7AA, size: 0x8, addend: 0x0, symName: __ZNSt11_Tuple_implILm0EJP15LiteratureEntrySt14default_deleteIS0_EEEC2EOS4_, symObjAddr: 0x6C60, symBinAddr: 0x10001223C, symSize: 0x38 }
  - { offsetInCU: 0xCCC4, offset: 0x4B7B2, size: 0x8, addend: 0x0, symName: __ZNSt5tupleIJP15LiteratureEntrySt14default_deleteIS0_EEEC1EOS4_, symObjAddr: 0x6C98, symBinAddr: 0x100012274, symSize: 0x28 }
  - { offsetInCU: 0xCCAB, offset: 0x4B799, size: 0x8, addend: 0x0, symName: __ZNSt11_Tuple_implILm0EJP15LiteratureEntrySt14default_deleteIS0_EEE7_M_headERKS4_, symObjAddr: 0x6C10, symBinAddr: 0x100012220, symSize: 0x1C }
  - { offsetInCU: 0xCD92, offset: 0x4B880, size: 0x8, addend: 0x0, symName: __ZSt3getILm0EJPNSt7__cxx1112basic_stringIcSt11char_traitsIcESaIcEEESt14default_deleteIS5_EEERKNSt13tuple_elementIXT_ESt5tupleIJDpT0_EEE4typeERKSD_, symObjAddr: 0x6874, symBinAddr: 0x100012204, symSize: 0x1C }
  - { offsetInCU: 0xCECC, offset: 0x4B9BA, size: 0x8, addend: 0x0, symName: __ZSt3getILm1EJPNSt7__cxx1112basic_stringIcSt11char_traitsIcESaIcEEESt14default_deleteIS5_EEERNSt13tuple_elementIXT_ESt5tupleIJDpT0_EEE4typeERSD_, symObjAddr: 0x6858, symBinAddr: 0x1000121E8, symSize: 0x1C }
  - { offsetInCU: 0xCED4, offset: 0x4B9C2, size: 0x8, addend: 0x0, symName: __ZSt3getILm0EJPNSt7__cxx1112basic_stringIcSt11char_traitsIcESaIcEEESt14default_deleteIS5_EEERKNSt13tuple_elementIXT_ESt5tupleIJDpT0_EEE4typeERKSD_, symObjAddr: 0x6874, symBinAddr: 0x100012204, symSize: 0x1C }
  - { offsetInCU: 0xCE78, offset: 0x4B966, size: 0x8, addend: 0x0, symName: __ZSt12__get_helperILm0EPNSt7__cxx1112basic_stringIcSt11char_traitsIcESaIcEEEJSt14default_deleteIS5_EEERT0_RSt11_Tuple_implIXT_EJS9_DpT1_EE, symObjAddr: 0x683C, symBinAddr: 0x1000121CC, symSize: 0x1C }
  - { offsetInCU: 0xCE80, offset: 0x4B96E, size: 0x8, addend: 0x0, symName: __ZSt3getILm1EJPNSt7__cxx1112basic_stringIcSt11char_traitsIcESaIcEEESt14default_deleteIS5_EEERNSt13tuple_elementIXT_ESt5tupleIJDpT0_EEE4typeERSD_, symObjAddr: 0x6858, symBinAddr: 0x1000121E8, symSize: 0x1C }
  - { offsetInCU: 0xCEDF, offset: 0x4B9CD, size: 0x8, addend: 0x0, symName: __ZNSt5tupleIJPNSt7__cxx1112basic_stringIcSt11char_traitsIcESaIcEEESt14default_deleteIS5_EEEC1ILb1ELb1EEEv, symObjAddr: 0x681C, symBinAddr: 0x1000121AC, symSize: 0x20 }
  - { offsetInCU: 0xCEE7, offset: 0x4B9D5, size: 0x8, addend: 0x0, symName: __ZSt12__get_helperILm0EPNSt7__cxx1112basic_stringIcSt11char_traitsIcESaIcEEEJSt14default_deleteIS5_EEERT0_RSt11_Tuple_implIXT_EJS9_DpT1_EE, symObjAddr: 0x683C, symBinAddr: 0x1000121CC, symSize: 0x1C }
  - { offsetInCU: 0xCEB2, offset: 0x4B9A0, size: 0x8, addend: 0x0, symName: __ZN9__gnu_cxx13new_allocatorISt10unique_ptrI15LiteratureEntrySt14default_deleteIS2_EEE7destroyIS5_EEvPT_, symObjAddr: 0x67F8, symBinAddr: 0x100012188, symSize: 0x24 }
  - { offsetInCU: 0xCEBA, offset: 0x4B9A8, size: 0x8, addend: 0x0, symName: __ZNSt5tupleIJPNSt7__cxx1112basic_stringIcSt11char_traitsIcESaIcEEESt14default_deleteIS5_EEEC1ILb1ELb1EEEv, symObjAddr: 0x681C, symBinAddr: 0x1000121AC, symSize: 0x20 }
  - { offsetInCU: 0xD097, offset: 0x4BB85, size: 0x8, addend: 0x0, symName: __ZSt13__copy_move_aILb1EN9__gnu_cxx17__normal_iteratorIPSt10unique_ptrI15LiteratureEntrySt14default_deleteIS3_EESt6vectorIS6_SaIS6_EEEESB_ET1_T0_SD_SC_, symObjAddr: 0x6798, symBinAddr: 0x100012128, symSize: 0x60 }
  - { offsetInCU: 0xD09F, offset: 0x4BB8D, size: 0x8, addend: 0x0, symName: __ZN9__gnu_cxx13new_allocatorISt10unique_ptrI15LiteratureEntrySt14default_deleteIS2_EEE7destroyIS5_EEvPT_, symObjAddr: 0x67F8, symBinAddr: 0x100012188, symSize: 0x24 }
  - { offsetInCU: 0xD09E, offset: 0x4BB8C, size: 0x8, addend: 0x0, symName: __ZSt12__miter_baseIN9__gnu_cxx17__normal_iteratorIPSt10unique_ptrI15LiteratureEntrySt14default_deleteIS3_EESt6vectorIS6_SaIS6_EEEEET_SC_, symObjAddr: 0x6784, symBinAddr: 0x100012114, symSize: 0x14 }
  - { offsetInCU: 0xD0A6, offset: 0x4BB94, size: 0x8, addend: 0x0, symName: __ZSt13__copy_move_aILb1EN9__gnu_cxx17__normal_iteratorIPSt10unique_ptrI15LiteratureEntrySt14default_deleteIS3_EESt6vectorIS6_SaIS6_EEEESB_ET1_T0_SD_SC_, symObjAddr: 0x6798, symBinAddr: 0x100012128, symSize: 0x60 }
  - { offsetInCU: 0xD091, offset: 0x4BB7F, size: 0x8, addend: 0x0, symName: __ZSt25__uninitialized_default_nIPNSt7__cxx1112basic_stringIcSt11char_traitsIcESaIcEEEmET_S7_T0_, symObjAddr: 0x6758, symBinAddr: 0x1000120E8, symSize: 0x2C }
  - { offsetInCU: 0xD099, offset: 0x4BB87, size: 0x8, addend: 0x0, symName: __ZSt12__miter_baseIN9__gnu_cxx17__normal_iteratorIPSt10unique_ptrI15LiteratureEntrySt14default_deleteIS3_EESt6vectorIS6_SaIS6_EEEEET_SC_, symObjAddr: 0x6784, symBinAddr: 0x100012114, symSize: 0x14 }
  - { offsetInCU: 0xD107, offset: 0x4BBF5, size: 0x8, addend: 0x0, symName: __ZSt4moveIRSaISt10unique_ptrI15LiteratureEntrySt14default_deleteIS1_EEEEONSt16remove_referenceIT_E4typeEOS8_, symObjAddr: 0x6728, symBinAddr: 0x1000120D4, symSize: 0x14 }
  - { offsetInCU: 0xD0B1, offset: 0x4BB9F, size: 0x8, addend: 0x0, symName: __ZNSt12_Vector_baseISt10unique_ptrI15LiteratureEntrySt14default_deleteIS1_EESaIS4_EE17_Vector_impl_data12_M_copy_dataERKS7_, symObjAddr: 0x66E0, symBinAddr: 0x10001208C, symSize: 0x48 }
  - { offsetInCU: 0xD0B9, offset: 0x4BBA7, size: 0x8, addend: 0x0, symName: __ZSt4moveIRSaISt10unique_ptrI15LiteratureEntrySt14default_deleteIS1_EEEEONSt16remove_referenceIT_E4typeEOS8_, symObjAddr: 0x6728, symBinAddr: 0x1000120D4, symSize: 0x14 }
  - { offsetInCU: 0xD17A, offset: 0x4BC68, size: 0x8, addend: 0x0, symName: __ZNSt12_Vector_baseISt10unique_ptrI15LiteratureEntrySt14default_deleteIS1_EESaIS4_EEC2ERKS5_, symObjAddr: 0x66B8, symBinAddr: 0x100012064, symSize: 0x28 }
  - { offsetInCU: 0xD182, offset: 0x4BC70, size: 0x8, addend: 0x0, symName: __ZNSt12_Vector_baseISt10unique_ptrI15LiteratureEntrySt14default_deleteIS1_EESaIS4_EE17_Vector_impl_data12_M_copy_dataERKS7_, symObjAddr: 0x66E0, symBinAddr: 0x10001208C, symSize: 0x48 }
  - { offsetInCU: 0xD1C8, offset: 0x4BCB6, size: 0x8, addend: 0x0, symName: __ZNSaISt10unique_ptrI15LiteratureEntrySt14default_deleteIS0_EEEC1ERKS4_, symObjAddr: 0x6690, symBinAddr: 0x10001203C, symSize: 0x28 }
  - { offsetInCU: 0xD1D0, offset: 0x4BCBE, size: 0x8, addend: 0x0, symName: __ZNSt12_Vector_baseISt10unique_ptrI15LiteratureEntrySt14default_deleteIS1_EESaIS4_EEC2ERKS5_, symObjAddr: 0x66B8, symBinAddr: 0x100012064, symSize: 0x28 }
  - { offsetInCU: 0xD202, offset: 0x4BCF0, size: 0x8, addend: 0x0, symName: __ZNSaISt10unique_ptrI15LiteratureEntrySt14default_deleteIS0_EEEC2ERKS4_, symObjAddr: 0x6668, symBinAddr: 0x100012014, symSize: 0x28 }
  - { offsetInCU: 0xD20A, offset: 0x4BCF8, size: 0x8, addend: 0x0, symName: __ZNSaISt10unique_ptrI15LiteratureEntrySt14default_deleteIS0_EEEC1ERKS4_, symObjAddr: 0x6690, symBinAddr: 0x10001203C, symSize: 0x28 }
  - { offsetInCU: 0xD1F4, offset: 0x4BCE2, size: 0x8, addend: 0x0, symName: __ZNKSt12_Vector_baseISt10unique_ptrI15LiteratureEntrySt14default_deleteIS1_EESaIS4_EE19_M_get_Tp_allocatorEv, symObjAddr: 0x6654, symBinAddr: 0x100012000, symSize: 0x14 }
  - { offsetInCU: 0xD1FC, offset: 0x4BCEA, size: 0x8, addend: 0x0, symName: __ZNSaISt10unique_ptrI15LiteratureEntrySt14default_deleteIS0_EEEC2ERKS4_, symObjAddr: 0x6668, symBinAddr: 0x100012014, symSize: 0x28 }
  - { offsetInCU: 0xD223, offset: 0x4BD11, size: 0x8, addend: 0x0, symName: __ZNK9__gnu_cxx17__normal_iteratorIPSt10unique_ptrI15LiteratureEntrySt14default_deleteIS2_EESt6vectorIS5_SaIS5_EEEdeEv, symObjAddr: 0x663C, symBinAddr: 0x100011FE8, symSize: 0x18 }
  - { offsetInCU: 0xD22B, offset: 0x4BD19, size: 0x8, addend: 0x0, symName: __ZNKSt12_Vector_baseISt10unique_ptrI15LiteratureEntrySt14default_deleteIS1_EESaIS4_EE19_M_get_Tp_allocatorEv, symObjAddr: 0x6654, symBinAddr: 0x100012000, symSize: 0x14 }
  - { offsetInCU: 0xD252, offset: 0x4BD40, size: 0x8, addend: 0x0, symName: __ZNK9__gnu_cxx17__normal_iteratorIPSt10unique_ptrI15LiteratureEntrySt14default_deleteIS2_EESt6vectorIS5_SaIS5_EEEmiEl, symObjAddr: 0x65F8, symBinAddr: 0x100011FA4, symSize: 0x44 }
  - { offsetInCU: 0xD25A, offset: 0x4BD48, size: 0x8, addend: 0x0, symName: __ZNK9__gnu_cxx17__normal_iteratorIPSt10unique_ptrI15LiteratureEntrySt14default_deleteIS2_EESt6vectorIS5_SaIS5_EEEdeEv, symObjAddr: 0x663C, symBinAddr: 0x100011FE8, symSize: 0x18 }
  - { offsetInCU: 0xD295, offset: 0x4BD83, size: 0x8, addend: 0x0, symName: __ZNSt6vectorISt10unique_ptrI15LiteratureEntrySt14default_deleteIS1_EESaIS4_EE11_S_relocateEPS4_S7_S7_RS5_, symObjAddr: 0x65C4, symBinAddr: 0x100011F70, symSize: 0x34 }
  - { offsetInCU: 0xD29D, offset: 0x4BD8B, size: 0x8, addend: 0x0, symName: __ZNK9__gnu_cxx17__normal_iteratorIPSt10unique_ptrI15LiteratureEntrySt14default_deleteIS2_EESt6vectorIS5_SaIS5_EEEmiEl, symObjAddr: 0x65F8, symBinAddr: 0x100011FA4, symSize: 0x44 }
  - { offsetInCU: 0xD303, offset: 0x4BDF1, size: 0x8, addend: 0x0, symName: __ZNSt12_Vector_baseISt10unique_ptrI15LiteratureEntrySt14default_deleteIS1_EESaIS4_EE11_M_allocateEm, symObjAddr: 0x658C, symBinAddr: 0x100011F38, symSize: 0x38 }
  - { offsetInCU: 0xD30B, offset: 0x4BDF9, size: 0x8, addend: 0x0, symName: __ZNSt6vectorISt10unique_ptrI15LiteratureEntrySt14default_deleteIS1_EESaIS4_EE11_S_relocateEPS4_S7_S7_RS5_, symObjAddr: 0x65C4, symBinAddr: 0x100011F70, symSize: 0x34 }
  - { offsetInCU: 0xD441, offset: 0x4BF2F, size: 0x8, addend: 0x0, symName: __ZN9__gnu_cxxmiIPSt10unique_ptrI15LiteratureEntrySt14default_deleteIS2_EESt6vectorIS5_SaIS5_EEEENS_17__normal_iteratorIT_T0_E15difference_typeERKSD_SG_, symObjAddr: 0x654C, symBinAddr: 0x100011EF8, symSize: 0x40 }
  - { offsetInCU: 0xD449, offset: 0x4BF37, size: 0x8, addend: 0x0, symName: __ZNSt12_Vector_baseISt10unique_ptrI15LiteratureEntrySt14default_deleteIS1_EESaIS4_EE11_M_allocateEm, symObjAddr: 0x658C, symBinAddr: 0x100011F38, symSize: 0x38 }
  - { offsetInCU: 0xD3BD, offset: 0x4BEAB, size: 0x8, addend: 0x0, symName: __ZNKSt6vectorISt10unique_ptrI15LiteratureEntrySt14default_deleteIS1_EESaIS4_EE12_M_check_lenEmPKc, symObjAddr: 0x6480, symBinAddr: 0x100011E2C, symSize: 0xCC }
  - { offsetInCU: 0xD3C5, offset: 0x4BEB3, size: 0x8, addend: 0x0, symName: __ZN9__gnu_cxxmiIPSt10unique_ptrI15LiteratureEntrySt14default_deleteIS2_EESt6vectorIS5_SaIS5_EEEENS_17__normal_iteratorIT_T0_E15difference_typeERKSD_SG_, symObjAddr: 0x654C, symBinAddr: 0x100011EF8, symSize: 0x40 }
  - { offsetInCU: 0xD428, offset: 0x4BF16, size: 0x8, addend: 0x0, symName: __ZN9__gnu_cxx13new_allocatorISt10unique_ptrI15LiteratureEntrySt14default_deleteIS2_EEE9constructIS5_JS5_EEEvPT_DpOT0_, symObjAddr: 0x6434, symBinAddr: 0x100011DE0, symSize: 0x4C }
  - { offsetInCU: 0xD430, offset: 0x4BF1E, size: 0x8, addend: 0x0, symName: __ZNKSt6vectorISt10unique_ptrI15LiteratureEntrySt14default_deleteIS1_EESaIS4_EE12_M_check_lenEmPKc, symObjAddr: 0x6480, symBinAddr: 0x100011E2C, symSize: 0xCC }
  - { offsetInCU: 0xD4FC, offset: 0x4BFEA, size: 0x8, addend: 0x0, symName: __ZNSt10unique_ptrI15LiteratureEntrySt14default_deleteIS0_EEC1EOS3_, symObjAddr: 0x640C, symBinAddr: 0x100011DB8, symSize: 0x28 }
  - { offsetInCU: 0xD504, offset: 0x4BFF2, size: 0x8, addend: 0x0, symName: __ZN9__gnu_cxx13new_allocatorISt10unique_ptrI15LiteratureEntrySt14default_deleteIS2_EEE9constructIS5_JS5_EEEvPT_DpOT0_, symObjAddr: 0x6434, symBinAddr: 0x100011DE0, symSize: 0x4C }
  - { offsetInCU: 0xD565, offset: 0x4C053, size: 0x8, addend: 0x0, symName: __ZNSt15__uniq_ptr_dataI15LiteratureEntrySt14default_deleteIS0_ELb1ELb1EEC1EOS3_, symObjAddr: 0x63E4, symBinAddr: 0x100011D90, symSize: 0x28 }
  - { offsetInCU: 0xD56D, offset: 0x4C05B, size: 0x8, addend: 0x0, symName: __ZNSt10unique_ptrI15LiteratureEntrySt14default_deleteIS0_EEC1EOS3_, symObjAddr: 0x640C, symBinAddr: 0x100011DB8, symSize: 0x28 }
  - { offsetInCU: 0xD5C2, offset: 0x4C0B0, size: 0x8, addend: 0x0, symName: __ZSt12__get_helperILm0EP15LiteratureEntryJSt14default_deleteIS0_EEERKT0_RKSt11_Tuple_implIXT_EJS4_DpT1_EE, symObjAddr: 0x634C, symBinAddr: 0x100011D74, symSize: 0x1C }
  - { offsetInCU: 0xD5B8, offset: 0x4C0A6, size: 0x8, addend: 0x0, symName: __ZNKSt15__uniq_ptr_implINSt7__cxx1112basic_stringIcSt11char_traitsIcESaIcEEESt14default_deleteIS5_EE6_M_ptrEv, symObjAddr: 0x5F48, symBinAddr: 0x100011D54, symSize: 0x20 }
  - { offsetInCU: 0xD5E7, offset: 0x4C0D5, size: 0x8, addend: 0x0, symName: __ZNSt15__uniq_ptr_implINSt7__cxx1112basic_stringIcSt11char_traitsIcESaIcEEESt14default_deleteIS5_EE10_M_deleterEv, symObjAddr: 0x5F2C, symBinAddr: 0x100011D38, symSize: 0x1C }
  - { offsetInCU: 0xD5EF, offset: 0x4C0DD, size: 0x8, addend: 0x0, symName: __ZNKSt15__uniq_ptr_implINSt7__cxx1112basic_stringIcSt11char_traitsIcESaIcEEESt14default_deleteIS5_EE6_M_ptrEv, symObjAddr: 0x5F48, symBinAddr: 0x100011D54, symSize: 0x20 }
  - { offsetInCU: 0xD6B0, offset: 0x4C19E, size: 0x8, addend: 0x0, symName: __ZSt3getILm0EJPNSt7__cxx1112basic_stringIcSt11char_traitsIcESaIcEEESt14default_deleteIS5_EEERNSt13tuple_elementIXT_ESt5tupleIJDpT0_EEE4typeERSD_, symObjAddr: 0x5F10, symBinAddr: 0x100011D1C, symSize: 0x1C }
  - { offsetInCU: 0xD6B8, offset: 0x4C1A6, size: 0x8, addend: 0x0, symName: __ZNSt15__uniq_ptr_implINSt7__cxx1112basic_stringIcSt11char_traitsIcESaIcEEESt14default_deleteIS5_EE10_M_deleterEv, symObjAddr: 0x5F2C, symBinAddr: 0x100011D38, symSize: 0x1C }
  - { offsetInCU: 0xD719, offset: 0x4C207, size: 0x8, addend: 0x0, symName: __ZNSt15__uniq_ptr_implINSt7__cxx1112basic_stringIcSt11char_traitsIcESaIcEEESt14default_deleteIS5_EEC2EPS5_, symObjAddr: 0x5ED4, symBinAddr: 0x100011CE0, symSize: 0x3C }
  - { offsetInCU: 0xD721, offset: 0x4C20F, size: 0x8, addend: 0x0, symName: __ZSt3getILm0EJPNSt7__cxx1112basic_stringIcSt11char_traitsIcESaIcEEESt14default_deleteIS5_EEERNSt13tuple_elementIXT_ESt5tupleIJDpT0_EEE4typeERSD_, symObjAddr: 0x5F10, symBinAddr: 0x100011D1C, symSize: 0x1C }
  - { offsetInCU: 0xD6E8, offset: 0x4C1D6, size: 0x8, addend: 0x0, symName: __ZNSt16allocator_traitsISaISt10unique_ptrI15LiteratureEntrySt14default_deleteIS1_EEEE7destroyIS4_EEvRS5_PT_, symObjAddr: 0x5EAC, symBinAddr: 0x100011CB8, symSize: 0x28 }
  - { offsetInCU: 0xD6F0, offset: 0x4C1DE, size: 0x8, addend: 0x0, symName: __ZNSt15__uniq_ptr_implINSt7__cxx1112basic_stringIcSt11char_traitsIcESaIcEEESt14default_deleteIS5_EEC2EPS5_, symObjAddr: 0x5ED4, symBinAddr: 0x100011CE0, symSize: 0x3C }
  - { offsetInCU: 0xD8B3, offset: 0x4C3A1, size: 0x8, addend: 0x0, symName: __ZSt4moveIN9__gnu_cxx17__normal_iteratorIPSt10unique_ptrI15LiteratureEntrySt14default_deleteIS3_EESt6vectorIS6_SaIS6_EEEESB_ET0_T_SD_SC_, symObjAddr: 0x5E64, symBinAddr: 0x100011C70, symSize: 0x48 }
  - { offsetInCU: 0xD8BB, offset: 0x4C3A9, size: 0x8, addend: 0x0, symName: __ZNSt16allocator_traitsISaISt10unique_ptrI15LiteratureEntrySt14default_deleteIS1_EEEE7destroyIS4_EEvRS5_PT_, symObjAddr: 0x5EAC, symBinAddr: 0x100011CB8, symSize: 0x28 }
  - { offsetInCU: 0xD8A5, offset: 0x4C393, size: 0x8, addend: 0x0, symName: __ZN9__gnu_cxxneIPSt10unique_ptrI15LiteratureEntrySt14default_deleteIS2_EESt6vectorIS5_SaIS5_EEEEbRKNS_17__normal_iteratorIT_T0_EESF_, symObjAddr: 0x5E20, symBinAddr: 0x100011C2C, symSize: 0x44 }
  - { offsetInCU: 0xD8AD, offset: 0x4C39B, size: 0x8, addend: 0x0, symName: __ZSt4moveIN9__gnu_cxx17__normal_iteratorIPSt10unique_ptrI15LiteratureEntrySt14default_deleteIS3_EESt6vectorIS6_SaIS6_EEEESB_ET0_T_SD_SC_, symObjAddr: 0x5E64, symBinAddr: 0x100011C70, symSize: 0x48 }
  - { offsetInCU: 0xD910, offset: 0x4C3FE, size: 0x8, addend: 0x0, symName: __ZSt27__uninitialized_default_n_aIPNSt7__cxx1112basic_stringIcSt11char_traitsIcESaIcEEEmS5_ET_S7_T0_RSaIT1_E, symObjAddr: 0x5D90, symBinAddr: 0x100011C04, symSize: 0x28 }
  - { offsetInCU: 0xD94F, offset: 0x4C43D, size: 0x8, addend: 0x0, symName: __ZSt15__alloc_on_moveISaISt10unique_ptrI15LiteratureEntrySt14default_deleteIS1_EEEEvRT_S7_, symObjAddr: 0x5CA4, symBinAddr: 0x100011BE0, symSize: 0x24 }
  - { offsetInCU: 0xD907, offset: 0x4C3F5, size: 0x8, addend: 0x0, symName: __ZNSt12_Vector_baseISt10unique_ptrI15LiteratureEntrySt14default_deleteIS1_EESaIS4_EE17_Vector_impl_data12_M_swap_dataERS7_, symObjAddr: 0x5C58, symBinAddr: 0x100011B94, symSize: 0x4C }
  - { offsetInCU: 0xD90F, offset: 0x4C3FD, size: 0x8, addend: 0x0, symName: __ZSt15__alloc_on_moveISaISt10unique_ptrI15LiteratureEntrySt14default_deleteIS1_EEEEvRT_S7_, symObjAddr: 0x5CA4, symBinAddr: 0x100011BE0, symSize: 0x24 }
  - { offsetInCU: 0xD9DC, offset: 0x4C4CA, size: 0x8, addend: 0x0, symName: __ZNSt6vectorISt10unique_ptrI15LiteratureEntrySt14default_deleteIS1_EESaIS4_EEC1ERKS5_, symObjAddr: 0x5C30, symBinAddr: 0x100011B6C, symSize: 0x28 }
  - { offsetInCU: 0xD9E4, offset: 0x4C4D2, size: 0x8, addend: 0x0, symName: __ZNSt12_Vector_baseISt10unique_ptrI15LiteratureEntrySt14default_deleteIS1_EESaIS4_EE17_Vector_impl_data12_M_swap_dataERS7_, symObjAddr: 0x5C58, symBinAddr: 0x100011B94, symSize: 0x4C }
  - { offsetInCU: 0xD9C0, offset: 0x4C4AE, size: 0x8, addend: 0x0, symName: __ZNKSt12_Vector_baseISt10unique_ptrI15LiteratureEntrySt14default_deleteIS1_EESaIS4_EE13get_allocatorEv, symObjAddr: 0x5BF8, symBinAddr: 0x100011B34, symSize: 0x38 }
  - { offsetInCU: 0xD9C8, offset: 0x4C4B6, size: 0x8, addend: 0x0, symName: __ZNSt6vectorISt10unique_ptrI15LiteratureEntrySt14default_deleteIS1_EESaIS4_EEC1ERKS5_, symObjAddr: 0x5C30, symBinAddr: 0x100011B6C, symSize: 0x28 }
  - { offsetInCU: 0xD9EF, offset: 0x4C4DD, size: 0x8, addend: 0x0, symName: __ZNSt6vectorISt10unique_ptrI15LiteratureEntrySt14default_deleteIS1_EESaIS4_EE4backEv, symObjAddr: 0x5BC0, symBinAddr: 0x100011AFC, symSize: 0x38 }
  - { offsetInCU: 0xD9F7, offset: 0x4C4E5, size: 0x8, addend: 0x0, symName: __ZNKSt12_Vector_baseISt10unique_ptrI15LiteratureEntrySt14default_deleteIS1_EESaIS4_EE13get_allocatorEv, symObjAddr: 0x5BF8, symBinAddr: 0x100011B34, symSize: 0x38 }
  - { offsetInCU: 0xDA1E, offset: 0x4C50C, size: 0x8, addend: 0x0, symName: __ZNSt6vectorISt10unique_ptrI15LiteratureEntrySt14default_deleteIS1_EESaIS4_EE17_M_realloc_insertIJS4_EEEvN9__gnu_cxx17__normal_iteratorIPS4_S6_EEDpOT_, symObjAddr: 0x5A48, symBinAddr: 0x100011984, symSize: 0x178 }
  - { offsetInCU: 0xDA26, offset: 0x4C514, size: 0x8, addend: 0x0, symName: __ZNSt6vectorISt10unique_ptrI15LiteratureEntrySt14default_deleteIS1_EESaIS4_EE4backEv, symObjAddr: 0x5BC0, symBinAddr: 0x100011AFC, symSize: 0x38 }
  - { offsetInCU: 0xDAFD, offset: 0x4C5EB, size: 0x8, addend: 0x0, symName: __ZNSt6vectorISt10unique_ptrI15LiteratureEntrySt14default_deleteIS1_EESaIS4_EE3endEv, symObjAddr: 0x5A20, symBinAddr: 0x10001195C, symSize: 0x28 }
  - { offsetInCU: 0xDB05, offset: 0x4C5F3, size: 0x8, addend: 0x0, symName: __ZNSt6vectorISt10unique_ptrI15LiteratureEntrySt14default_deleteIS1_EESaIS4_EE17_M_realloc_insertIJS4_EEEvN9__gnu_cxx17__normal_iteratorIPS4_S6_EEDpOT_, symObjAddr: 0x5A48, symBinAddr: 0x100011984, symSize: 0x178 }
  - { offsetInCU: 0xDB2C, offset: 0x4C61A, size: 0x8, addend: 0x0, symName: __ZNSt16allocator_traitsISaISt10unique_ptrI15LiteratureEntrySt14default_deleteIS1_EEEE9constructIS4_JS4_EEEvRS5_PT_DpOT0_, symObjAddr: 0x59E8, symBinAddr: 0x100011924, symSize: 0x38 }
  - { offsetInCU: 0xDB34, offset: 0x4C622, size: 0x8, addend: 0x0, symName: __ZNSt6vectorISt10unique_ptrI15LiteratureEntrySt14default_deleteIS1_EESaIS4_EE3endEv, symObjAddr: 0x5A20, symBinAddr: 0x10001195C, symSize: 0x28 }
  - { offsetInCU: 0xDC3A, offset: 0x4C728, size: 0x8, addend: 0x0, symName: __ZSt7forwardISt10unique_ptrI15LiteratureEntrySt14default_deleteIS1_EEEOT_RNSt16remove_referenceIS5_E4typeE, symObjAddr: 0x59D4, symBinAddr: 0x100011910, symSize: 0x14 }
  - { offsetInCU: 0xDC42, offset: 0x4C730, size: 0x8, addend: 0x0, symName: __ZNSt16allocator_traitsISaISt10unique_ptrI15LiteratureEntrySt14default_deleteIS1_EEEE9constructIS4_JS4_EEEvRS5_PT_DpOT0_, symObjAddr: 0x59E8, symBinAddr: 0x100011924, symSize: 0x38 }
  - { offsetInCU: 0xDC68, offset: 0x4C756, size: 0x8, addend: 0x0, symName: __ZN9__gnu_cxx13new_allocatorISt10unique_ptrI15LiteratureEntrySt14default_deleteIS2_EEEC2Ev, symObjAddr: 0x5968, symBinAddr: 0x1000118FC, symSize: 0x14 }
  - { offsetInCU: 0xDCCD, offset: 0x4C7BB, size: 0x8, addend: 0x0, symName: __ZSt3getILm0EJP15LiteratureEntrySt14default_deleteIS0_EEERKNSt13tuple_elementIXT_ESt5tupleIJDpT0_EEE4typeERKS8_, symObjAddr: 0x594C, symBinAddr: 0x1000118E0, symSize: 0x1C }
  - { offsetInCU: 0xDCD5, offset: 0x4C7C3, size: 0x8, addend: 0x0, symName: __ZN9__gnu_cxx13new_allocatorISt10unique_ptrI15LiteratureEntrySt14default_deleteIS2_EEEC2Ev, symObjAddr: 0x5968, symBinAddr: 0x1000118FC, symSize: 0x14 }
  - { offsetInCU: 0xDCC3, offset: 0x4C7B1, size: 0x8, addend: 0x0, symName: __ZNKSt10unique_ptrINSt7__cxx1112basic_stringIcSt11char_traitsIcESaIcEEESt14default_deleteIS5_EE3getEv, symObjAddr: 0x52AC, symBinAddr: 0x1000118C4, symSize: 0x1C }
  - { offsetInCU: 0xDCF2, offset: 0x4C7E0, size: 0x8, addend: 0x0, symName: __ZNKSt14default_deleteINSt7__cxx1112basic_stringIcSt11char_traitsIcESaIcEEEEclEPS5_, symObjAddr: 0x5268, symBinAddr: 0x100011880, symSize: 0x44 }
  - { offsetInCU: 0xDCFA, offset: 0x4C7E8, size: 0x8, addend: 0x0, symName: __ZNKSt10unique_ptrINSt7__cxx1112basic_stringIcSt11char_traitsIcESaIcEEESt14default_deleteIS5_EE3getEv, symObjAddr: 0x52AC, symBinAddr: 0x1000118C4, symSize: 0x1C }
  - { offsetInCU: 0xDDC7, offset: 0x4C8B5, size: 0x8, addend: 0x0, symName: __ZSt4moveIRPNSt7__cxx1112basic_stringIcSt11char_traitsIcESaIcEEEEONSt16remove_referenceIT_E4typeEOS9_, symObjAddr: 0x5254, symBinAddr: 0x10001186C, symSize: 0x14 }
  - { offsetInCU: 0xDDCF, offset: 0x4C8BD, size: 0x8, addend: 0x0, symName: __ZNKSt14default_deleteINSt7__cxx1112basic_stringIcSt11char_traitsIcESaIcEEEEclEPS5_, symObjAddr: 0x5268, symBinAddr: 0x100011880, symSize: 0x44 }
  - { offsetInCU: 0xDD88, offset: 0x4C876, size: 0x8, addend: 0x0, symName: __ZNSt10unique_ptrINSt7__cxx1112basic_stringIcSt11char_traitsIcESaIcEEESt14default_deleteIS5_EE11get_deleterEv, symObjAddr: 0x5238, symBinAddr: 0x100011850, symSize: 0x1C }
  - { offsetInCU: 0xDD90, offset: 0x4C87E, size: 0x8, addend: 0x0, symName: __ZSt4moveIRPNSt7__cxx1112basic_stringIcSt11char_traitsIcESaIcEEEEONSt16remove_referenceIT_E4typeEOS9_, symObjAddr: 0x5254, symBinAddr: 0x10001186C, symSize: 0x14 }
  - { offsetInCU: 0xDDB7, offset: 0x4C8A5, size: 0x8, addend: 0x0, symName: __ZNSt15__uniq_ptr_implINSt7__cxx1112basic_stringIcSt11char_traitsIcESaIcEEESt14default_deleteIS5_EE6_M_ptrEv, symObjAddr: 0x521C, symBinAddr: 0x100011834, symSize: 0x1C }
  - { offsetInCU: 0xDDBF, offset: 0x4C8AD, size: 0x8, addend: 0x0, symName: __ZNSt10unique_ptrINSt7__cxx1112basic_stringIcSt11char_traitsIcESaIcEEESt14default_deleteIS5_EE11get_deleterEv, symObjAddr: 0x5238, symBinAddr: 0x100011850, symSize: 0x1C }
  - { offsetInCU: 0xDE8A, offset: 0x4C978, size: 0x8, addend: 0x0, symName: __ZNSt10unique_ptrINSt7__cxx1112basic_stringIcSt11char_traitsIcESaIcEEESt14default_deleteIS5_EEC1IS7_vEEPS5_, symObjAddr: 0x51F4, symBinAddr: 0x10001180C, symSize: 0x28 }
  - { offsetInCU: 0xDE92, offset: 0x4C980, size: 0x8, addend: 0x0, symName: __ZNSt15__uniq_ptr_implINSt7__cxx1112basic_stringIcSt11char_traitsIcESaIcEEESt14default_deleteIS5_EE6_M_ptrEv, symObjAddr: 0x521C, symBinAddr: 0x100011834, symSize: 0x1C }
  - { offsetInCU: 0xDF1A, offset: 0x4CA08, size: 0x8, addend: 0x0, symName: __ZNSt15__uniq_ptr_dataINSt7__cxx1112basic_stringIcSt11char_traitsIcESaIcEEESt14default_deleteIS5_ELb1ELb1EECI1St15__uniq_ptr_implIS5_S7_EEPS5_, symObjAddr: 0x51CC, symBinAddr: 0x1000117E4, symSize: 0x28 }
  - { offsetInCU: 0xDF22, offset: 0x4CA10, size: 0x8, addend: 0x0, symName: __ZNSt10unique_ptrINSt7__cxx1112basic_stringIcSt11char_traitsIcESaIcEEESt14default_deleteIS5_EEC1IS7_vEEPS5_, symObjAddr: 0x51F4, symBinAddr: 0x10001180C, symSize: 0x28 }
  - { offsetInCU: 0xDF1D, offset: 0x4CA0B, size: 0x8, addend: 0x0, symName: __ZSt7forwardIRA1_KcEOT_RNSt16remove_referenceIS3_E4typeE, symObjAddr: 0x51B8, symBinAddr: 0x1000117D0, symSize: 0x14 }
  - { offsetInCU: 0xDF25, offset: 0x4CA13, size: 0x8, addend: 0x0, symName: __ZNSt15__uniq_ptr_dataINSt7__cxx1112basic_stringIcSt11char_traitsIcESaIcEEESt14default_deleteIS5_ELb1ELb1EECI1St15__uniq_ptr_implIS5_S7_EEPS5_, symObjAddr: 0x51CC, symBinAddr: 0x1000117E4, symSize: 0x28 }
  - { offsetInCU: 0xDF19, offset: 0x4CA07, size: 0x8, addend: 0x0, symName: __ZNSt6vectorISt10unique_ptrI15LiteratureEntrySt14default_deleteIS1_EESaIS4_EE8_M_eraseEN9__gnu_cxx17__normal_iteratorIPS4_S6_EE, symObjAddr: 0x510C, symBinAddr: 0x100011724, symSize: 0xAC }
  - { offsetInCU: 0xDF21, offset: 0x4CA0F, size: 0x8, addend: 0x0, symName: __ZSt7forwardIRA1_KcEOT_RNSt16remove_referenceIS3_E4typeE, symObjAddr: 0x51B8, symBinAddr: 0x1000117D0, symSize: 0x14 }
  - { offsetInCU: 0xE05D, offset: 0x4CB4B, size: 0x8, addend: 0x0, symName: __ZN9__gnu_cxxmiIPKSt10unique_ptrI15LiteratureEntrySt14default_deleteIS2_EESt6vectorIS5_SaIS5_EEEENS_17__normal_iteratorIT_T0_E15difference_typeERKSE_SH_, symObjAddr: 0x50CC, symBinAddr: 0x1000116E4, symSize: 0x40 }
  - { offsetInCU: 0xE065, offset: 0x4CB53, size: 0x8, addend: 0x0, symName: __ZNSt6vectorISt10unique_ptrI15LiteratureEntrySt14default_deleteIS1_EESaIS4_EE8_M_eraseEN9__gnu_cxx17__normal_iteratorIPS4_S6_EE, symObjAddr: 0x510C, symBinAddr: 0x100011724, symSize: 0xAC }
  - { offsetInCU: 0xDFD2, offset: 0x4CAC0, size: 0x8, addend: 0x0, symName: __ZNKSt6vectorISt10unique_ptrI15LiteratureEntrySt14default_deleteIS1_EESaIS4_EE6cbeginEv, symObjAddr: 0x50A8, symBinAddr: 0x1000116C0, symSize: 0x24 }
  - { offsetInCU: 0xDFDA, offset: 0x4CAC8, size: 0x8, addend: 0x0, symName: __ZN9__gnu_cxxmiIPKSt10unique_ptrI15LiteratureEntrySt14default_deleteIS2_EESt6vectorIS5_SaIS5_EEEENS_17__normal_iteratorIT_T0_E15difference_typeERKSE_SH_, symObjAddr: 0x50CC, symBinAddr: 0x1000116E4, symSize: 0x40 }
  - { offsetInCU: 0xE001, offset: 0x4CAEF, size: 0x8, addend: 0x0, symName: __ZNK9__gnu_cxx17__normal_iteratorIPSt10unique_ptrI15LiteratureEntrySt14default_deleteIS2_EESt6vectorIS5_SaIS5_EEE4baseEv, symObjAddr: 0x5094, symBinAddr: 0x1000116AC, symSize: 0x14 }
  - { offsetInCU: 0xE009, offset: 0x4CAF7, size: 0x8, addend: 0x0, symName: __ZNKSt6vectorISt10unique_ptrI15LiteratureEntrySt14default_deleteIS1_EESaIS4_EE6cbeginEv, symObjAddr: 0x50A8, symBinAddr: 0x1000116C0, symSize: 0x24 }
  - { offsetInCU: 0xE0D3, offset: 0x4CBC1, size: 0x8, addend: 0x0, symName: __ZN9__gnu_cxx17__normal_iteratorIPSt10unique_ptrI15LiteratureEntrySt14default_deleteIS2_EESt6vectorIS5_SaIS5_EEEC1ERKS6_, symObjAddr: 0x506C, symBinAddr: 0x100011684, symSize: 0x28 }
  - { offsetInCU: 0xE0DB, offset: 0x4CBC9, size: 0x8, addend: 0x0, symName: __ZNK9__gnu_cxx17__normal_iteratorIPSt10unique_ptrI15LiteratureEntrySt14default_deleteIS2_EESt6vectorIS5_SaIS5_EEE4baseEv, symObjAddr: 0x5094, symBinAddr: 0x1000116AC, symSize: 0x14 }
  - { offsetInCU: 0xE0DB, offset: 0x4CBC9, size: 0x8, addend: 0x0, symName: __ZSt7forwardIfEOT_RNSt16remove_referenceIS0_E4typeE, symObjAddr: 0x4FB0, symBinAddr: 0x100011670, symSize: 0x14 }
  - { offsetInCU: 0xE1E1, offset: 0x4CCCF, size: 0x8, addend: 0x0, symName: __ZSt7forwardISt10unique_ptrISt6vectorINSt7__cxx1112basic_stringIcSt11char_traitsIcESaIcEEESaIS7_EESt14default_deleteIS9_EEEOT_RNSt16remove_referenceISD_E4typeE, symObjAddr: 0x4F9C, symBinAddr: 0x10001165C, symSize: 0x14 }
  - { offsetInCU: 0xE1E9, offset: 0x4CCD7, size: 0x8, addend: 0x0, symName: __ZSt7forwardIfEOT_RNSt16remove_referenceIS0_E4typeE, symObjAddr: 0x4FB0, symBinAddr: 0x100011670, symSize: 0x14 }
  - { offsetInCU: 0xE1DD, offset: 0x4CCCB, size: 0x8, addend: 0x0, symName: __ZSt7forwardIRNSt7__cxx1112basic_stringIcSt11char_traitsIcESaIcEEEEOT_RNSt16remove_referenceIS7_E4typeE, symObjAddr: 0x4F88, symBinAddr: 0x100011648, symSize: 0x14 }
  - { offsetInCU: 0xE1E5, offset: 0x4CCD3, size: 0x8, addend: 0x0, symName: __ZSt7forwardISt10unique_ptrISt6vectorINSt7__cxx1112basic_stringIcSt11char_traitsIcESaIcEEESaIS7_EESt14default_deleteIS9_EEEOT_RNSt16remove_referenceISD_E4typeE, symObjAddr: 0x4F9C, symBinAddr: 0x10001165C, symSize: 0x14 }
  - { offsetInCU: 0xE250, offset: 0x4CD3E, size: 0x8, addend: 0x0, symName: __ZSt7forwardISt6vectorINSt7__cxx1112basic_stringIcSt11char_traitsIcESaIcEEESaIS6_EEEOT_RNSt16remove_referenceIS9_E4typeE, symObjAddr: 0x4F24, symBinAddr: 0x100011634, symSize: 0x14 }
  - { offsetInCU: 0xE1EE, offset: 0x4CCDC, size: 0x8, addend: 0x0, symName: __ZNSt6vectorINSt7__cxx1112basic_stringIcSt11char_traitsIcESaIcEEESaIS5_EE21_M_default_initializeEm, symObjAddr: 0x4E98, symBinAddr: 0x1000115E4, symSize: 0x50 }
  - { offsetInCU: 0xE231, offset: 0x4CD1F, size: 0x8, addend: 0x0, symName: __ZNSt6vectorINSt7__cxx1112basic_stringIcSt11char_traitsIcESaIcEEESaIS5_EE17_S_check_init_lenEmRKS6_, symObjAddr: 0x4DDC, symBinAddr: 0x10001157C, symSize: 0x68 }
  - { offsetInCU: 0xE277, offset: 0x4CD65, size: 0x8, addend: 0x0, symName: __ZNSt6vectorISt10unique_ptrI15LiteratureEntrySt14default_deleteIS1_EESaIS4_EE15_M_erase_at_endEPS4_, symObjAddr: 0x4D54, symBinAddr: 0x100011508, symSize: 0x74 }
  - { offsetInCU: 0xE2E0, offset: 0x4CDCE, size: 0x8, addend: 0x0, symName: __ZNSt6vectorISt10unique_ptrI15LiteratureEntrySt14default_deleteIS1_EESaIS4_EE14_M_move_assignEOS6_St17integral_constantIbLb1EE, symObjAddr: 0x4CCC, symBinAddr: 0x100011480, symSize: 0x88 }
  - { offsetInCU: 0xE2E8, offset: 0x4CDD6, size: 0x8, addend: 0x0, symName: __ZNSt6vectorISt10unique_ptrI15LiteratureEntrySt14default_deleteIS1_EESaIS4_EE15_M_erase_at_endEPS4_, symObjAddr: 0x4D54, symBinAddr: 0x100011508, symSize: 0x74 }
  - { offsetInCU: 0xE343, offset: 0x4CE31, size: 0x8, addend: 0x0, symName: __ZNSt6vectorISt10unique_ptrI15LiteratureEntrySt14default_deleteIS1_EESaIS4_EE12emplace_backIJS4_EEERS4_DpOT_, symObjAddr: 0x4C2C, symBinAddr: 0x1000113E0, symSize: 0xA0 }
  - { offsetInCU: 0xE34B, offset: 0x4CE39, size: 0x8, addend: 0x0, symName: __ZNSt6vectorISt10unique_ptrI15LiteratureEntrySt14default_deleteIS1_EESaIS4_EE14_M_move_assignEOS6_St17integral_constantIbLb1EE, symObjAddr: 0x4CCC, symBinAddr: 0x100011480, symSize: 0x88 }
  - { offsetInCU: 0xE417, offset: 0x4CF05, size: 0x8, addend: 0x0, symName: __ZNSt12_Vector_baseISt10unique_ptrI15LiteratureEntrySt14default_deleteIS1_EESaIS4_EE17_Vector_impl_dataC1Ev, symObjAddr: 0x4B70, symBinAddr: 0x1000113B4, symSize: 0x2C }
  - { offsetInCU: 0xE445, offset: 0x4CF33, size: 0x8, addend: 0x0, symName: __ZNSt12_Vector_baseISt10unique_ptrI15LiteratureEntrySt14default_deleteIS1_EESaIS4_EE17_Vector_impl_dataC2Ev, symObjAddr: 0x4B44, symBinAddr: 0x100011388, symSize: 0x2C }
  - { offsetInCU: 0xE44D, offset: 0x4CF3B, size: 0x8, addend: 0x0, symName: __ZNSt12_Vector_baseISt10unique_ptrI15LiteratureEntrySt14default_deleteIS1_EESaIS4_EE17_Vector_impl_dataC1Ev, symObjAddr: 0x4B70, symBinAddr: 0x1000113B4, symSize: 0x2C }
  - { offsetInCU: 0xE464, offset: 0x4CF52, size: 0x8, addend: 0x0, symName: __ZNSaISt10unique_ptrI15LiteratureEntrySt14default_deleteIS0_EEEC2Ev, symObjAddr: 0x4B24, symBinAddr: 0x100011368, symSize: 0x20 }
  - { offsetInCU: 0xE46C, offset: 0x4CF5A, size: 0x8, addend: 0x0, symName: __ZNSt12_Vector_baseISt10unique_ptrI15LiteratureEntrySt14default_deleteIS1_EESaIS4_EE17_Vector_impl_dataC2Ev, symObjAddr: 0x4B44, symBinAddr: 0x100011388, symSize: 0x2C }
  - { offsetInCU: 0xE44E, offset: 0x4CF3C, size: 0x8, addend: 0x0, symName: __ZNKSt15__uniq_ptr_implI15LiteratureEntrySt14default_deleteIS0_EE6_M_ptrEv, symObjAddr: 0x4B04, symBinAddr: 0x100011348, symSize: 0x20 }
  - { offsetInCU: 0xE456, offset: 0x4CF44, size: 0x8, addend: 0x0, symName: __ZNSaISt10unique_ptrI15LiteratureEntrySt14default_deleteIS0_EEEC2Ev, symObjAddr: 0x4B24, symBinAddr: 0x100011368, symSize: 0x20 }
  - { offsetInCU: 0xE47D, offset: 0x4CF6B, size: 0x8, addend: 0x0, symName: __ZNK9__gnu_cxx17__normal_iteratorIPKSt10unique_ptrI15LiteratureEntrySt14default_deleteIS2_EESt6vectorIS5_SaIS5_EEE4baseEv, symObjAddr: 0x4AF0, symBinAddr: 0x100011334, symSize: 0x14 }
  - { offsetInCU: 0xE485, offset: 0x4CF73, size: 0x8, addend: 0x0, symName: __ZNKSt15__uniq_ptr_implI15LiteratureEntrySt14default_deleteIS0_EE6_M_ptrEv, symObjAddr: 0x4B04, symBinAddr: 0x100011348, symSize: 0x20 }
  - { offsetInCU: 0xE550, offset: 0x4D03E, size: 0x8, addend: 0x0, symName: __ZN9__gnu_cxx17__normal_iteratorIPKSt10unique_ptrI15LiteratureEntrySt14default_deleteIS2_EESt6vectorIS5_SaIS5_EEEC1ERKS7_, symObjAddr: 0x4AC8, symBinAddr: 0x10001130C, symSize: 0x28 }
  - { offsetInCU: 0xE558, offset: 0x4D046, size: 0x8, addend: 0x0, symName: __ZNK9__gnu_cxx17__normal_iteratorIPKSt10unique_ptrI15LiteratureEntrySt14default_deleteIS2_EESt6vectorIS5_SaIS5_EEE4baseEv, symObjAddr: 0x4AF0, symBinAddr: 0x100011334, symSize: 0x14 }
  - { offsetInCU: 0xE5A4, offset: 0x4D092, size: 0x8, addend: 0x0, symName: __ZNSt12_Vector_baseINSt7__cxx1112basic_stringIcSt11char_traitsIcESaIcEEESaIS5_EE17_Vector_impl_dataC2EOS8_, symObjAddr: 0x4A58, symBinAddr: 0x10001129C, symSize: 0x70 }
  - { offsetInCU: 0xE5AC, offset: 0x4D09A, size: 0x8, addend: 0x0, symName: __ZN9__gnu_cxx17__normal_iteratorIPKSt10unique_ptrI15LiteratureEntrySt14default_deleteIS2_EESt6vectorIS5_SaIS5_EEEC1ERKS7_, symObjAddr: 0x4AC8, symBinAddr: 0x10001130C, symSize: 0x28 }
  - { offsetInCU: 0xE682, offset: 0x4D170, size: 0x8, addend: 0x0, symName: __ZSt4moveIRNSt12_Vector_baseINSt7__cxx1112basic_stringIcSt11char_traitsIcESaIcEEESaIS6_EE12_Vector_implEEONSt16remove_referenceIT_E4typeEOSC_, symObjAddr: 0x49F4, symBinAddr: 0x100011288, symSize: 0x14 }
  - { offsetInCU: 0xE5D1, offset: 0x4D0BF, size: 0x8, addend: 0x0, symName: __ZNKSt10unique_ptrINSt7__cxx1112basic_stringIcSt11char_traitsIcESaIcEEESt14default_deleteIS5_EEdeEv, symObjAddr: 0x4078, symBinAddr: 0x100011264, symSize: 0x24 }
  - { offsetInCU: 0xE69D, offset: 0x4D18B, size: 0x8, addend: 0x0, symName: __ZNSt10unique_ptrINSt7__cxx1112basic_stringIcSt11char_traitsIcESaIcEEESt14default_deleteIS5_EED1Ev, symObjAddr: 0x4010, symBinAddr: 0x1000111FC, symSize: 0x68 }
  - { offsetInCU: 0xE6A5, offset: 0x4D193, size: 0x8, addend: 0x0, symName: __ZNKSt10unique_ptrINSt7__cxx1112basic_stringIcSt11char_traitsIcESaIcEEESt14default_deleteIS5_EEdeEv, symObjAddr: 0x4078, symBinAddr: 0x100011264, symSize: 0x24 }
  - { offsetInCU: 0xE760, offset: 0x4D24E, size: 0x8, addend: 0x0, symName: __ZSt11make_uniqueINSt7__cxx1112basic_stringIcSt11char_traitsIcESaIcEEEJRA1_KcEENSt9_MakeUniqIT_E15__single_objectEDpOT0_, symObjAddr: 0x3F6C, symBinAddr: 0x100011158, symSize: 0xA4 }
  - { offsetInCU: 0xE768, offset: 0x4D256, size: 0x8, addend: 0x0, symName: __ZNSt10unique_ptrINSt7__cxx1112basic_stringIcSt11char_traitsIcESaIcEEESt14default_deleteIS5_EED1Ev, symObjAddr: 0x4010, symBinAddr: 0x1000111FC, symSize: 0x68 }
  - { offsetInCU: 0xE78F, offset: 0x4D27D, size: 0x8, addend: 0x0, symName: __ZSt4moveIRSt10unique_ptrI15LiteratureEntrySt14default_deleteIS1_EEEONSt16remove_referenceIT_E4typeEOS7_, symObjAddr: 0x3F58, symBinAddr: 0x100011144, symSize: 0x14 }
  - { offsetInCU: 0xE797, offset: 0x4D285, size: 0x8, addend: 0x0, symName: __ZSt11make_uniqueINSt7__cxx1112basic_stringIcSt11char_traitsIcESaIcEEEJRA1_KcEENSt9_MakeUniqIT_E15__single_objectEDpOT0_, symObjAddr: 0x3F6C, symBinAddr: 0x100011158, symSize: 0xA4 }
  - { offsetInCU: 0xE74E, offset: 0x4D23C, size: 0x8, addend: 0x0, symName: __ZNSt6vectorISt10unique_ptrI15LiteratureEntrySt14default_deleteIS1_EESaIS4_EE5eraseEN9__gnu_cxx17__normal_iteratorIPKS4_S6_EE, symObjAddr: 0x3F04, symBinAddr: 0x1000110F0, symSize: 0x54 }
  - { offsetInCU: 0xE756, offset: 0x4D244, size: 0x8, addend: 0x0, symName: __ZSt4moveIRSt10unique_ptrI15LiteratureEntrySt14default_deleteIS1_EEEONSt16remove_referenceIT_E4typeEOS7_, symObjAddr: 0x3F58, symBinAddr: 0x100011144, symSize: 0x14 }
  - { offsetInCU: 0xE88D, offset: 0x4D37B, size: 0x8, addend: 0x0, symName: __ZN9__gnu_cxx17__normal_iteratorIPKSt10unique_ptrI15LiteratureEntrySt14default_deleteIS2_EESt6vectorIS5_SaIS5_EEEC1IPS5_EERKNS0_IT_NS_11__enable_ifIXsrSt10__are_sameISE_SD_E7__valueESA_E6__typeEEE, symObjAddr: 0x3ED4, symBinAddr: 0x1000110C0, symSize: 0x30 }
  - { offsetInCU: 0xE895, offset: 0x4D383, size: 0x8, addend: 0x0, symName: __ZNSt6vectorISt10unique_ptrI15LiteratureEntrySt14default_deleteIS1_EESaIS4_EE5eraseEN9__gnu_cxx17__normal_iteratorIPKS4_S6_EE, symObjAddr: 0x3F04, symBinAddr: 0x1000110F0, symSize: 0x54 }
  - { offsetInCU: 0xE80F, offset: 0x4D2FD, size: 0x8, addend: 0x0, symName: __ZNK9__gnu_cxx17__normal_iteratorIPSt10unique_ptrI15LiteratureEntrySt14default_deleteIS2_EESt6vectorIS5_SaIS5_EEEplEl, symObjAddr: 0x3E94, symBinAddr: 0x100011080, symSize: 0x40 }
  - { offsetInCU: 0xE817, offset: 0x4D305, size: 0x8, addend: 0x0, symName: __ZN9__gnu_cxx17__normal_iteratorIPKSt10unique_ptrI15LiteratureEntrySt14default_deleteIS2_EESt6vectorIS5_SaIS5_EEEC1IPS5_EERKNS0_IT_NS_11__enable_ifIXsrSt10__are_sameISE_SD_E7__valueESA_E6__typeEEE, symObjAddr: 0x3ED4, symBinAddr: 0x1000110C0, symSize: 0x30 }
  - { offsetInCU: 0xE852, offset: 0x4D340, size: 0x8, addend: 0x0, symName: __ZNSt6vectorISt10unique_ptrI15LiteratureEntrySt14default_deleteIS1_EESaIS4_EE5beginEv, symObjAddr: 0x3E70, symBinAddr: 0x10001105C, symSize: 0x24 }
  - { offsetInCU: 0xE85A, offset: 0x4D348, size: 0x8, addend: 0x0, symName: __ZNK9__gnu_cxx17__normal_iteratorIPSt10unique_ptrI15LiteratureEntrySt14default_deleteIS2_EESt6vectorIS5_SaIS5_EEEplEl, symObjAddr: 0x3E94, symBinAddr: 0x100011080, symSize: 0x40 }
  - { offsetInCU: 0xEE32, offset: 0x4D920, size: 0x8, addend: 0x0, symName: __ZSt11make_uniqueI6ThesisJRNSt7__cxx1112basic_stringIcSt11char_traitsIcESaIcEEESt10unique_ptrISt6vectorIS6_SaIS6_EESt14default_deleteISB_EEiS7_SE_EENSt9_MakeUniqIT_E15__single_objectEDpOT0_, symObjAddr: 0x3D54, symBinAddr: 0x100010F40, symSize: 0x11C }
  - { offsetInCU: 0xEE3A, offset: 0x4D928, size: 0x8, addend: 0x0, symName: __ZNSt6vectorISt10unique_ptrI15LiteratureEntrySt14default_deleteIS1_EESaIS4_EE5beginEv, symObjAddr: 0x3E70, symBinAddr: 0x10001105C, symSize: 0x24 }
  - { offsetInCU: 0xED41, offset: 0x4D82F, size: 0x8, addend: 0x0, symName: __ZSt11make_uniqueI7JournalJRNSt7__cxx1112basic_stringIcSt11char_traitsIcESaIcEEESt10unique_ptrISt6vectorIS6_SaIS6_EESt14default_deleteISB_EEifS7_iEENSt9_MakeUniqIT_E15__single_objectEDpOT0_, symObjAddr: 0x3C14, symBinAddr: 0x100010E00, symSize: 0x140 }
  - { offsetInCU: 0xED49, offset: 0x4D837, size: 0x8, addend: 0x0, symName: __ZSt11make_uniqueI6ThesisJRNSt7__cxx1112basic_stringIcSt11char_traitsIcESaIcEEESt10unique_ptrISt6vectorIS6_SaIS6_EESt14default_deleteISB_EEiS7_SE_EENSt9_MakeUniqIT_E15__single_objectEDpOT0_, symObjAddr: 0x3D54, symBinAddr: 0x100010F40, symSize: 0x11C }
  - { offsetInCU: 0xEE50, offset: 0x4D93E, size: 0x8, addend: 0x0, symName: __ZSt11make_uniqueI4BookJRNSt7__cxx1112basic_stringIcSt11char_traitsIcESaIcEEESt10unique_ptrISt6vectorIS6_SaIS6_EESt14default_deleteISB_EEiS7_S7_fEENSt9_MakeUniqIT_E15__single_objectEDpOT0_, symObjAddr: 0x3AF8, symBinAddr: 0x100010CE4, symSize: 0x11C }
  - { offsetInCU: 0xEE58, offset: 0x4D946, size: 0x8, addend: 0x0, symName: __ZSt11make_uniqueI7JournalJRNSt7__cxx1112basic_stringIcSt11char_traitsIcESaIcEEESt10unique_ptrISt6vectorIS6_SaIS6_EESt14default_deleteISB_EEifS7_iEENSt9_MakeUniqIT_E15__single_objectEDpOT0_, symObjAddr: 0x3C14, symBinAddr: 0x100010E00, symSize: 0x140 }
  - { offsetInCU: 0xED1D, offset: 0x4D80B, size: 0x8, addend: 0x0, symName: __ZSt11make_uniqueISt6vectorINSt7__cxx1112basic_stringIcSt11char_traitsIcESaIcEEESaIS6_EEJS8_EENSt9_MakeUniqIT_E15__single_objectEDpOT0_, symObjAddr: 0x3A38, symBinAddr: 0x100010C88, symSize: 0x5C }
  - { offsetInCU: 0xEBEB, offset: 0x4D6D9, size: 0x8, addend: 0x0, symName: __ZNSt6vectorINSt7__cxx1112basic_stringIcSt11char_traitsIcESaIcEEESaIS5_EEixEm, symObjAddr: 0x3A10, symBinAddr: 0x100010C60, symSize: 0x28 }
  - { offsetInCU: 0xEBF3, offset: 0x4D6E1, size: 0x8, addend: 0x0, symName: __ZSt11make_uniqueISt6vectorINSt7__cxx1112basic_stringIcSt11char_traitsIcESaIcEEESaIS6_EEJS8_EENSt9_MakeUniqIT_E15__single_objectEDpOT0_, symObjAddr: 0x3A38, symBinAddr: 0x100010C88, symSize: 0x5C }
  - { offsetInCU: 0xECBC, offset: 0x4D7AA, size: 0x8, addend: 0x0, symName: __ZNSt6vectorINSt7__cxx1112basic_stringIcSt11char_traitsIcESaIcEEESaIS5_EEC1EmRKS6_, symObjAddr: 0x38D8, symBinAddr: 0x100010BF8, symSize: 0x68 }
  - { offsetInCU: 0xED08, offset: 0x4D7F6, size: 0x8, addend: 0x0, symName: __ZNSaINSt7__cxx1112basic_stringIcSt11char_traitsIcESaIcEEEEC2Ev, symObjAddr: 0x3898, symBinAddr: 0x100010BD8, symSize: 0x20 }
  - { offsetInCU: 0xED88, offset: 0x4D876, size: 0x8, addend: 0x0, symName: __ZSteqIcSt11char_traitsIcESaIcEEbRKNSt7__cxx1112basic_stringIT_T0_T1_EEPKS5_, symObjAddr: 0x3868, symBinAddr: 0x100010BA8, symSize: 0x30 }
  - { offsetInCU: 0xED90, offset: 0x4D87E, size: 0x8, addend: 0x0, symName: __ZNSaINSt7__cxx1112basic_stringIcSt11char_traitsIcESaIcEEEEC2Ev, symObjAddr: 0x3898, symBinAddr: 0x100010BD8, symSize: 0x20 }
  - { offsetInCU: 0xED7A, offset: 0x4D868, size: 0x8, addend: 0x0, symName: __ZNSt6vectorISt10unique_ptrI15LiteratureEntrySt14default_deleteIS1_EESaIS4_EE5clearEv, symObjAddr: 0x383C, symBinAddr: 0x100010B7C, symSize: 0x2C }
  - { offsetInCU: 0xED82, offset: 0x4D870, size: 0x8, addend: 0x0, symName: __ZSteqIcSt11char_traitsIcESaIcEEbRKNSt7__cxx1112basic_stringIT_T0_T1_EEPKS5_, symObjAddr: 0x3868, symBinAddr: 0x100010BA8, symSize: 0x30 }
  - { offsetInCU: 0xEDA9, offset: 0x4D897, size: 0x8, addend: 0x0, symName: __ZNSt6vectorISt10unique_ptrI15LiteratureEntrySt14default_deleteIS1_EESaIS4_EEaSEOS6_, symObjAddr: 0x37F8, symBinAddr: 0x100010B38, symSize: 0x44 }
  - { offsetInCU: 0xEDB1, offset: 0x4D89F, size: 0x8, addend: 0x0, symName: __ZNSt6vectorISt10unique_ptrI15LiteratureEntrySt14default_deleteIS1_EESaIS4_EE5clearEv, symObjAddr: 0x383C, symBinAddr: 0x100010B7C, symSize: 0x2C }
  - { offsetInCU: 0xEEB5, offset: 0x4D9A3, size: 0x8, addend: 0x0, symName: __ZSt4moveIRSt6vectorISt10unique_ptrI15LiteratureEntrySt14default_deleteIS2_EESaIS5_EEEONSt16remove_referenceIT_E4typeEOSA_, symObjAddr: 0x37E4, symBinAddr: 0x100010B24, symSize: 0x14 }
  - { offsetInCU: 0xEEBD, offset: 0x4D9AB, size: 0x8, addend: 0x0, symName: __ZNSt6vectorISt10unique_ptrI15LiteratureEntrySt14default_deleteIS1_EESaIS4_EEaSEOS6_, symObjAddr: 0x37F8, symBinAddr: 0x100010B38, symSize: 0x44 }
  - { offsetInCU: 0xEE54, offset: 0x4D942, size: 0x8, addend: 0x0, symName: __ZNSt6vectorISt10unique_ptrI15LiteratureEntrySt14default_deleteIS1_EESaIS4_EE9push_backEOS4_, symObjAddr: 0x37B4, symBinAddr: 0x100010AF4, symSize: 0x30 }
  - { offsetInCU: 0xEE5C, offset: 0x4D94A, size: 0x8, addend: 0x0, symName: __ZSt4moveIRSt6vectorISt10unique_ptrI15LiteratureEntrySt14default_deleteIS2_EESaIS5_EEEONSt16remove_referenceIT_E4typeEOSA_, symObjAddr: 0x37E4, symBinAddr: 0x100010B24, symSize: 0x14 }
  - { offsetInCU: 0xEE97, offset: 0x4D985, size: 0x8, addend: 0x0, symName: __ZNKSt10unique_ptrI15LiteratureEntrySt14default_deleteIS0_EEcvbEv, symObjAddr: 0x378C, symBinAddr: 0x100010ACC, symSize: 0x28 }
  - { offsetInCU: 0xEE9F, offset: 0x4D98D, size: 0x8, addend: 0x0, symName: __ZNSt6vectorISt10unique_ptrI15LiteratureEntrySt14default_deleteIS1_EESaIS4_EE9push_backEOS4_, symObjAddr: 0x37B4, symBinAddr: 0x100010AF4, symSize: 0x30 }
  - { offsetInCU: 0xEF31, offset: 0x4DA1F, size: 0x8, addend: 0x0, symName: __ZNSaISt10unique_ptrI15LiteratureEntrySt14default_deleteIS0_EEED1Ev, symObjAddr: 0x36CC, symBinAddr: 0x100010AAC, symSize: 0x20 }
  - { offsetInCU: 0xEF9B, offset: 0x4DA89, size: 0x8, addend: 0x0, symName: __ZNSt12_Vector_baseISt10unique_ptrI15LiteratureEntrySt14default_deleteIS1_EESaIS4_EE12_Vector_implC1Ev, symObjAddr: 0x3684, symBinAddr: 0x100010A84, symSize: 0x28 }
  - { offsetInCU: 0xEF62, offset: 0x4DA50, size: 0x8, addend: 0x0, symName: __ZNKSt10unique_ptrI15LiteratureEntrySt14default_deleteIS0_EE3getEv, symObjAddr: 0x3668, symBinAddr: 0x100010A68, symSize: 0x1C }
  - { offsetInCU: 0xEF6A, offset: 0x4DA58, size: 0x8, addend: 0x0, symName: __ZNSt12_Vector_baseISt10unique_ptrI15LiteratureEntrySt14default_deleteIS1_EESaIS4_EE12_Vector_implC1Ev, symObjAddr: 0x3684, symBinAddr: 0x100010A84, symSize: 0x28 }
  - { offsetInCU: 0xEF91, offset: 0x4DA7F, size: 0x8, addend: 0x0, symName: __ZNKSt10unique_ptrI15LiteratureEntrySt14default_deleteIS0_EEdeEv, symObjAddr: 0x3644, symBinAddr: 0x100010A44, symSize: 0x24 }
  - { offsetInCU: 0xEF99, offset: 0x4DA87, size: 0x8, addend: 0x0, symName: __ZNKSt10unique_ptrI15LiteratureEntrySt14default_deleteIS0_EE3getEv, symObjAddr: 0x3668, symBinAddr: 0x100010A68, symSize: 0x1C }
  - { offsetInCU: 0xEFC0, offset: 0x4DAAE, size: 0x8, addend: 0x0, symName: __ZNK9__gnu_cxx17__normal_iteratorIPKSt10unique_ptrI15LiteratureEntrySt14default_deleteIS2_EESt6vectorIS5_SaIS5_EEEdeEv, symObjAddr: 0x362C, symBinAddr: 0x100010A2C, symSize: 0x18 }
  - { offsetInCU: 0xEFC8, offset: 0x4DAB6, size: 0x8, addend: 0x0, symName: __ZNKSt10unique_ptrI15LiteratureEntrySt14default_deleteIS0_EEdeEv, symObjAddr: 0x3644, symBinAddr: 0x100010A44, symSize: 0x24 }
  - { offsetInCU: 0xEFEF, offset: 0x4DADD, size: 0x8, addend: 0x0, symName: __ZN9__gnu_cxx17__normal_iteratorIPKSt10unique_ptrI15LiteratureEntrySt14default_deleteIS2_EESt6vectorIS5_SaIS5_EEEppEv, symObjAddr: 0x3604, symBinAddr: 0x100010A04, symSize: 0x28 }
  - { offsetInCU: 0xEFF7, offset: 0x4DAE5, size: 0x8, addend: 0x0, symName: __ZNK9__gnu_cxx17__normal_iteratorIPKSt10unique_ptrI15LiteratureEntrySt14default_deleteIS2_EESt6vectorIS5_SaIS5_EEEdeEv, symObjAddr: 0x362C, symBinAddr: 0x100010A2C, symSize: 0x18 }
  - { offsetInCU: 0xF10E, offset: 0x4DBFC, size: 0x8, addend: 0x0, symName: __ZN9__gnu_cxxneIPKSt10unique_ptrI15LiteratureEntrySt14default_deleteIS2_EESt6vectorIS5_SaIS5_EEEEbRKNS_17__normal_iteratorIT_T0_EESG_, symObjAddr: 0x35C0, symBinAddr: 0x1000109C0, symSize: 0x44 }
  - { offsetInCU: 0xF116, offset: 0x4DC04, size: 0x8, addend: 0x0, symName: __ZN9__gnu_cxx17__normal_iteratorIPKSt10unique_ptrI15LiteratureEntrySt14default_deleteIS2_EESt6vectorIS5_SaIS5_EEEppEv, symObjAddr: 0x3604, symBinAddr: 0x100010A04, symSize: 0x28 }
  - { offsetInCU: 0xF08B, offset: 0x4DB79, size: 0x8, addend: 0x0, symName: __ZNKSt6vectorISt10unique_ptrI15LiteratureEntrySt14default_deleteIS1_EESaIS4_EE3endEv, symObjAddr: 0x3598, symBinAddr: 0x100010998, symSize: 0x28 }
  - { offsetInCU: 0xF093, offset: 0x4DB81, size: 0x8, addend: 0x0, symName: __ZN9__gnu_cxxneIPKSt10unique_ptrI15LiteratureEntrySt14default_deleteIS2_EESt6vectorIS5_SaIS5_EEEEbRKNS_17__normal_iteratorIT_T0_EESG_, symObjAddr: 0x35C0, symBinAddr: 0x1000109C0, symSize: 0x44 }
  - { offsetInCU: 0xF0BA, offset: 0x4DBA8, size: 0x8, addend: 0x0, symName: __ZNKSt6vectorISt10unique_ptrI15LiteratureEntrySt14default_deleteIS1_EESaIS4_EE5beginEv, symObjAddr: 0x3574, symBinAddr: 0x100010974, symSize: 0x24 }
  - { offsetInCU: 0xF0C2, offset: 0x4DBB0, size: 0x8, addend: 0x0, symName: __ZNKSt6vectorISt10unique_ptrI15LiteratureEntrySt14default_deleteIS1_EESaIS4_EE3endEv, symObjAddr: 0x3598, symBinAddr: 0x100010998, symSize: 0x28 }
  - { offsetInCU: 0xF178, offset: 0x4DC66, size: 0x8, addend: 0x0, symName: __ZNSt12_Vector_baseINSt7__cxx1112basic_stringIcSt11char_traitsIcESaIcEEESaIS5_EE12_Vector_implC1EOS8_, symObjAddr: 0x3524, symBinAddr: 0x100010924, symSize: 0x50 }
  - { offsetInCU: 0xF180, offset: 0x4DC6E, size: 0x8, addend: 0x0, symName: __ZNKSt6vectorISt10unique_ptrI15LiteratureEntrySt14default_deleteIS1_EESaIS4_EE5beginEv, symObjAddr: 0x3574, symBinAddr: 0x100010974, symSize: 0x24 }
  - { offsetInCU: 0xF29A, offset: 0x4DD88, size: 0x8, addend: 0x0, symName: __ZNSt12_Vector_baseINSt7__cxx1112basic_stringIcSt11char_traitsIcESaIcEEESaIS5_EE12_Vector_implC1Ev, symObjAddr: 0x339C, symBinAddr: 0x1000108FC, symSize: 0x28 }
  - { offsetInCU: 0xF265, offset: 0x4DD53, size: 0x8, addend: 0x0, symName: __ZNKSt6vectorISt10unique_ptrI15LiteratureEntrySt14default_deleteIS1_EESaIS4_EE4sizeEv, symObjAddr: 0x3374, symBinAddr: 0x1000108D4, symSize: 0x28 }
  - { offsetInCU: 0xF26D, offset: 0x4DD5B, size: 0x8, addend: 0x0, symName: __ZNSt12_Vector_baseINSt7__cxx1112basic_stringIcSt11char_traitsIcESaIcEEESaIS5_EE12_Vector_implC1Ev, symObjAddr: 0x339C, symBinAddr: 0x1000108FC, symSize: 0x28 }
  - { offsetInCU: 0xF294, offset: 0x4DD82, size: 0x8, addend: 0x0, symName: __ZNSt6vectorISt10unique_ptrI15LiteratureEntrySt14default_deleteIS1_EESaIS4_EEixEm, symObjAddr: 0x334C, symBinAddr: 0x1000108AC, symSize: 0x28 }
  - { offsetInCU: 0xF29C, offset: 0x4DD8A, size: 0x8, addend: 0x0, symName: __ZNKSt6vectorISt10unique_ptrI15LiteratureEntrySt14default_deleteIS1_EESaIS4_EE4sizeEv, symObjAddr: 0x3374, symBinAddr: 0x1000108D4, symSize: 0x28 }
  - { offsetInCU: 0xF2D7, offset: 0x4DDC5, size: 0x8, addend: 0x0, symName: __ZNKSt10unique_ptrI15LiteratureEntrySt14default_deleteIS0_EEptEv, symObjAddr: 0x3330, symBinAddr: 0x100010890, symSize: 0x1C }
  - { offsetInCU: 0xF2DF, offset: 0x4DDCD, size: 0x8, addend: 0x0, symName: __ZNSt6vectorISt10unique_ptrI15LiteratureEntrySt14default_deleteIS1_EESaIS4_EEixEm, symObjAddr: 0x334C, symBinAddr: 0x1000108AC, symSize: 0x28 }
  - { offsetInCU: 0xF306, offset: 0x4DDF4, size: 0x8, addend: 0x0, symName: __ZNKSt6vectorISt10unique_ptrI15LiteratureEntrySt14default_deleteIS1_EESaIS4_EEixEm, symObjAddr: 0x3308, symBinAddr: 0x100010868, symSize: 0x28 }
  - { offsetInCU: 0xF30E, offset: 0x4DDFC, size: 0x8, addend: 0x0, symName: __ZNKSt10unique_ptrI15LiteratureEntrySt14default_deleteIS0_EEptEv, symObjAddr: 0x3330, symBinAddr: 0x100010890, symSize: 0x1C }
  - { offsetInCU: 0xF38E, offset: 0x4DE7C, size: 0x8, addend: 0x0, symName: __ZSt7forwardIiEOT_RNSt16remove_referenceIS0_E4typeE, symObjAddr: 0x2D58, symBinAddr: 0x100010854, symSize: 0x14 }
  - { offsetInCU: 0xF3EE, offset: 0x4DEDC, size: 0x8, addend: 0x0, symName: __ZN9__gnu_cxx6__stoaIffcJEEET0_PFT_PKT1_PPS3_DpT2_EPKcS5_PmS9_, symObjAddr: 0x2BA8, symBinAddr: 0x100010754, symSize: 0x100 }
  - { offsetInCU: 0xF56C, offset: 0x4E05A, size: 0x8, addend: 0x0, symName: __ZZN9__gnu_cxx6__stoaIffcJEEET0_PFT_PKT1_PPS3_DpT2_EPKcS5_PmS9_EN11_Save_errnoC1Ev, symObjAddr: 0x2B14, symBinAddr: 0x1000106C0, symSize: 0x30 }
  - { offsetInCU: 0xF574, offset: 0x4E062, size: 0x8, addend: 0x0, symName: __ZZN9__gnu_cxx6__stoaIffcJEEET0_PFT_PKT1_PPS3_DpT2_EPKcS5_PmS9_EN11_Save_errnoD1Ev, symObjAddr: 0x2B44, symBinAddr: 0x1000106F0, symSize: 0x4C }
  - { offsetInCU: 0xF59B, offset: 0x4E089, size: 0x8, addend: 0x0, symName: __ZZN9__gnu_cxx6__stoaIffcJEEET0_PFT_PKT1_PPS3_DpT2_EPKcS5_PmS9_EN11_Save_errnoD1Ev, symObjAddr: 0x2B44, symBinAddr: 0x1000106F0, symSize: 0x4C }
  - { offsetInCU: 0xF5A3, offset: 0x4E091, size: 0x8, addend: 0x0, symName: __ZZN9__gnu_cxx6__stoaIffcJEEET0_PFT_PKT1_PPS3_DpT2_EPKcS5_PmS9_EN10_Range_chk6_S_chkEfSt17integral_constantIbLb0EE, symObjAddr: 0x2B90, symBinAddr: 0x10001073C, symSize: 0x18 }
  - { offsetInCU: 0xF60E, offset: 0x4E0FC, size: 0x8, addend: 0x0, symName: __ZZN9__gnu_cxx6__stoaIffcJEEET0_PFT_PKT1_PPS3_DpT2_EPKcS5_PmS9_EN10_Range_chk6_S_chkEfSt17integral_constantIbLb0EE, symObjAddr: 0x2B90, symBinAddr: 0x10001073C, symSize: 0x18 }
  - { offsetInCU: 0xF616, offset: 0x4E104, size: 0x8, addend: 0x0, symName: __ZN9__gnu_cxx6__stoaIffcJEEET0_PFT_PKT1_PPS3_DpT2_EPKcS5_PmS9_, symObjAddr: 0x2BA8, symBinAddr: 0x100010754, symSize: 0x100 }
  - { offsetInCU: 0xF6A7, offset: 0x4E195, size: 0x8, addend: 0x0, symName: __ZN9__gnu_cxx6__stoaIlicJiEEET0_PFT_PKT1_PPS3_DpT2_EPKcS5_PmS9_, symObjAddr: 0x2A14, symBinAddr: 0x1000105C0, symSize: 0x100 }
  - { offsetInCU: 0xF6AF, offset: 0x4E19D, size: 0x8, addend: 0x0, symName: __ZZN9__gnu_cxx6__stoaIffcJEEET0_PFT_PKT1_PPS3_DpT2_EPKcS5_PmS9_EN11_Save_errnoC1Ev, symObjAddr: 0x2B14, symBinAddr: 0x1000106C0, symSize: 0x30 }
  - { offsetInCU: 0xF825, offset: 0x4E313, size: 0x8, addend: 0x0, symName: __ZZN9__gnu_cxx6__stoaIlicJiEEET0_PFT_PKT1_PPS3_DpT2_EPKcS5_PmS9_EN11_Save_errnoC1Ev, symObjAddr: 0x2958, symBinAddr: 0x100010504, symSize: 0x30 }
  - { offsetInCU: 0xF82D, offset: 0x4E31B, size: 0x8, addend: 0x0, symName: __ZZN9__gnu_cxx6__stoaIlicJiEEET0_PFT_PKT1_PPS3_DpT2_EPKcS5_PmS9_EN11_Save_errnoD1Ev, symObjAddr: 0x2988, symBinAddr: 0x100010534, symSize: 0x4C }
  - { offsetInCU: 0xF854, offset: 0x4E342, size: 0x8, addend: 0x0, symName: __ZZN9__gnu_cxx6__stoaIlicJiEEET0_PFT_PKT1_PPS3_DpT2_EPKcS5_PmS9_EN11_Save_errnoD1Ev, symObjAddr: 0x2988, symBinAddr: 0x100010534, symSize: 0x4C }
  - { offsetInCU: 0xF85C, offset: 0x4E34A, size: 0x8, addend: 0x0, symName: __ZZN9__gnu_cxx6__stoaIlicJiEEET0_PFT_PKT1_PPS3_DpT2_EPKcS5_PmS9_EN10_Range_chk6_S_chkElSt17integral_constantIbLb1EE, symObjAddr: 0x29D4, symBinAddr: 0x100010580, symSize: 0x40 }
  - { offsetInCU: 0xF8F0, offset: 0x4E3DE, size: 0x8, addend: 0x0, symName: __ZZN9__gnu_cxx6__stoaIlicJiEEET0_PFT_PKT1_PPS3_DpT2_EPKcS5_PmS9_EN10_Range_chk6_S_chkElSt17integral_constantIbLb1EE, symObjAddr: 0x29D4, symBinAddr: 0x100010580, symSize: 0x40 }
  - { offsetInCU: 0xF8F8, offset: 0x4E3E6, size: 0x8, addend: 0x0, symName: __ZN9__gnu_cxx6__stoaIlicJiEEET0_PFT_PKT1_PPS3_DpT2_EPKcS5_PmS9_, symObjAddr: 0x2A14, symBinAddr: 0x1000105C0, symSize: 0x100 }
  - { offsetInCU: 0xF904, offset: 0x4E3F2, size: 0x8, addend: 0x0, symName: __ZN18LiteratureDatabase16get_encoded_dataB5cxx11Ev, symObjAddr: 0x27F4, symBinAddr: 0x100010428, symSize: 0xDC }
  - { offsetInCU: 0xF972, offset: 0x4E460, size: 0x8, addend: 0x0, symName: __ZN18LiteratureDatabase22get_average_book_priceEv, symObjAddr: 0x26E4, symBinAddr: 0x100010318, symSize: 0x110 }
  - { offsetInCU: 0xF97A, offset: 0x4E468, size: 0x8, addend: 0x0, symName: __ZN18LiteratureDatabase16get_encoded_dataB5cxx11Ev, symObjAddr: 0x27F4, symBinAddr: 0x100010428, symSize: 0xDC }
  - { offsetInCU: 0xF9F4, offset: 0x4E4E2, size: 0x8, addend: 0x0, symName: __ZN18LiteratureDatabase17remove_supervisorEiNSt7__cxx1112basic_stringIcSt11char_traitsIcESaIcEEE, symObjAddr: 0x262C, symBinAddr: 0x100010260, symSize: 0xB8 }
  - { offsetInCU: 0xF9FC, offset: 0x4E4EA, size: 0x8, addend: 0x0, symName: __ZN18LiteratureDatabase22get_average_book_priceEv, symObjAddr: 0x26E4, symBinAddr: 0x100010318, symSize: 0x110 }
  - { offsetInCU: 0xFA51, offset: 0x4E53F, size: 0x8, addend: 0x0, symName: __ZN18LiteratureDatabase14add_supervisorEiNSt7__cxx1112basic_stringIcSt11char_traitsIcESaIcEEE, symObjAddr: 0x2574, symBinAddr: 0x1000101A8, symSize: 0xB8 }
  - { offsetInCU: 0xFA59, offset: 0x4E547, size: 0x8, addend: 0x0, symName: __ZN18LiteratureDatabase17remove_supervisorEiNSt7__cxx1112basic_stringIcSt11char_traitsIcESaIcEEE, symObjAddr: 0x262C, symBinAddr: 0x100010260, symSize: 0xB8 }
  - { offsetInCU: 0xFAAE, offset: 0x4E59C, size: 0x8, addend: 0x0, symName: __ZN18LiteratureDatabase14set_universityEiNSt7__cxx1112basic_stringIcSt11char_traitsIcESaIcEEE, symObjAddr: 0x24BC, symBinAddr: 0x1000100F0, symSize: 0xB8 }
  - { offsetInCU: 0xFAB6, offset: 0x4E5A4, size: 0x8, addend: 0x0, symName: __ZN18LiteratureDatabase14add_supervisorEiNSt7__cxx1112basic_stringIcSt11char_traitsIcESaIcEEE, symObjAddr: 0x2574, symBinAddr: 0x1000101A8, symSize: 0xB8 }
  - { offsetInCU: 0xFB0B, offset: 0x4E5F9, size: 0x8, addend: 0x0, symName: __ZN18LiteratureDatabase18set_number_volumesEii, symObjAddr: 0x2404, symBinAddr: 0x100010038, symSize: 0xB8 }
  - { offsetInCU: 0xFB13, offset: 0x4E601, size: 0x8, addend: 0x0, symName: __ZN18LiteratureDatabase14set_universityEiNSt7__cxx1112basic_stringIcSt11char_traitsIcESaIcEEE, symObjAddr: 0x24BC, symBinAddr: 0x1000100F0, symSize: 0xB8 }
  - { offsetInCU: 0xFB67, offset: 0x4E655, size: 0x8, addend: 0x0, symName: __ZN18LiteratureDatabase9set_scopeEiNSt7__cxx1112basic_stringIcSt11char_traitsIcESaIcEEE, symObjAddr: 0x2314, symBinAddr: 0x10000FF48, symSize: 0xF0 }
  - { offsetInCU: 0xFB6F, offset: 0x4E65D, size: 0x8, addend: 0x0, symName: __ZN18LiteratureDatabase18set_number_volumesEii, symObjAddr: 0x2404, symBinAddr: 0x100010038, symSize: 0xB8 }
  - { offsetInCU: 0xFBC7, offset: 0x4E6B5, size: 0x8, addend: 0x0, symName: __ZN18LiteratureDatabase17set_impact_factorEif, symObjAddr: 0x225C, symBinAddr: 0x10000FE90, symSize: 0xB8 }
  - { offsetInCU: 0xFBCF, offset: 0x4E6BD, size: 0x8, addend: 0x0, symName: __ZN18LiteratureDatabase9set_scopeEiNSt7__cxx1112basic_stringIcSt11char_traitsIcESaIcEEE, symObjAddr: 0x2314, symBinAddr: 0x10000FF48, symSize: 0xF0 }
  - { offsetInCU: 0xFC22, offset: 0x4E710, size: 0x8, addend: 0x0, symName: __ZN18LiteratureDatabase9set_priceEif, symObjAddr: 0x21A4, symBinAddr: 0x10000FDD8, symSize: 0xB8 }
  - { offsetInCU: 0xFC2A, offset: 0x4E718, size: 0x8, addend: 0x0, symName: __ZN18LiteratureDatabase17set_impact_factorEif, symObjAddr: 0x225C, symBinAddr: 0x10000FE90, symSize: 0xB8 }
  - { offsetInCU: 0xFC7B, offset: 0x4E769, size: 0x8, addend: 0x0, symName: __ZN18LiteratureDatabase11set_subjectEiNSt7__cxx1112basic_stringIcSt11char_traitsIcESaIcEEE, symObjAddr: 0x20EC, symBinAddr: 0x10000FD20, symSize: 0xB8 }
  - { offsetInCU: 0xFC83, offset: 0x4E771, size: 0x8, addend: 0x0, symName: __ZN18LiteratureDatabase9set_priceEif, symObjAddr: 0x21A4, symBinAddr: 0x10000FDD8, symSize: 0xB8 }
  - { offsetInCU: 0xFCD5, offset: 0x4E7C3, size: 0x8, addend: 0x0, symName: __ZN18LiteratureDatabase13set_publisherEiNSt7__cxx1112basic_stringIcSt11char_traitsIcESaIcEEE, symObjAddr: 0x2034, symBinAddr: 0x10000FC68, symSize: 0xB8 }
  - { offsetInCU: 0xFCDD, offset: 0x4E7CB, size: 0x8, addend: 0x0, symName: __ZN18LiteratureDatabase11set_subjectEiNSt7__cxx1112basic_stringIcSt11char_traitsIcESaIcEEE, symObjAddr: 0x20EC, symBinAddr: 0x10000FD20, symSize: 0xB8 }
  - { offsetInCU: 0xFD2F, offset: 0x4E81D, size: 0x8, addend: 0x0, symName: __ZN18LiteratureDatabase12insert_entryESt10unique_ptrI15LiteratureEntrySt14default_deleteIS1_EE, symObjAddr: 0x1FD0, symBinAddr: 0x10000FC04, symSize: 0x64 }
  - { offsetInCU: 0xFD37, offset: 0x4E825, size: 0x8, addend: 0x0, symName: __ZN18LiteratureDatabase13set_publisherEiNSt7__cxx1112basic_stringIcSt11char_traitsIcESaIcEEE, symObjAddr: 0x2034, symBinAddr: 0x10000FC68, symSize: 0xB8 }
  - { offsetInCU: 0xFD76, offset: 0x4E864, size: 0x8, addend: 0x0, symName: __ZN18LiteratureDatabase12remove_entryEi, symObjAddr: 0x1E94, symBinAddr: 0x10000FAC8, symSize: 0x13C }
  - { offsetInCU: 0xFD7E, offset: 0x4E86C, size: 0x8, addend: 0x0, symName: __ZN18LiteratureDatabase12insert_entryESt10unique_ptrI15LiteratureEntrySt14default_deleteIS1_EE, symObjAddr: 0x1FD0, symBinAddr: 0x10000FC04, symSize: 0x64 }
  - { offsetInCU: 0xFF9B, offset: 0x4EA89, size: 0x8, addend: 0x0, symName: __ZN18LiteratureDatabaseC1ERKNSt7__cxx1112basic_stringIcSt11char_traitsIcESaIcEEE, symObjAddr: 0x16A4, symBinAddr: 0x10000F2D8, symSize: 0x7F0 }
  - { offsetInCU: 0xFFA3, offset: 0x4EA91, size: 0x8, addend: 0x0, symName: __ZN18LiteratureDatabase12remove_entryEi, symObjAddr: 0x1E94, symBinAddr: 0x10000FAC8, symSize: 0x13C }
  - { offsetInCU: 0x1029B, offset: 0x4ED89, size: 0x8, addend: 0x0, symName: __ZN18LiteratureDatabaseC2ERKNSt7__cxx1112basic_stringIcSt11char_traitsIcESaIcEEE, symObjAddr: 0xEB4, symBinAddr: 0x10000EAE8, symSize: 0x7F0 }
  - { offsetInCU: 0x102A3, offset: 0x4ED91, size: 0x8, addend: 0x0, symName: __ZN18LiteratureDatabaseC1ERKNSt7__cxx1112basic_stringIcSt11char_traitsIcESaIcEEE, symObjAddr: 0x16A4, symBinAddr: 0x10000F2D8, symSize: 0x7F0 }
  - { offsetInCU: 0x1054D, offset: 0x4F03B, size: 0x8, addend: 0x0, symName: __ZN18LiteratureDatabaseaSEOS_, symObjAddr: 0xE6C, symBinAddr: 0x10000EAA0, symSize: 0x48 }
  - { offsetInCU: 0x10555, offset: 0x4F043, size: 0x8, addend: 0x0, symName: __ZN18LiteratureDatabaseC2ERKNSt7__cxx1112basic_stringIcSt11char_traitsIcESaIcEEE, symObjAddr: 0xEB4, symBinAddr: 0x10000EAE8, symSize: 0x7F0 }
  - { offsetInCU: 0x10593, offset: 0x4F081, size: 0x8, addend: 0x0, symName: __ZN18LiteratureDatabaseaSERKS_, symObjAddr: 0xD78, symBinAddr: 0x10000E9AC, symSize: 0xF4 }
  - { offsetInCU: 0x1059B, offset: 0x4F089, size: 0x8, addend: 0x0, symName: __ZN18LiteratureDatabaseaSEOS_, symObjAddr: 0xE6C, symBinAddr: 0x10000EAA0, symSize: 0x48 }
  - { offsetInCU: 0x1067B, offset: 0x4F169, size: 0x8, addend: 0x0, symName: __ZN18LiteratureDatabaseC1EOS_, symObjAddr: 0xD38, symBinAddr: 0x10000E96C, symSize: 0x40 }
  - { offsetInCU: 0x10683, offset: 0x4F171, size: 0x8, addend: 0x0, symName: __ZN18LiteratureDatabaseaSERKS_, symObjAddr: 0xD78, symBinAddr: 0x10000E9AC, symSize: 0xF4 }
  - { offsetInCU: 0x106B5, offset: 0x4F1A3, size: 0x8, addend: 0x0, symName: __ZN18LiteratureDatabaseC2EOS_, symObjAddr: 0xCF8, symBinAddr: 0x10000E92C, symSize: 0x40 }
  - { offsetInCU: 0x106BD, offset: 0x4F1AB, size: 0x8, addend: 0x0, symName: __ZN18LiteratureDatabaseC1EOS_, symObjAddr: 0xD38, symBinAddr: 0x10000E96C, symSize: 0x40 }
  - { offsetInCU: 0x1075B, offset: 0x4F249, size: 0x8, addend: 0x0, symName: __ZN18LiteratureDatabaseC1ERKS_, symObjAddr: 0xC08, symBinAddr: 0x10000E83C, symSize: 0xF0 }
  - { offsetInCU: 0x10763, offset: 0x4F251, size: 0x8, addend: 0x0, symName: __ZN18LiteratureDatabaseC2EOS_, symObjAddr: 0xCF8, symBinAddr: 0x10000E92C, symSize: 0x40 }
  - { offsetInCU: 0x1080D, offset: 0x4F2FB, size: 0x8, addend: 0x0, symName: __ZN18LiteratureDatabaseC2ERKS_, symObjAddr: 0xB18, symBinAddr: 0x10000E74C, symSize: 0xF0 }
  - { offsetInCU: 0x10815, offset: 0x4F303, size: 0x8, addend: 0x0, symName: __ZN18LiteratureDatabaseC1ERKS_, symObjAddr: 0xC08, symBinAddr: 0x10000E83C, symSize: 0xF0 }
  - { offsetInCU: 0x1090B, offset: 0x4F3F9, size: 0x8, addend: 0x0, symName: __ZNSt6vectorISt10unique_ptrI15LiteratureEntrySt14default_deleteIS1_EESaIS4_EEC1Ev, symObjAddr: 0xAF8, symBinAddr: 0x10000E72C, symSize: 0x20 }
  - { offsetInCU: 0x10913, offset: 0x4F401, size: 0x8, addend: 0x0, symName: __ZN18LiteratureDatabaseC2ERKS_, symObjAddr: 0xB18, symBinAddr: 0x10000E74C, symSize: 0xF0 }
  - { offsetInCU: 0x10959, offset: 0x4F447, size: 0x8, addend: 0x0, symName: __ZNSt12_Vector_baseISt10unique_ptrI15LiteratureEntrySt14default_deleteIS1_EESaIS4_EEC2Ev, symObjAddr: 0xAD8, symBinAddr: 0x10000E70C, symSize: 0x20 }
  - { offsetInCU: 0x10961, offset: 0x4F44F, size: 0x8, addend: 0x0, symName: __ZNSt6vectorISt10unique_ptrI15LiteratureEntrySt14default_deleteIS1_EESaIS4_EEC1Ev, symObjAddr: 0xAF8, symBinAddr: 0x10000E72C, symSize: 0x20 }
  - { offsetInCU: 0x10931, offset: 0x4F41F, size: 0x8, addend: 0x0, symName: __ZNK18LiteratureDatabase12print_bibtexEi, symObjAddr: 0x840, symBinAddr: 0x10000E494, symSize: 0x278 }
  - { offsetInCU: 0x109F6, offset: 0x4F4E4, size: 0x8, addend: 0x0, symName: __ZNK18LiteratureDatabase23print_condition_entriesEPFbRK15LiteratureEntryNSt7__cxx1112basic_stringIcSt11char_traitsIcESaIcEEEES8_, symObjAddr: 0x5F8, symBinAddr: 0x10000E24C, symSize: 0x248 }
  - { offsetInCU: 0x109FE, offset: 0x4F4EC, size: 0x8, addend: 0x0, symName: __ZNK18LiteratureDatabase12print_bibtexEi, symObjAddr: 0x840, symBinAddr: 0x10000E494, symSize: 0x278 }
  - { offsetInCU: 0x10AC2, offset: 0x4F5B0, size: 0x8, addend: 0x0, symName: __ZNK18LiteratureDatabase17print_all_entriesEv, symObjAddr: 0x528, symBinAddr: 0x10000E17C, symSize: 0xD0 }
  - { offsetInCU: 0x10ACA, offset: 0x4F5B8, size: 0x8, addend: 0x0, symName: __ZNK18LiteratureDatabase23print_condition_entriesEPFbRK15LiteratureEntryNSt7__cxx1112basic_stringIcSt11char_traitsIcESaIcEEEES8_, symObjAddr: 0x5F8, symBinAddr: 0x10000E24C, symSize: 0x248 }
  - { offsetInCU: 0x10B63, offset: 0x4F651, size: 0x8, addend: 0x0, symName: __ZN18LiteratureDatabase5splitERKNSt7__cxx1112basic_stringIcSt11char_traitsIcESaIcEEEc, symObjAddr: 0x458, symBinAddr: 0x10000E0AC, symSize: 0xD0 }
  - { offsetInCU: 0x10B6B, offset: 0x4F659, size: 0x8, addend: 0x0, symName: __ZNK18LiteratureDatabase17print_all_entriesEv, symObjAddr: 0x528, symBinAddr: 0x10000E17C, symSize: 0xD0 }
  - { offsetInCU: 0x10C67, offset: 0x4F755, size: 0x8, addend: 0x0, symName: __ZNSt6vectorINSt7__cxx1112basic_stringIcSt11char_traitsIcESaIcEEESaIS5_EEC1EOS7_, symObjAddr: 0x430, symBinAddr: 0x10000E084, symSize: 0x28 }
  - { offsetInCU: 0x10C6F, offset: 0x4F75D, size: 0x8, addend: 0x0, symName: __ZN18LiteratureDatabase5splitERKNSt7__cxx1112basic_stringIcSt11char_traitsIcESaIcEEEc, symObjAddr: 0x458, symBinAddr: 0x10000E0AC, symSize: 0xD0 }
  - { offsetInCU: 0x10CCA, offset: 0x4F7B8, size: 0x8, addend: 0x0, symName: __ZNSt12_Vector_baseINSt7__cxx1112basic_stringIcSt11char_traitsIcESaIcEEESaIS5_EEC2EOS7_, symObjAddr: 0x408, symBinAddr: 0x10000E05C, symSize: 0x28 }
  - { offsetInCU: 0x10CD2, offset: 0x4F7C0, size: 0x8, addend: 0x0, symName: __ZNSt6vectorINSt7__cxx1112basic_stringIcSt11char_traitsIcESaIcEEESaIS5_EEC1EOS7_, symObjAddr: 0x430, symBinAddr: 0x10000E084, symSize: 0x28 }
  - { offsetInCU: 0x10D13, offset: 0x4F801, size: 0x8, addend: 0x0, symName: __ZNSt6vectorINSt7__cxx1112basic_stringIcSt11char_traitsIcESaIcEEESaIS5_EEC1Ev, symObjAddr: 0x3E8, symBinAddr: 0x10000E03C, symSize: 0x20 }
  - { offsetInCU: 0x10D1B, offset: 0x4F809, size: 0x8, addend: 0x0, symName: __ZNSt12_Vector_baseINSt7__cxx1112basic_stringIcSt11char_traitsIcESaIcEEESaIS5_EEC2EOS7_, symObjAddr: 0x408, symBinAddr: 0x10000E05C, symSize: 0x28 }
  - { offsetInCU: 0x10D61, offset: 0x4F84F, size: 0x8, addend: 0x0, symName: __ZNSt12_Vector_baseINSt7__cxx1112basic_stringIcSt11char_traitsIcESaIcEEESaIS5_EEC2Ev, symObjAddr: 0x3C8, symBinAddr: 0x10000E01C, symSize: 0x20 }
  - { offsetInCU: 0x10D69, offset: 0x4F857, size: 0x8, addend: 0x0, symName: __ZNSt6vectorINSt7__cxx1112basic_stringIcSt11char_traitsIcESaIcEEESaIS5_EEC1Ev, symObjAddr: 0x3E8, symBinAddr: 0x10000E03C, symSize: 0x20 }
  - { offsetInCU: 0x10D3A, offset: 0x4F828, size: 0x8, addend: 0x0, symName: __ZN6Thesis14set_universityERKNSt7__cxx1112basic_stringIcSt11char_traitsIcESaIcEEE, symObjAddr: 0x37C, symBinAddr: 0x10000DFF0, symSize: 0x2C }
  - { offsetInCU: 0x10D7C, offset: 0x4F86A, size: 0x8, addend: 0x0, symName: __ZN7Journal18set_number_volumesEi, symObjAddr: 0x2E4, symBinAddr: 0x10000DF58, symSize: 0x98 }
  - { offsetInCU: 0x10D84, offset: 0x4F872, size: 0x8, addend: 0x0, symName: __ZN6Thesis14set_universityERKNSt7__cxx1112basic_stringIcSt11char_traitsIcESaIcEEE, symObjAddr: 0x37C, symBinAddr: 0x10000DFF0, symSize: 0x2C }
  - { offsetInCU: 0x10DBE, offset: 0x4F8AC, size: 0x8, addend: 0x0, symName: __ZN7Journal9set_scopeENSt7__cxx1112basic_stringIcSt11char_traitsIcESaIcEEE, symObjAddr: 0x2B8, symBinAddr: 0x10000DF2C, symSize: 0x2C }
  - { offsetInCU: 0x10DC6, offset: 0x4F8B4, size: 0x8, addend: 0x0, symName: __ZN7Journal18set_number_volumesEi, symObjAddr: 0x2E4, symBinAddr: 0x10000DF58, symSize: 0x98 }
  - { offsetInCU: 0x10E01, offset: 0x4F8EF, size: 0x8, addend: 0x0, symName: __ZN7Journal17set_impact_factorEf, symObjAddr: 0x228, symBinAddr: 0x10000DE9C, symSize: 0x90 }
  - { offsetInCU: 0x10E09, offset: 0x4F8F7, size: 0x8, addend: 0x0, symName: __ZN7Journal9set_scopeENSt7__cxx1112basic_stringIcSt11char_traitsIcESaIcEEE, symObjAddr: 0x2B8, symBinAddr: 0x10000DF2C, symSize: 0x2C }
  - { offsetInCU: 0x10E43, offset: 0x4F931, size: 0x8, addend: 0x0, symName: __ZN4Book9set_priceEf, symObjAddr: 0x198, symBinAddr: 0x10000DE0C, symSize: 0x90 }
  - { offsetInCU: 0x10E4B, offset: 0x4F939, size: 0x8, addend: 0x0, symName: __ZN7Journal17set_impact_factorEf, symObjAddr: 0x228, symBinAddr: 0x10000DE9C, symSize: 0x90 }
  - { offsetInCU: 0x10E85, offset: 0x4F973, size: 0x8, addend: 0x0, symName: __ZN4Book11set_subjectERKNSt7__cxx1112basic_stringIcSt11char_traitsIcESaIcEEE, symObjAddr: 0x16C, symBinAddr: 0x10000DDE0, symSize: 0x2C }
  - { offsetInCU: 0x10E8D, offset: 0x4F97B, size: 0x8, addend: 0x0, symName: __ZN4Book9set_priceEf, symObjAddr: 0x198, symBinAddr: 0x10000DE0C, symSize: 0x90 }
  - { offsetInCU: 0x10EC7, offset: 0x4F9B5, size: 0x8, addend: 0x0, symName: __ZN4Book13set_publisherERKNSt7__cxx1112basic_stringIcSt11char_traitsIcESaIcEEE, symObjAddr: 0x140, symBinAddr: 0x10000DDB4, symSize: 0x2C }
  - { offsetInCU: 0x10ECF, offset: 0x4F9BD, size: 0x8, addend: 0x0, symName: __ZN4Book11set_subjectERKNSt7__cxx1112basic_stringIcSt11char_traitsIcESaIcEEE, symObjAddr: 0x16C, symBinAddr: 0x10000DDE0, symSize: 0x2C }
  - { offsetInCU: 0x10F09, offset: 0x4F9F7, size: 0x8, addend: 0x0, symName: __ZNK4Book9get_priceEv, symObjAddr: 0x128, symBinAddr: 0x10000DD9C, symSize: 0x18 }
  - { offsetInCU: 0x10F11, offset: 0x4F9FF, size: 0x8, addend: 0x0, symName: __ZN4Book13set_publisherERKNSt7__cxx1112basic_stringIcSt11char_traitsIcESaIcEEE, symObjAddr: 0x140, symBinAddr: 0x10000DDB4, symSize: 0x2C }
  - { offsetInCU: 0x10F86, offset: 0x4FA74, size: 0x8, addend: 0x0, symName: __ZNSt7__cxx114stofERKNS_12basic_stringIcSt11char_traitsIcESaIcEEEPm, symObjAddr: 0xB4, symBinAddr: 0x10000DD60, symSize: 0x3C }
  - { offsetInCU: 0x10FDA, offset: 0x4FAC8, size: 0x8, addend: 0x0, symName: __ZNSt7__cxx114stoiERKNS_12basic_stringIcSt11char_traitsIcESaIcEEEPmi, symObjAddr: 0x70, symBinAddr: 0x10000DD1C, symSize: 0x44 }
  - { offsetInCU: 0x10FE2, offset: 0x4FAD0, size: 0x8, addend: 0x0, symName: __ZNSt7__cxx114stofERKNS_12basic_stringIcSt11char_traitsIcESaIcEEEPm, symObjAddr: 0xB4, symBinAddr: 0x10000DD60, symSize: 0x3C }
  - { offsetInCU: 0xE6, offset: 0x4FBCF, size: 0x8, addend: 0x0, symName: __Z9__isctypeim, symObjAddr: 0x0, symBinAddr: 0x100012AD4, symSize: 0x68 }
  - { offsetInCU: 0xEE, offset: 0x4FBD7, size: 0x8, addend: 0x0, symName: __ZSt19piecewise_construct, symObjAddr: 0xE344, symBinAddr: 0x10001F880, symSize: 0x0 }
  - { offsetInCU: 0x122D, offset: 0x50D16, size: 0x8, addend: 0x0, symName: __ZSt19piecewise_construct, symObjAddr: 0xE344, symBinAddr: 0x10001F880, symSize: 0x0 }
  - { offsetInCU: 0x1469, offset: 0x50F52, size: 0x8, addend: 0x0, symName: __Z7isdigiti, symObjAddr: 0x68, symBinAddr: 0x100012B3C, symSize: 0x20 }
  - { offsetInCU: 0x51E6, offset: 0x54CCF, size: 0x8, addend: 0x0, symName: __ZStL8__ioinit, symObjAddr: 0xE1940, symBinAddr: 0x1000350A8, symSize: 0x0 }
  - { offsetInCU: 0x52FB, offset: 0x54DE4, size: 0x8, addend: 0x0, symName: __ZN9__gnu_cxxL21__default_lock_policyE, symObjAddr: 0xE348, symBinAddr: 0x10001F884, symSize: 0x0 }
  - { offsetInCU: 0x5363, offset: 0x54E4C, size: 0x8, addend: 0x0, symName: __ZN6__pstl9execution2v1L3seqE, symObjAddr: 0xE34C, symBinAddr: 0x10001F888, symSize: 0x0 }
  - { offsetInCU: 0x537D, offset: 0x54E66, size: 0x8, addend: 0x0, symName: __ZN6__pstl9execution2v1L3parE, symObjAddr: 0xE34D, symBinAddr: 0x10001F889, symSize: 0x0 }
  - { offsetInCU: 0x539D, offset: 0x54E86, size: 0x8, addend: 0x0, symName: __ZN6__pstl9execution2v1L9par_unseqE, symObjAddr: 0xE34E, symBinAddr: 0x10001F88A, symSize: 0x0 }
  - { offsetInCU: 0x53B3, offset: 0x54E9C, size: 0x8, addend: 0x0, symName: __ZN6__pstl9execution2v1L5unseqE, symObjAddr: 0xE34F, symBinAddr: 0x10001F88B, symSize: 0x0 }
  - { offsetInCU: 0xA69A, offset: 0x5A183, size: 0x8, addend: 0x0, symName: __ZL14valid_commands, symObjAddr: 0xE1948, symBinAddr: 0x1000350B0, symSize: 0x0 }
  - { offsetInCU: 0xA6BD, offset: 0x5A1A6, size: 0x8, addend: 0x0, symName: __ZL12valid_fields, symObjAddr: 0xE1978, symBinAddr: 0x1000350E0, symSize: 0x0 }
  - { offsetInCU: 0xA6D6, offset: 0x5A1BF, size: 0x8, addend: 0x0, symName: __ZL11valid_types, symObjAddr: 0xE19A8, symBinAddr: 0x100035110, symSize: 0x0 }
  - { offsetInCU: 0xD8C6, offset: 0x5D3AF, size: 0x8, addend: 0x0, symName: __Z17string_to_commandB5cxx11, symObjAddr: 0xE19D8, symBinAddr: 0x100035140, symSize: 0x0 }
  - { offsetInCU: 0x1088B, offset: 0x60374, size: 0x8, addend: 0x0, symName: __Z15string_to_fieldB5cxx11, symObjAddr: 0xE1A08, symBinAddr: 0x100035170, symSize: 0x0 }
  - { offsetInCU: 0x13AE4, offset: 0x635CD, size: 0x8, addend: 0x0, symName: __Z14string_to_typeB5cxx11, symObjAddr: 0xE1A38, symBinAddr: 0x1000351A0, symSize: 0x0 }
  - { offsetInCU: 0x1802A, offset: 0x67B13, size: 0x8, addend: 0x0, symName: __GLOBAL__sub_I_user_interface_functions.cpp, symObjAddr: 0xE328, symBinAddr: 0x10001C5FC, symSize: 0x1C }
  - { offsetInCU: 0x18032, offset: 0x67B1B, size: 0x8, addend: 0x0, symName: __ZSt19piecewise_construct, symObjAddr: 0xE344, symBinAddr: 0x10001F880, symSize: 0x0 }
  - { offsetInCU: 0x18042, offset: 0x67B2B, size: 0x8, addend: 0x0, symName: __Z41__static_initialization_and_destruction_0ii, symObjAddr: 0xD7C8, symBinAddr: 0x10001BA9C, symSize: 0xB60 }
  - { offsetInCU: 0x1804A, offset: 0x67B33, size: 0x8, addend: 0x0, symName: __GLOBAL__sub_I_user_interface_functions.cpp, symObjAddr: 0xE328, symBinAddr: 0x10001C5FC, symSize: 0x1C }
  - { offsetInCU: 0x180F0, offset: 0x67BD9, size: 0x8, addend: 0x0, symName: __ZNSt3mapINSt7__cxx1112basic_stringIcSt11char_traitsIcESaIcEEE5TypesSt4lessIS5_ESaISt4pairIKS5_S6_EEED1Ev, symObjAddr: 0xD7A8, symBinAddr: 0x10001BA7C, symSize: 0x20 }
  - { offsetInCU: 0x180F8, offset: 0x67BE1, size: 0x8, addend: 0x0, symName: __Z41__static_initialization_and_destruction_0ii, symObjAddr: 0xD7C8, symBinAddr: 0x10001BA9C, symSize: 0xB60 }
  - { offsetInCU: 0x18146, offset: 0x67C2F, size: 0x8, addend: 0x0, symName: __ZNSt3mapINSt7__cxx1112basic_stringIcSt11char_traitsIcESaIcEEE6FieldsSt4lessIS5_ESaISt4pairIKS5_S6_EEED1Ev, symObjAddr: 0xD788, symBinAddr: 0x10001BA5C, symSize: 0x20 }
  - { offsetInCU: 0x1814E, offset: 0x67C37, size: 0x8, addend: 0x0, symName: __ZNSt3mapINSt7__cxx1112basic_stringIcSt11char_traitsIcESaIcEEE5TypesSt4lessIS5_ESaISt4pairIKS5_S6_EEED1Ev, symObjAddr: 0xD7A8, symBinAddr: 0x10001BA7C, symSize: 0x20 }
  - { offsetInCU: 0x1819D, offset: 0x67C86, size: 0x8, addend: 0x0, symName: __ZNSt3mapINSt7__cxx1112basic_stringIcSt11char_traitsIcESaIcEEE8CommandsSt4lessIS5_ESaISt4pairIKS5_S6_EEED1Ev, symObjAddr: 0xD768, symBinAddr: 0x10001BA3C, symSize: 0x20 }
  - { offsetInCU: 0x181A5, offset: 0x67C8E, size: 0x8, addend: 0x0, symName: __ZNSt3mapINSt7__cxx1112basic_stringIcSt11char_traitsIcESaIcEEE6FieldsSt4lessIS5_ESaISt4pairIKS5_S6_EEED1Ev, symObjAddr: 0xD788, symBinAddr: 0x10001BA5C, symSize: 0x20 }
  - { offsetInCU: 0x1815E, offset: 0x67C47, size: 0x8, addend: 0x0, symName: __ZNSt10_Head_baseILm0EONSt7__cxx1112basic_stringIcSt11char_traitsIcESaIcEEELb0EE7_M_headERS7_, symObjAddr: 0xD750, symBinAddr: 0x10001BA24, symSize: 0x18 }
  - { offsetInCU: 0x18166, offset: 0x67C4F, size: 0x8, addend: 0x0, symName: __ZNSt3mapINSt7__cxx1112basic_stringIcSt11char_traitsIcESaIcEEE8CommandsSt4lessIS5_ESaISt4pairIKS5_S6_EEED1Ev, symObjAddr: 0xD768, symBinAddr: 0x10001BA3C, symSize: 0x20 }
  - { offsetInCU: 0x1818F, offset: 0x67C78, size: 0x8, addend: 0x0, symName: __ZNSt10_Head_baseILm0ERKNSt7__cxx1112basic_stringIcSt11char_traitsIcESaIcEEELb0EE7_M_headERS8_, symObjAddr: 0xD738, symBinAddr: 0x10001BA0C, symSize: 0x18 }
  - { offsetInCU: 0x18197, offset: 0x67C80, size: 0x8, addend: 0x0, symName: __ZNSt10_Head_baseILm0EONSt7__cxx1112basic_stringIcSt11char_traitsIcESaIcEEELb0EE7_M_headERS7_, symObjAddr: 0xD750, symBinAddr: 0x10001BA24, symSize: 0x18 }
  - { offsetInCU: 0x181C0, offset: 0x67CA9, size: 0x8, addend: 0x0, symName: __ZNSt11_Tuple_implILm0EJONSt7__cxx1112basic_stringIcSt11char_traitsIcESaIcEEEEE7_M_headERS7_, symObjAddr: 0xD71C, symBinAddr: 0x10001B9F0, symSize: 0x1C }
  - { offsetInCU: 0x181C8, offset: 0x67CB1, size: 0x8, addend: 0x0, symName: __ZNSt10_Head_baseILm0ERKNSt7__cxx1112basic_stringIcSt11char_traitsIcESaIcEEELb0EE7_M_headERS8_, symObjAddr: 0xD738, symBinAddr: 0x10001BA0C, symSize: 0x18 }
  - { offsetInCU: 0x181F2, offset: 0x67CDB, size: 0x8, addend: 0x0, symName: __ZNSt11_Tuple_implILm0EJRKNSt7__cxx1112basic_stringIcSt11char_traitsIcESaIcEEEEE7_M_headERS8_, symObjAddr: 0xD700, symBinAddr: 0x10001B9D4, symSize: 0x1C }
  - { offsetInCU: 0x181FA, offset: 0x67CE3, size: 0x8, addend: 0x0, symName: __ZNSt11_Tuple_implILm0EJONSt7__cxx1112basic_stringIcSt11char_traitsIcESaIcEEEEE7_M_headERS7_, symObjAddr: 0xD71C, symBinAddr: 0x10001B9F0, symSize: 0x1C }
  - { offsetInCU: 0x182D1, offset: 0x67DBA, size: 0x8, addend: 0x0, symName: __ZSt12__get_helperILm0EONSt7__cxx1112basic_stringIcSt11char_traitsIcESaIcEEEJEERT0_RSt11_Tuple_implIXT_EJS7_DpT1_EE, symObjAddr: 0xD6E4, symBinAddr: 0x10001B9B8, symSize: 0x1C }
  - { offsetInCU: 0x182D9, offset: 0x67DC2, size: 0x8, addend: 0x0, symName: __ZNSt11_Tuple_implILm0EJRKNSt7__cxx1112basic_stringIcSt11char_traitsIcESaIcEEEEE7_M_headERS8_, symObjAddr: 0xD700, symBinAddr: 0x10001B9D4, symSize: 0x1C }
  - { offsetInCU: 0x18336, offset: 0x67E1F, size: 0x8, addend: 0x0, symName: __ZSt12__get_helperILm0ERKNSt7__cxx1112basic_stringIcSt11char_traitsIcESaIcEEEJEERT0_RSt11_Tuple_implIXT_EJS8_DpT1_EE, symObjAddr: 0xD6C8, symBinAddr: 0x10001B99C, symSize: 0x1C }
  - { offsetInCU: 0x1833E, offset: 0x67E27, size: 0x8, addend: 0x0, symName: __ZSt12__get_helperILm0EONSt7__cxx1112basic_stringIcSt11char_traitsIcESaIcEEEJEERT0_RSt11_Tuple_implIXT_EJS7_DpT1_EE, symObjAddr: 0xD6E4, symBinAddr: 0x10001B9B8, symSize: 0x1C }
  - { offsetInCU: 0x1837A, offset: 0x67E63, size: 0x8, addend: 0x0, symName: __ZSt7forwardIONSt7__cxx1112basic_stringIcSt11char_traitsIcESaIcEEEEOT_RNSt16remove_referenceIS7_E4typeE, symObjAddr: 0xD6B4, symBinAddr: 0x10001B988, symSize: 0x14 }
  - { offsetInCU: 0x18382, offset: 0x67E6B, size: 0x8, addend: 0x0, symName: __ZSt12__get_helperILm0ERKNSt7__cxx1112basic_stringIcSt11char_traitsIcESaIcEEEJEERT0_RSt11_Tuple_implIXT_EJS8_DpT1_EE, symObjAddr: 0xD6C8, symBinAddr: 0x10001B99C, symSize: 0x1C }
  - { offsetInCU: 0x1840F, offset: 0x67EF8, size: 0x8, addend: 0x0, symName: __ZSt3getILm0EJONSt7__cxx1112basic_stringIcSt11char_traitsIcESaIcEEEEERNSt13tuple_elementIXT_ESt5tupleIJDpT0_EEE4typeERSB_, symObjAddr: 0xD698, symBinAddr: 0x10001B96C, symSize: 0x1C }
  - { offsetInCU: 0x18417, offset: 0x67F00, size: 0x8, addend: 0x0, symName: __ZSt7forwardIONSt7__cxx1112basic_stringIcSt11char_traitsIcESaIcEEEEOT_RNSt16remove_referenceIS7_E4typeE, symObjAddr: 0xD6B4, symBinAddr: 0x10001B988, symSize: 0x14 }
  - { offsetInCU: 0x18471, offset: 0x67F5A, size: 0x8, addend: 0x0, symName: __ZSt3getILm0EJRKNSt7__cxx1112basic_stringIcSt11char_traitsIcESaIcEEEEERNSt13tuple_elementIXT_ESt5tupleIJDpT0_EEE4typeERSC_, symObjAddr: 0xD630, symBinAddr: 0x10001B950, symSize: 0x1C }
  - { offsetInCU: 0x183EE, offset: 0x67ED7, size: 0x8, addend: 0x0, symName: __ZN9__gnu_cxx13new_allocatorISt13_Rb_tree_nodeISt4pairIKNSt7__cxx1112basic_stringIcSt11char_traitsIcESaIcEEE5TypesEEE9constructISB_JRKSB_EEEvPT_DpOT0_, symObjAddr: 0xD5BC, symBinAddr: 0x10001B8DC, symSize: 0x74 }
  - { offsetInCU: 0x183F6, offset: 0x67EDF, size: 0x8, addend: 0x0, symName: __ZSt3getILm0EJRKNSt7__cxx1112basic_stringIcSt11char_traitsIcESaIcEEEEERNSt13tuple_elementIXT_ESt5tupleIJDpT0_EEE4typeERSC_, symObjAddr: 0xD630, symBinAddr: 0x10001B950, symSize: 0x1C }
  - { offsetInCU: 0x184CF, offset: 0x67FB8, size: 0x8, addend: 0x0, symName: __ZNSt4pairIKNSt7__cxx1112basic_stringIcSt11char_traitsIcESaIcEEE5TypesEC1ERKS8_, symObjAddr: 0xD584, symBinAddr: 0x10001B8A4, symSize: 0x38 }
  - { offsetInCU: 0x184D7, offset: 0x67FC0, size: 0x8, addend: 0x0, symName: __ZN9__gnu_cxx13new_allocatorISt13_Rb_tree_nodeISt4pairIKNSt7__cxx1112basic_stringIcSt11char_traitsIcESaIcEEE5TypesEEE9constructISB_JRKSB_EEEvPT_DpOT0_, symObjAddr: 0xD5BC, symBinAddr: 0x10001B8DC, symSize: 0x74 }
  - { offsetInCU: 0x184B9, offset: 0x67FA2, size: 0x8, addend: 0x0, symName: __ZN9__gnu_cxx13new_allocatorISt13_Rb_tree_nodeISt4pairIKNSt7__cxx1112basic_stringIcSt11char_traitsIcESaIcEEE6FieldsEEE9constructISB_JRKSB_EEEvPT_DpOT0_, symObjAddr: 0xD510, symBinAddr: 0x10001B830, symSize: 0x74 }
  - { offsetInCU: 0x184C1, offset: 0x67FAA, size: 0x8, addend: 0x0, symName: __ZNSt4pairIKNSt7__cxx1112basic_stringIcSt11char_traitsIcESaIcEEE5TypesEC1ERKS8_, symObjAddr: 0xD584, symBinAddr: 0x10001B8A4, symSize: 0x38 }
  - { offsetInCU: 0x1859B, offset: 0x68084, size: 0x8, addend: 0x0, symName: __ZNSt4pairIKNSt7__cxx1112basic_stringIcSt11char_traitsIcESaIcEEE6FieldsEC1ERKS8_, symObjAddr: 0xD4D8, symBinAddr: 0x10001B7F8, symSize: 0x38 }
  - { offsetInCU: 0x185A3, offset: 0x6808C, size: 0x8, addend: 0x0, symName: __ZN9__gnu_cxx13new_allocatorISt13_Rb_tree_nodeISt4pairIKNSt7__cxx1112basic_stringIcSt11char_traitsIcESaIcEEE6FieldsEEE9constructISB_JRKSB_EEEvPT_DpOT0_, symObjAddr: 0xD510, symBinAddr: 0x10001B830, symSize: 0x74 }
  - { offsetInCU: 0x18584, offset: 0x6806D, size: 0x8, addend: 0x0, symName: __ZN9__gnu_cxx13new_allocatorISt13_Rb_tree_nodeISt4pairIKNSt7__cxx1112basic_stringIcSt11char_traitsIcESaIcEEE8CommandsEEE9constructISB_JRKSB_EEEvPT_DpOT0_, symObjAddr: 0xD464, symBinAddr: 0x10001B784, symSize: 0x74 }
  - { offsetInCU: 0x1858C, offset: 0x68075, size: 0x8, addend: 0x0, symName: __ZNSt4pairIKNSt7__cxx1112basic_stringIcSt11char_traitsIcESaIcEEE6FieldsEC1ERKS8_, symObjAddr: 0xD4D8, symBinAddr: 0x10001B7F8, symSize: 0x38 }
  - { offsetInCU: 0x18668, offset: 0x68151, size: 0x8, addend: 0x0, symName: __ZNSt4pairIKNSt7__cxx1112basic_stringIcSt11char_traitsIcESaIcEEE8CommandsEC1ERKS8_, symObjAddr: 0xD42C, symBinAddr: 0x10001B74C, symSize: 0x38 }
  - { offsetInCU: 0x18670, offset: 0x68159, size: 0x8, addend: 0x0, symName: __ZN9__gnu_cxx13new_allocatorISt13_Rb_tree_nodeISt4pairIKNSt7__cxx1112basic_stringIcSt11char_traitsIcESaIcEEE8CommandsEEE9constructISB_JRKSB_EEEvPT_DpOT0_, symObjAddr: 0xD464, symBinAddr: 0x10001B784, symSize: 0x74 }
  - { offsetInCU: 0x18774, offset: 0x6825D, size: 0x8, addend: 0x0, symName: __ZNSt4pairIKNSt7__cxx1112basic_stringIcSt11char_traitsIcESaIcEEE5TypesEC1IJOS5_EJLm0EEJEJEEERSt5tupleIJDpT_EERSB_IJDpT1_EESt12_Index_tupleIJXspT0_EEESK_IJXspT2_EEE, symObjAddr: 0xD2D8, symBinAddr: 0x10001B6F8, symSize: 0x54 }
  - { offsetInCU: 0x18888, offset: 0x68371, size: 0x8, addend: 0x0, symName: __ZNSt4pairIKNSt7__cxx1112basic_stringIcSt11char_traitsIcESaIcEEE6FieldsEC1IJRS6_EJLm0EEJEJEEERSt5tupleIJDpT_EERSB_IJDpT1_EESt12_Index_tupleIJXspT0_EEESK_IJXspT2_EEE, symObjAddr: 0xD24C, symBinAddr: 0x10001B6A4, symSize: 0x54 }
  - { offsetInCU: 0x1899A, offset: 0x68483, size: 0x8, addend: 0x0, symName: __ZNSt4pairIKNSt7__cxx1112basic_stringIcSt11char_traitsIcESaIcEEE5TypesEC1IJRS6_EJLm0EEJEJEEERSt5tupleIJDpT_EERSB_IJDpT1_EESt12_Index_tupleIJXspT0_EEESK_IJXspT2_EEE, symObjAddr: 0xD1F8, symBinAddr: 0x10001B650, symSize: 0x54 }
  - { offsetInCU: 0x189A2, offset: 0x6848B, size: 0x8, addend: 0x0, symName: __ZNSt4pairIKNSt7__cxx1112basic_stringIcSt11char_traitsIcESaIcEEE6FieldsEC1IJRS6_EJLm0EEJEJEEERSt5tupleIJDpT_EERSB_IJDpT1_EESt12_Index_tupleIJXspT0_EEESK_IJXspT2_EEE, symObjAddr: 0xD24C, symBinAddr: 0x10001B6A4, symSize: 0x54 }
  - { offsetInCU: 0x18AB0, offset: 0x68599, size: 0x8, addend: 0x0, symName: __ZNSt4pairIKNSt7__cxx1112basic_stringIcSt11char_traitsIcESaIcEEE8CommandsEC1IJRS6_EJLm0EEJEJEEERSt5tupleIJDpT_EERSB_IJDpT1_EESt12_Index_tupleIJXspT0_EEESK_IJXspT2_EEE, symObjAddr: 0xD1A4, symBinAddr: 0x10001B5FC, symSize: 0x54 }
  - { offsetInCU: 0x18AB8, offset: 0x685A1, size: 0x8, addend: 0x0, symName: __ZNSt4pairIKNSt7__cxx1112basic_stringIcSt11char_traitsIcESaIcEEE5TypesEC1IJRS6_EJLm0EEJEJEEERSt5tupleIJDpT_EERSB_IJDpT1_EESt12_Index_tupleIJXspT0_EEESK_IJXspT2_EEE, symObjAddr: 0xD1F8, symBinAddr: 0x10001B650, symSize: 0x54 }
  - { offsetInCU: 0x18A9B, offset: 0x68584, size: 0x8, addend: 0x0, symName: __ZNSt16allocator_traitsISaISt13_Rb_tree_nodeISt4pairIKNSt7__cxx1112basic_stringIcSt11char_traitsIcESaIcEEE5TypesEEEE9constructISA_JRKSA_EEEvRSC_PT_DpOT0_, symObjAddr: 0xD16C, symBinAddr: 0x10001B5C4, symSize: 0x38 }
  - { offsetInCU: 0x18AA3, offset: 0x6858C, size: 0x8, addend: 0x0, symName: __ZNSt4pairIKNSt7__cxx1112basic_stringIcSt11char_traitsIcESaIcEEE8CommandsEC1IJRS6_EJLm0EEJEJEEERSt5tupleIJDpT_EERSB_IJDpT1_EESt12_Index_tupleIJXspT0_EEESK_IJXspT2_EEE, symObjAddr: 0xD1A4, symBinAddr: 0x10001B5FC, symSize: 0x54 }
  - { offsetInCU: 0x18B0F, offset: 0x685F8, size: 0x8, addend: 0x0, symName: __ZNSt16allocator_traitsISaISt13_Rb_tree_nodeISt4pairIKNSt7__cxx1112basic_stringIcSt11char_traitsIcESaIcEEE6FieldsEEEE9constructISA_JRKSA_EEEvRSC_PT_DpOT0_, symObjAddr: 0xD134, symBinAddr: 0x10001B58C, symSize: 0x38 }
  - { offsetInCU: 0x18B17, offset: 0x68600, size: 0x8, addend: 0x0, symName: __ZNSt16allocator_traitsISaISt13_Rb_tree_nodeISt4pairIKNSt7__cxx1112basic_stringIcSt11char_traitsIcESaIcEEE5TypesEEEE9constructISA_JRKSA_EEEvRSC_PT_DpOT0_, symObjAddr: 0xD16C, symBinAddr: 0x10001B5C4, symSize: 0x38 }
  - { offsetInCU: 0x18B83, offset: 0x6866C, size: 0x8, addend: 0x0, symName: __ZNSt16allocator_traitsISaISt13_Rb_tree_nodeISt4pairIKNSt7__cxx1112basic_stringIcSt11char_traitsIcESaIcEEE8CommandsEEEE9constructISA_JRKSA_EEEvRSC_PT_DpOT0_, symObjAddr: 0xD0FC, symBinAddr: 0x10001B554, symSize: 0x38 }
  - { offsetInCU: 0x18B8B, offset: 0x68674, size: 0x8, addend: 0x0, symName: __ZNSt16allocator_traitsISaISt13_Rb_tree_nodeISt4pairIKNSt7__cxx1112basic_stringIcSt11char_traitsIcESaIcEEE6FieldsEEEE9constructISA_JRKSA_EEEvRSC_PT_DpOT0_, symObjAddr: 0xD134, symBinAddr: 0x10001B58C, symSize: 0x38 }
  - { offsetInCU: 0x18CD9, offset: 0x687C2, size: 0x8, addend: 0x0, symName: __ZNSt4pairIKNSt7__cxx1112basic_stringIcSt11char_traitsIcESaIcEEE5TypesEC1IJOS5_EJEEESt21piecewise_construct_tSt5tupleIJDpT_EESC_IJDpT0_EE, symObjAddr: 0xD04C, symBinAddr: 0x10001B518, symSize: 0x3C }
  - { offsetInCU: 0x18D37, offset: 0x68820, size: 0x8, addend: 0x0, symName: __ZNSt11_Tuple_implILm0EJONSt7__cxx1112basic_stringIcSt11char_traitsIcESaIcEEEEEC2EOS7_, symObjAddr: 0xD024, symBinAddr: 0x10001B4F0, symSize: 0x28 }
  - { offsetInCU: 0x18D3F, offset: 0x68828, size: 0x8, addend: 0x0, symName: __ZNSt4pairIKNSt7__cxx1112basic_stringIcSt11char_traitsIcESaIcEEE5TypesEC1IJOS5_EJEEESt21piecewise_construct_tSt5tupleIJDpT_EESC_IJDpT0_EE, symObjAddr: 0xD04C, symBinAddr: 0x10001B518, symSize: 0x3C }
  - { offsetInCU: 0x18DFD, offset: 0x688E6, size: 0x8, addend: 0x0, symName: __ZNSt4pairIKNSt7__cxx1112basic_stringIcSt11char_traitsIcESaIcEEE6FieldsEC1IJRS6_EJEEESt21piecewise_construct_tSt5tupleIJDpT_EESC_IJDpT0_EE, symObjAddr: 0xCF6C, symBinAddr: 0x10001B4B4, symSize: 0x3C }
  - { offsetInCU: 0x18EBB, offset: 0x689A4, size: 0x8, addend: 0x0, symName: __ZNSt4pairIKNSt7__cxx1112basic_stringIcSt11char_traitsIcESaIcEEE5TypesEC1IJRS6_EJEEESt21piecewise_construct_tSt5tupleIJDpT_EESC_IJDpT0_EE, symObjAddr: 0xCF30, symBinAddr: 0x10001B478, symSize: 0x3C }
  - { offsetInCU: 0x18EC3, offset: 0x689AC, size: 0x8, addend: 0x0, symName: __ZNSt4pairIKNSt7__cxx1112basic_stringIcSt11char_traitsIcESaIcEEE6FieldsEC1IJRS6_EJEEESt21piecewise_construct_tSt5tupleIJDpT_EESC_IJDpT0_EE, symObjAddr: 0xCF6C, symBinAddr: 0x10001B4B4, symSize: 0x3C }
  - { offsetInCU: 0x18F7D, offset: 0x68A66, size: 0x8, addend: 0x0, symName: __ZNSt4pairIKNSt7__cxx1112basic_stringIcSt11char_traitsIcESaIcEEE8CommandsEC1IJRS6_EJEEESt21piecewise_construct_tSt5tupleIJDpT_EESC_IJDpT0_EE, symObjAddr: 0xCEF4, symBinAddr: 0x10001B43C, symSize: 0x3C }
  - { offsetInCU: 0x18F85, offset: 0x68A6E, size: 0x8, addend: 0x0, symName: __ZNSt4pairIKNSt7__cxx1112basic_stringIcSt11char_traitsIcESaIcEEE5TypesEC1IJRS6_EJEEESt21piecewise_construct_tSt5tupleIJDpT_EESC_IJDpT0_EE, symObjAddr: 0xCF30, symBinAddr: 0x10001B478, symSize: 0x3C }
  - { offsetInCU: 0x18FD9, offset: 0x68AC2, size: 0x8, addend: 0x0, symName: __ZNSt11_Tuple_implILm0EJRKNSt7__cxx1112basic_stringIcSt11char_traitsIcESaIcEEEEEC2EOS8_, symObjAddr: 0xCECC, symBinAddr: 0x10001B414, symSize: 0x28 }
  - { offsetInCU: 0x18FE1, offset: 0x68ACA, size: 0x8, addend: 0x0, symName: __ZNSt4pairIKNSt7__cxx1112basic_stringIcSt11char_traitsIcESaIcEEE8CommandsEC1IJRS6_EJEEESt21piecewise_construct_tSt5tupleIJDpT_EESC_IJDpT0_EE, symObjAddr: 0xCEF4, symBinAddr: 0x10001B43C, symSize: 0x3C }
  - { offsetInCU: 0x18FBB, offset: 0x68AA4, size: 0x8, addend: 0x0, symName: __ZNSt8_Rb_treeINSt7__cxx1112basic_stringIcSt11char_traitsIcESaIcEEESt4pairIKS5_5TypesESt10_Select1stIS9_ESt4lessIS5_ESaIS9_EE17_M_construct_nodeIJRKS9_EEEvPSt13_Rb_tree_nodeIS9_EDpOT_, symObjAddr: 0xCE18, symBinAddr: 0x10001B388, symSize: 0x8C }
  - { offsetInCU: 0x1901F, offset: 0x68B08, size: 0x8, addend: 0x0, symName: __ZNSt8_Rb_treeINSt7__cxx1112basic_stringIcSt11char_traitsIcESaIcEEESt4pairIKS5_6FieldsESt10_Select1stIS9_ESt4lessIS5_ESaIS9_EE17_M_construct_nodeIJRKS9_EEEvPSt13_Rb_tree_nodeIS9_EDpOT_, symObjAddr: 0xCD8C, symBinAddr: 0x10001B2FC, symSize: 0x8C }
  - { offsetInCU: 0x19027, offset: 0x68B10, size: 0x8, addend: 0x0, symName: __ZNSt8_Rb_treeINSt7__cxx1112basic_stringIcSt11char_traitsIcESaIcEEESt4pairIKS5_5TypesESt10_Select1stIS9_ESt4lessIS5_ESaIS9_EE17_M_construct_nodeIJRKS9_EEEvPSt13_Rb_tree_nodeIS9_EDpOT_, symObjAddr: 0xCE18, symBinAddr: 0x10001B388, symSize: 0x8C }
  - { offsetInCU: 0x19083, offset: 0x68B6C, size: 0x8, addend: 0x0, symName: __ZNSt8_Rb_treeINSt7__cxx1112basic_stringIcSt11char_traitsIcESaIcEEESt4pairIKS5_8CommandsESt10_Select1stIS9_ESt4lessIS5_ESaIS9_EE17_M_construct_nodeIJRKS9_EEEvPSt13_Rb_tree_nodeIS9_EDpOT_, symObjAddr: 0xCD00, symBinAddr: 0x10001B270, symSize: 0x8C }
  - { offsetInCU: 0x1908B, offset: 0x68B74, size: 0x8, addend: 0x0, symName: __ZNSt8_Rb_treeINSt7__cxx1112basic_stringIcSt11char_traitsIcESaIcEEESt4pairIKS5_6FieldsESt10_Select1stIS9_ESt4lessIS5_ESaIS9_EE17_M_construct_nodeIJRKS9_EEEvPSt13_Rb_tree_nodeIS9_EDpOT_, symObjAddr: 0xCD8C, symBinAddr: 0x10001B2FC, symSize: 0x8C }
  - { offsetInCU: 0x190FB, offset: 0x68BE4, size: 0x8, addend: 0x0, symName: __ZN9__gnu_cxx13new_allocatorISt13_Rb_tree_nodeISt4pairIKNSt7__cxx1112basic_stringIcSt11char_traitsIcESaIcEEE5TypesEEE9constructISB_JRKSt21piecewise_construct_tSt5tupleIJOS8_EESI_IJEEEEEvPT_DpOT0_, symObjAddr: 0xCA70, symBinAddr: 0x10001B1D0, symSize: 0xA0 }
  - { offsetInCU: 0x19203, offset: 0x68CEC, size: 0x8, addend: 0x0, symName: __ZNSt5tupleIJONSt7__cxx1112basic_stringIcSt11char_traitsIcESaIcEEEEEC1EOS7_, symObjAddr: 0xCA48, symBinAddr: 0x10001B1A8, symSize: 0x28 }
  - { offsetInCU: 0x1920B, offset: 0x68CF4, size: 0x8, addend: 0x0, symName: __ZN9__gnu_cxx13new_allocatorISt13_Rb_tree_nodeISt4pairIKNSt7__cxx1112basic_stringIcSt11char_traitsIcESaIcEEE5TypesEEE9constructISB_JRKSt21piecewise_construct_tSt5tupleIJOS8_EESI_IJEEEEEvPT_DpOT0_, symObjAddr: 0xCA70, symBinAddr: 0x10001B1D0, symSize: 0xA0 }
  - { offsetInCU: 0x191F1, offset: 0x68CDA, size: 0x8, addend: 0x0, symName: __ZN9__gnu_cxx13new_allocatorISt13_Rb_tree_nodeISt4pairIKNSt7__cxx1112basic_stringIcSt11char_traitsIcESaIcEEE6FieldsEEE10deallocateEPSC_m, symObjAddr: 0xC93C, symBinAddr: 0x10001B16C, symSize: 0x3C }
  - { offsetInCU: 0x19246, offset: 0x68D2F, size: 0x8, addend: 0x0, symName: __ZN9__gnu_cxx13new_allocatorISt13_Rb_tree_nodeISt4pairIKNSt7__cxx1112basic_stringIcSt11char_traitsIcESaIcEEE6FieldsEEE7destroyISB_EEvPT_, symObjAddr: 0xC918, symBinAddr: 0x10001B148, symSize: 0x24 }
  - { offsetInCU: 0x1924E, offset: 0x68D37, size: 0x8, addend: 0x0, symName: __ZN9__gnu_cxx13new_allocatorISt13_Rb_tree_nodeISt4pairIKNSt7__cxx1112basic_stringIcSt11char_traitsIcESaIcEEE6FieldsEEE10deallocateEPSC_m, symObjAddr: 0xC93C, symBinAddr: 0x10001B16C, symSize: 0x3C }
  - { offsetInCU: 0x19299, offset: 0x68D82, size: 0x8, addend: 0x0, symName: __ZNK9__gnu_cxx16__aligned_membufISt4pairIKNSt7__cxx1112basic_stringIcSt11char_traitsIcESaIcEEE6FieldsEE7_M_addrEv, symObjAddr: 0xC904, symBinAddr: 0x10001B134, symSize: 0x14 }
  - { offsetInCU: 0x192A1, offset: 0x68D8A, size: 0x8, addend: 0x0, symName: __ZN9__gnu_cxx13new_allocatorISt13_Rb_tree_nodeISt4pairIKNSt7__cxx1112basic_stringIcSt11char_traitsIcESaIcEEE6FieldsEEE7destroyISB_EEvPT_, symObjAddr: 0xC918, symBinAddr: 0x10001B148, symSize: 0x24 }
  - { offsetInCU: 0x193B7, offset: 0x68EA0, size: 0x8, addend: 0x0, symName: __ZSt7forwardIRPSt13_Rb_tree_nodeISt4pairIKNSt7__cxx1112basic_stringIcSt11char_traitsIcESaIcEEE6FieldsEEEOT_RNSt16remove_referenceISE_E4typeE, symObjAddr: 0xC8F0, symBinAddr: 0x10001B120, symSize: 0x14 }
  - { offsetInCU: 0x193BF, offset: 0x68EA8, size: 0x8, addend: 0x0, symName: __ZNK9__gnu_cxx16__aligned_membufISt4pairIKNSt7__cxx1112basic_stringIcSt11char_traitsIcESaIcEEE6FieldsEE7_M_addrEv, symObjAddr: 0xC904, symBinAddr: 0x10001B134, symSize: 0x14 }
  - { offsetInCU: 0x19320, offset: 0x68E09, size: 0x8, addend: 0x0, symName: __ZN9__gnu_cxx13new_allocatorISt13_Rb_tree_nodeISt4pairIKNSt7__cxx1112basic_stringIcSt11char_traitsIcESaIcEEE6FieldsEEE9constructISB_JRKSt21piecewise_construct_tSt5tupleIJRS9_EESI_IJEEEEEvPT_DpOT0_, symObjAddr: 0xC850, symBinAddr: 0x10001B080, symSize: 0xA0 }
  - { offsetInCU: 0x19328, offset: 0x68E11, size: 0x8, addend: 0x0, symName: __ZSt7forwardIRPSt13_Rb_tree_nodeISt4pairIKNSt7__cxx1112basic_stringIcSt11char_traitsIcESaIcEEE6FieldsEEEOT_RNSt16remove_referenceISE_E4typeE, symObjAddr: 0xC8F0, symBinAddr: 0x10001B120, symSize: 0x14 }
  - { offsetInCU: 0x193BA, offset: 0x68EA3, size: 0x8, addend: 0x0, symName: __ZN9__gnu_cxx13new_allocatorISt13_Rb_tree_nodeISt4pairIKNSt7__cxx1112basic_stringIcSt11char_traitsIcESaIcEEE6FieldsEEE8allocateEmPKv, symObjAddr: 0xC7C0, symBinAddr: 0x10001AFF0, symSize: 0x90 }
  - { offsetInCU: 0x193C2, offset: 0x68EAB, size: 0x8, addend: 0x0, symName: __ZN9__gnu_cxx13new_allocatorISt13_Rb_tree_nodeISt4pairIKNSt7__cxx1112basic_stringIcSt11char_traitsIcESaIcEEE6FieldsEEE9constructISB_JRKSt21piecewise_construct_tSt5tupleIJRS9_EESI_IJEEEEEvPT_DpOT0_, symObjAddr: 0xC850, symBinAddr: 0x10001B080, symSize: 0xA0 }
  - { offsetInCU: 0x1941A, offset: 0x68F03, size: 0x8, addend: 0x0, symName: __ZNK9__gnu_cxx13new_allocatorISt13_Rb_tree_nodeISt4pairIKNSt7__cxx1112basic_stringIcSt11char_traitsIcESaIcEEE6FieldsEEE11_M_max_sizeEv, symObjAddr: 0xC7A0, symBinAddr: 0x10001AFD0, symSize: 0x20 }
  - { offsetInCU: 0x19422, offset: 0x68F0B, size: 0x8, addend: 0x0, symName: __ZN9__gnu_cxx13new_allocatorISt13_Rb_tree_nodeISt4pairIKNSt7__cxx1112basic_stringIcSt11char_traitsIcESaIcEEE6FieldsEEE8allocateEmPKv, symObjAddr: 0xC7C0, symBinAddr: 0x10001AFF0, symSize: 0x90 }
  - { offsetInCU: 0x19449, offset: 0x68F32, size: 0x8, addend: 0x0, symName: __ZN9__gnu_cxx13new_allocatorISt13_Rb_tree_nodeISt4pairIKNSt7__cxx1112basic_stringIcSt11char_traitsIcESaIcEEE5TypesEEE10deallocateEPSC_m, symObjAddr: 0xC764, symBinAddr: 0x10001AF94, symSize: 0x3C }
  - { offsetInCU: 0x19451, offset: 0x68F3A, size: 0x8, addend: 0x0, symName: __ZNK9__gnu_cxx13new_allocatorISt13_Rb_tree_nodeISt4pairIKNSt7__cxx1112basic_stringIcSt11char_traitsIcESaIcEEE6FieldsEEE11_M_max_sizeEv, symObjAddr: 0xC7A0, symBinAddr: 0x10001AFD0, symSize: 0x20 }
  - { offsetInCU: 0x1949E, offset: 0x68F87, size: 0x8, addend: 0x0, symName: __ZN9__gnu_cxx13new_allocatorISt13_Rb_tree_nodeISt4pairIKNSt7__cxx1112basic_stringIcSt11char_traitsIcESaIcEEE5TypesEEE7destroyISB_EEvPT_, symObjAddr: 0xC740, symBinAddr: 0x10001AF70, symSize: 0x24 }
  - { offsetInCU: 0x194A6, offset: 0x68F8F, size: 0x8, addend: 0x0, symName: __ZN9__gnu_cxx13new_allocatorISt13_Rb_tree_nodeISt4pairIKNSt7__cxx1112basic_stringIcSt11char_traitsIcESaIcEEE5TypesEEE10deallocateEPSC_m, symObjAddr: 0xC764, symBinAddr: 0x10001AF94, symSize: 0x3C }
  - { offsetInCU: 0x194F1, offset: 0x68FDA, size: 0x8, addend: 0x0, symName: __ZNK9__gnu_cxx16__aligned_membufISt4pairIKNSt7__cxx1112basic_stringIcSt11char_traitsIcESaIcEEE5TypesEE7_M_addrEv, symObjAddr: 0xC72C, symBinAddr: 0x10001AF5C, symSize: 0x14 }
  - { offsetInCU: 0x194F9, offset: 0x68FE2, size: 0x8, addend: 0x0, symName: __ZN9__gnu_cxx13new_allocatorISt13_Rb_tree_nodeISt4pairIKNSt7__cxx1112basic_stringIcSt11char_traitsIcESaIcEEE5TypesEEE7destroyISB_EEvPT_, symObjAddr: 0xC740, symBinAddr: 0x10001AF70, symSize: 0x24 }
  - { offsetInCU: 0x1960D, offset: 0x690F6, size: 0x8, addend: 0x0, symName: __ZSt7forwardIRPSt13_Rb_tree_nodeISt4pairIKNSt7__cxx1112basic_stringIcSt11char_traitsIcESaIcEEE5TypesEEEOT_RNSt16remove_referenceISE_E4typeE, symObjAddr: 0xC718, symBinAddr: 0x10001AF48, symSize: 0x14 }
  - { offsetInCU: 0x19615, offset: 0x690FE, size: 0x8, addend: 0x0, symName: __ZNK9__gnu_cxx16__aligned_membufISt4pairIKNSt7__cxx1112basic_stringIcSt11char_traitsIcESaIcEEE5TypesEE7_M_addrEv, symObjAddr: 0xC72C, symBinAddr: 0x10001AF5C, symSize: 0x14 }
  - { offsetInCU: 0x19578, offset: 0x69061, size: 0x8, addend: 0x0, symName: __ZN9__gnu_cxx13new_allocatorISt13_Rb_tree_nodeISt4pairIKNSt7__cxx1112basic_stringIcSt11char_traitsIcESaIcEEE5TypesEEE9constructISB_JRKSt21piecewise_construct_tSt5tupleIJRS9_EESI_IJEEEEEvPT_DpOT0_, symObjAddr: 0xC678, symBinAddr: 0x10001AEA8, symSize: 0xA0 }
  - { offsetInCU: 0x19580, offset: 0x69069, size: 0x8, addend: 0x0, symName: __ZSt7forwardIRPSt13_Rb_tree_nodeISt4pairIKNSt7__cxx1112basic_stringIcSt11char_traitsIcESaIcEEE5TypesEEEOT_RNSt16remove_referenceISE_E4typeE, symObjAddr: 0xC718, symBinAddr: 0x10001AF48, symSize: 0x14 }
  - { offsetInCU: 0x19612, offset: 0x690FB, size: 0x8, addend: 0x0, symName: __ZN9__gnu_cxx13new_allocatorISt13_Rb_tree_nodeISt4pairIKNSt7__cxx1112basic_stringIcSt11char_traitsIcESaIcEEE5TypesEEE8allocateEmPKv, symObjAddr: 0xC5E8, symBinAddr: 0x10001AE18, symSize: 0x90 }
  - { offsetInCU: 0x1961A, offset: 0x69103, size: 0x8, addend: 0x0, symName: __ZN9__gnu_cxx13new_allocatorISt13_Rb_tree_nodeISt4pairIKNSt7__cxx1112basic_stringIcSt11char_traitsIcESaIcEEE5TypesEEE9constructISB_JRKSt21piecewise_construct_tSt5tupleIJRS9_EESI_IJEEEEEvPT_DpOT0_, symObjAddr: 0xC678, symBinAddr: 0x10001AEA8, symSize: 0xA0 }
  - { offsetInCU: 0x19672, offset: 0x6915B, size: 0x8, addend: 0x0, symName: __ZNK9__gnu_cxx13new_allocatorISt13_Rb_tree_nodeISt4pairIKNSt7__cxx1112basic_stringIcSt11char_traitsIcESaIcEEE5TypesEEE11_M_max_sizeEv, symObjAddr: 0xC5C8, symBinAddr: 0x10001ADF8, symSize: 0x20 }
  - { offsetInCU: 0x1967A, offset: 0x69163, size: 0x8, addend: 0x0, symName: __ZN9__gnu_cxx13new_allocatorISt13_Rb_tree_nodeISt4pairIKNSt7__cxx1112basic_stringIcSt11char_traitsIcESaIcEEE5TypesEEE8allocateEmPKv, symObjAddr: 0xC5E8, symBinAddr: 0x10001AE18, symSize: 0x90 }
  - { offsetInCU: 0x196A1, offset: 0x6918A, size: 0x8, addend: 0x0, symName: __ZN9__gnu_cxx13new_allocatorISt13_Rb_tree_nodeISt4pairIKNSt7__cxx1112basic_stringIcSt11char_traitsIcESaIcEEE8CommandsEEE10deallocateEPSC_m, symObjAddr: 0xC58C, symBinAddr: 0x10001ADBC, symSize: 0x3C }
  - { offsetInCU: 0x196A9, offset: 0x69192, size: 0x8, addend: 0x0, symName: __ZNK9__gnu_cxx13new_allocatorISt13_Rb_tree_nodeISt4pairIKNSt7__cxx1112basic_stringIcSt11char_traitsIcESaIcEEE5TypesEEE11_M_max_sizeEv, symObjAddr: 0xC5C8, symBinAddr: 0x10001ADF8, symSize: 0x20 }
  - { offsetInCU: 0x196F6, offset: 0x691DF, size: 0x8, addend: 0x0, symName: __ZN9__gnu_cxx13new_allocatorISt13_Rb_tree_nodeISt4pairIKNSt7__cxx1112basic_stringIcSt11char_traitsIcESaIcEEE8CommandsEEE7destroyISB_EEvPT_, symObjAddr: 0xC568, symBinAddr: 0x10001AD98, symSize: 0x24 }
  - { offsetInCU: 0x196FE, offset: 0x691E7, size: 0x8, addend: 0x0, symName: __ZN9__gnu_cxx13new_allocatorISt13_Rb_tree_nodeISt4pairIKNSt7__cxx1112basic_stringIcSt11char_traitsIcESaIcEEE8CommandsEEE10deallocateEPSC_m, symObjAddr: 0xC58C, symBinAddr: 0x10001ADBC, symSize: 0x3C }
  - { offsetInCU: 0x19749, offset: 0x69232, size: 0x8, addend: 0x0, symName: __ZNK9__gnu_cxx16__aligned_membufISt4pairIKNSt7__cxx1112basic_stringIcSt11char_traitsIcESaIcEEE8CommandsEE7_M_addrEv, symObjAddr: 0xC554, symBinAddr: 0x10001AD84, symSize: 0x14 }
  - { offsetInCU: 0x19751, offset: 0x6923A, size: 0x8, addend: 0x0, symName: __ZN9__gnu_cxx13new_allocatorISt13_Rb_tree_nodeISt4pairIKNSt7__cxx1112basic_stringIcSt11char_traitsIcESaIcEEE8CommandsEEE7destroyISB_EEvPT_, symObjAddr: 0xC568, symBinAddr: 0x10001AD98, symSize: 0x24 }
  - { offsetInCU: 0x1986B, offset: 0x69354, size: 0x8, addend: 0x0, symName: __ZSt7forwardIRPSt13_Rb_tree_nodeISt4pairIKNSt7__cxx1112basic_stringIcSt11char_traitsIcESaIcEEE8CommandsEEEOT_RNSt16remove_referenceISE_E4typeE, symObjAddr: 0xC540, symBinAddr: 0x10001AD70, symSize: 0x14 }
  - { offsetInCU: 0x19873, offset: 0x6935C, size: 0x8, addend: 0x0, symName: __ZNK9__gnu_cxx16__aligned_membufISt4pairIKNSt7__cxx1112basic_stringIcSt11char_traitsIcESaIcEEE8CommandsEE7_M_addrEv, symObjAddr: 0xC554, symBinAddr: 0x10001AD84, symSize: 0x14 }
  - { offsetInCU: 0x197D0, offset: 0x692B9, size: 0x8, addend: 0x0, symName: __ZN9__gnu_cxx13new_allocatorISt13_Rb_tree_nodeISt4pairIKNSt7__cxx1112basic_stringIcSt11char_traitsIcESaIcEEE8CommandsEEE9constructISB_JRKSt21piecewise_construct_tSt5tupleIJRS9_EESI_IJEEEEEvPT_DpOT0_, symObjAddr: 0xC4A0, symBinAddr: 0x10001ACD0, symSize: 0xA0 }
  - { offsetInCU: 0x197D8, offset: 0x692C1, size: 0x8, addend: 0x0, symName: __ZSt7forwardIRPSt13_Rb_tree_nodeISt4pairIKNSt7__cxx1112basic_stringIcSt11char_traitsIcESaIcEEE8CommandsEEEOT_RNSt16remove_referenceISE_E4typeE, symObjAddr: 0xC540, symBinAddr: 0x10001AD70, symSize: 0x14 }
  - { offsetInCU: 0x198D9, offset: 0x693C2, size: 0x8, addend: 0x0, symName: __ZNSt5tupleIJRKNSt7__cxx1112basic_stringIcSt11char_traitsIcESaIcEEEEEC1EOS8_, symObjAddr: 0xC478, symBinAddr: 0x10001ACA8, symSize: 0x28 }
  - { offsetInCU: 0x198E1, offset: 0x693CA, size: 0x8, addend: 0x0, symName: __ZN9__gnu_cxx13new_allocatorISt13_Rb_tree_nodeISt4pairIKNSt7__cxx1112basic_stringIcSt11char_traitsIcESaIcEEE8CommandsEEE9constructISB_JRKSt21piecewise_construct_tSt5tupleIJRS9_EESI_IJEEEEEvPT_DpOT0_, symObjAddr: 0xC4A0, symBinAddr: 0x10001ACD0, symSize: 0xA0 }
  - { offsetInCU: 0x198C6, offset: 0x693AF, size: 0x8, addend: 0x0, symName: __ZN9__gnu_cxx13new_allocatorISt13_Rb_tree_nodeISt4pairIKNSt7__cxx1112basic_stringIcSt11char_traitsIcESaIcEEE8CommandsEEE8allocateEmPKv, symObjAddr: 0xC3E8, symBinAddr: 0x10001AC18, symSize: 0x90 }
  - { offsetInCU: 0x198CE, offset: 0x693B7, size: 0x8, addend: 0x0, symName: __ZNSt5tupleIJRKNSt7__cxx1112basic_stringIcSt11char_traitsIcESaIcEEEEEC1EOS8_, symObjAddr: 0xC478, symBinAddr: 0x10001ACA8, symSize: 0x28 }
  - { offsetInCU: 0x19926, offset: 0x6940F, size: 0x8, addend: 0x0, symName: __ZNK9__gnu_cxx13new_allocatorISt13_Rb_tree_nodeISt4pairIKNSt7__cxx1112basic_stringIcSt11char_traitsIcESaIcEEE8CommandsEEE11_M_max_sizeEv, symObjAddr: 0xC3C8, symBinAddr: 0x10001ABF8, symSize: 0x20 }
  - { offsetInCU: 0x1992E, offset: 0x69417, size: 0x8, addend: 0x0, symName: __ZN9__gnu_cxx13new_allocatorISt13_Rb_tree_nodeISt4pairIKNSt7__cxx1112basic_stringIcSt11char_traitsIcESaIcEEE8CommandsEEE8allocateEmPKv, symObjAddr: 0xC3E8, symBinAddr: 0x10001AC18, symSize: 0x90 }
  - { offsetInCU: 0x19955, offset: 0x6943E, size: 0x8, addend: 0x0, symName: __ZNSt8_Rb_treeINSt7__cxx1112basic_stringIcSt11char_traitsIcESaIcEEESt4pairIKS5_5TypesESt10_Select1stIS9_ESt4lessIS5_ESaIS9_EE14_M_create_nodeIJRKS9_EEEPSt13_Rb_tree_nodeIS9_EDpOT_, symObjAddr: 0xC2FC, symBinAddr: 0x10001ABB8, symSize: 0x40 }
  - { offsetInCU: 0x199B9, offset: 0x694A2, size: 0x8, addend: 0x0, symName: __ZNSt8_Rb_treeINSt7__cxx1112basic_stringIcSt11char_traitsIcESaIcEEESt4pairIKS5_6FieldsESt10_Select1stIS9_ESt4lessIS5_ESaIS9_EE14_M_create_nodeIJRKS9_EEEPSt13_Rb_tree_nodeIS9_EDpOT_, symObjAddr: 0xC2BC, symBinAddr: 0x10001AB78, symSize: 0x40 }
  - { offsetInCU: 0x199C1, offset: 0x694AA, size: 0x8, addend: 0x0, symName: __ZNSt8_Rb_treeINSt7__cxx1112basic_stringIcSt11char_traitsIcESaIcEEESt4pairIKS5_5TypesESt10_Select1stIS9_ESt4lessIS5_ESaIS9_EE14_M_create_nodeIJRKS9_EEEPSt13_Rb_tree_nodeIS9_EDpOT_, symObjAddr: 0xC2FC, symBinAddr: 0x10001ABB8, symSize: 0x40 }
  - { offsetInCU: 0x19A1D, offset: 0x69506, size: 0x8, addend: 0x0, symName: __ZNSt8_Rb_treeINSt7__cxx1112basic_stringIcSt11char_traitsIcESaIcEEESt4pairIKS5_8CommandsESt10_Select1stIS9_ESt4lessIS5_ESaIS9_EE14_M_create_nodeIJRKS9_EEEPSt13_Rb_tree_nodeIS9_EDpOT_, symObjAddr: 0xC27C, symBinAddr: 0x10001AB38, symSize: 0x40 }
  - { offsetInCU: 0x19A25, offset: 0x6950E, size: 0x8, addend: 0x0, symName: __ZNSt8_Rb_treeINSt7__cxx1112basic_stringIcSt11char_traitsIcESaIcEEESt4pairIKS5_6FieldsESt10_Select1stIS9_ESt4lessIS5_ESaIS9_EE14_M_create_nodeIJRKS9_EEEPSt13_Rb_tree_nodeIS9_EDpOT_, symObjAddr: 0xC2BC, symBinAddr: 0x10001AB78, symSize: 0x40 }
  - { offsetInCU: 0x19A9F, offset: 0x69588, size: 0x8, addend: 0x0, symName: __ZNSt16allocator_traitsISaISt13_Rb_tree_nodeISt4pairIKNSt7__cxx1112basic_stringIcSt11char_traitsIcESaIcEEE5TypesEEEE9constructISA_JRKSt21piecewise_construct_tSt5tupleIJOS7_EESI_IJEEEEEvRSC_PT_DpOT0_, symObjAddr: 0xBEB8, symBinAddr: 0x10001AAD0, symSize: 0x68 }
  - { offsetInCU: 0x19BCF, offset: 0x696B8, size: 0x8, addend: 0x0, symName: __ZNSt10_Head_baseILm0EONSt7__cxx1112basic_stringIcSt11char_traitsIcESaIcEEELb0EEC2IS5_EEOT_, symObjAddr: 0xBE88, symBinAddr: 0x10001AAA0, symSize: 0x30 }
  - { offsetInCU: 0x19BD7, offset: 0x696C0, size: 0x8, addend: 0x0, symName: __ZNSt16allocator_traitsISaISt13_Rb_tree_nodeISt4pairIKNSt7__cxx1112basic_stringIcSt11char_traitsIcESaIcEEE5TypesEEEE9constructISA_JRKSt21piecewise_construct_tSt5tupleIJOS7_EESI_IJEEEEEvRSC_PT_DpOT0_, symObjAddr: 0xBEB8, symBinAddr: 0x10001AAD0, symSize: 0x68 }
  - { offsetInCU: 0x19BBA, offset: 0x696A3, size: 0x8, addend: 0x0, symName: __ZNSt16allocator_traitsISaISt13_Rb_tree_nodeISt4pairIKNSt7__cxx1112basic_stringIcSt11char_traitsIcESaIcEEE6FieldsEEEE10deallocateERSC_PSB_m, symObjAddr: 0xBC70, symBinAddr: 0x10001AA70, symSize: 0x30 }
  - { offsetInCU: 0x19C14, offset: 0x696FD, size: 0x8, addend: 0x0, symName: __ZNSt16allocator_traitsISaISt13_Rb_tree_nodeISt4pairIKNSt7__cxx1112basic_stringIcSt11char_traitsIcESaIcEEE6FieldsEEEE7destroyISA_EEvRSC_PT_, symObjAddr: 0xBC48, symBinAddr: 0x10001AA48, symSize: 0x28 }
  - { offsetInCU: 0x19C1C, offset: 0x69705, size: 0x8, addend: 0x0, symName: __ZNSt16allocator_traitsISaISt13_Rb_tree_nodeISt4pairIKNSt7__cxx1112basic_stringIcSt11char_traitsIcESaIcEEE6FieldsEEEE10deallocateERSC_PSB_m, symObjAddr: 0xBC70, symBinAddr: 0x10001AA70, symSize: 0x30 }
  - { offsetInCU: 0x19C67, offset: 0x69750, size: 0x8, addend: 0x0, symName: __ZNK9__gnu_cxx16__aligned_membufISt4pairIKNSt7__cxx1112basic_stringIcSt11char_traitsIcESaIcEEE6FieldsEE6_M_ptrEv, symObjAddr: 0xBC2C, symBinAddr: 0x10001AA2C, symSize: 0x1C }
  - { offsetInCU: 0x19C6F, offset: 0x69758, size: 0x8, addend: 0x0, symName: __ZNSt16allocator_traitsISaISt13_Rb_tree_nodeISt4pairIKNSt7__cxx1112basic_stringIcSt11char_traitsIcESaIcEEE6FieldsEEEE7destroyISA_EEvRSC_PT_, symObjAddr: 0xBC48, symBinAddr: 0x10001AA48, symSize: 0x28 }
  - { offsetInCU: 0x19D7B, offset: 0x69864, size: 0x8, addend: 0x0, symName: __ZNSt4pairIPSt18_Rb_tree_node_baseS1_EC1IRPSt13_Rb_tree_nodeIS_IKNSt7__cxx1112basic_stringIcSt11char_traitsIcESaIcEEE6FieldsEERS1_Lb1EEEOT_OT0_, symObjAddr: 0xBBE4, symBinAddr: 0x10001A9E4, symSize: 0x48 }
  - { offsetInCU: 0x19D83, offset: 0x6986C, size: 0x8, addend: 0x0, symName: __ZNK9__gnu_cxx16__aligned_membufISt4pairIKNSt7__cxx1112basic_stringIcSt11char_traitsIcESaIcEEE6FieldsEE6_M_ptrEv, symObjAddr: 0xBC2C, symBinAddr: 0x10001AA2C, symSize: 0x1C }
  - { offsetInCU: 0x19D4B, offset: 0x69834, size: 0x8, addend: 0x0, symName: __ZNSt8_Rb_treeINSt7__cxx1112basic_stringIcSt11char_traitsIcESaIcEEESt4pairIKS5_6FieldsESt10_Select1stIS9_ESt4lessIS5_ESaIS9_EE5beginEv, symObjAddr: 0xBBBC, symBinAddr: 0x10001A9BC, symSize: 0x28 }
  - { offsetInCU: 0x19D53, offset: 0x6983C, size: 0x8, addend: 0x0, symName: __ZNSt4pairIPSt18_Rb_tree_node_baseS1_EC1IRPSt13_Rb_tree_nodeIS_IKNSt7__cxx1112basic_stringIcSt11char_traitsIcESaIcEEE6FieldsEERS1_Lb1EEEOT_OT0_, symObjAddr: 0xBBE4, symBinAddr: 0x10001A9E4, symSize: 0x48 }
  - { offsetInCU: 0x19D7A, offset: 0x69863, size: 0x8, addend: 0x0, symName: __ZNSt16allocator_traitsISaISt13_Rb_tree_nodeISt4pairIKNSt7__cxx1112basic_stringIcSt11char_traitsIcESaIcEEE6FieldsEEEE9constructISA_JRKSt21piecewise_construct_tSt5tupleIJRS8_EESI_IJEEEEEvRSC_PT_DpOT0_, symObjAddr: 0xBB54, symBinAddr: 0x10001A954, symSize: 0x68 }
  - { offsetInCU: 0x19D82, offset: 0x6986B, size: 0x8, addend: 0x0, symName: __ZNSt8_Rb_treeINSt7__cxx1112basic_stringIcSt11char_traitsIcESaIcEEESt4pairIKS5_6FieldsESt10_Select1stIS9_ESt4lessIS5_ESaIS9_EE5beginEv, symObjAddr: 0xBBBC, symBinAddr: 0x10001A9BC, symSize: 0x28 }
  - { offsetInCU: 0x19E18, offset: 0x69901, size: 0x8, addend: 0x0, symName: __ZNSt16allocator_traitsISaISt13_Rb_tree_nodeISt4pairIKNSt7__cxx1112basic_stringIcSt11char_traitsIcESaIcEEE6FieldsEEEE8allocateERSC_m, symObjAddr: 0xBB2C, symBinAddr: 0x10001A92C, symSize: 0x28 }
  - { offsetInCU: 0x19E20, offset: 0x69909, size: 0x8, addend: 0x0, symName: __ZNSt16allocator_traitsISaISt13_Rb_tree_nodeISt4pairIKNSt7__cxx1112basic_stringIcSt11char_traitsIcESaIcEEE6FieldsEEEE9constructISA_JRKSt21piecewise_construct_tSt5tupleIJRS8_EESI_IJEEEEEvRSC_PT_DpOT0_, symObjAddr: 0xBB54, symBinAddr: 0x10001A954, symSize: 0x68 }
  - { offsetInCU: 0x19E5E, offset: 0x69947, size: 0x8, addend: 0x0, symName: __ZNSt8_Rb_treeINSt7__cxx1112basic_stringIcSt11char_traitsIcESaIcEEESt4pairIKS5_6FieldsESt10_Select1stIS9_ESt4lessIS5_ESaIS9_EE21_M_get_Node_allocatorEv, symObjAddr: 0xBB18, symBinAddr: 0x10001A918, symSize: 0x14 }
  - { offsetInCU: 0x19E66, offset: 0x6994F, size: 0x8, addend: 0x0, symName: __ZNSt16allocator_traitsISaISt13_Rb_tree_nodeISt4pairIKNSt7__cxx1112basic_stringIcSt11char_traitsIcESaIcEEE6FieldsEEEE8allocateERSC_m, symObjAddr: 0xBB2C, symBinAddr: 0x10001A92C, symSize: 0x28 }
  - { offsetInCU: 0x19E91, offset: 0x6997A, size: 0x8, addend: 0x0, symName: __ZN9__gnu_cxx16__aligned_membufISt4pairIKNSt7__cxx1112basic_stringIcSt11char_traitsIcESaIcEEE6FieldsEE7_M_addrEv, symObjAddr: 0xBB04, symBinAddr: 0x10001A904, symSize: 0x14 }
  - { offsetInCU: 0x19E99, offset: 0x69982, size: 0x8, addend: 0x0, symName: __ZNSt8_Rb_treeINSt7__cxx1112basic_stringIcSt11char_traitsIcESaIcEEESt4pairIKS5_6FieldsESt10_Select1stIS9_ESt4lessIS5_ESaIS9_EE21_M_get_Node_allocatorEv, symObjAddr: 0xBB18, symBinAddr: 0x10001A918, symSize: 0x14 }
  - { offsetInCU: 0x19EC4, offset: 0x699AD, size: 0x8, addend: 0x0, symName: __ZNSt16allocator_traitsISaISt13_Rb_tree_nodeISt4pairIKNSt7__cxx1112basic_stringIcSt11char_traitsIcESaIcEEE5TypesEEEE10deallocateERSC_PSB_m, symObjAddr: 0xBAD4, symBinAddr: 0x10001A8D4, symSize: 0x30 }
  - { offsetInCU: 0x19ECC, offset: 0x699B5, size: 0x8, addend: 0x0, symName: __ZN9__gnu_cxx16__aligned_membufISt4pairIKNSt7__cxx1112basic_stringIcSt11char_traitsIcESaIcEEE6FieldsEE7_M_addrEv, symObjAddr: 0xBB04, symBinAddr: 0x10001A904, symSize: 0x14 }
  - { offsetInCU: 0x19F1E, offset: 0x69A07, size: 0x8, addend: 0x0, symName: __ZNSt16allocator_traitsISaISt13_Rb_tree_nodeISt4pairIKNSt7__cxx1112basic_stringIcSt11char_traitsIcESaIcEEE5TypesEEEE7destroyISA_EEvRSC_PT_, symObjAddr: 0xBAAC, symBinAddr: 0x10001A8AC, symSize: 0x28 }
  - { offsetInCU: 0x19F26, offset: 0x69A0F, size: 0x8, addend: 0x0, symName: __ZNSt16allocator_traitsISaISt13_Rb_tree_nodeISt4pairIKNSt7__cxx1112basic_stringIcSt11char_traitsIcESaIcEEE5TypesEEEE10deallocateERSC_PSB_m, symObjAddr: 0xBAD4, symBinAddr: 0x10001A8D4, symSize: 0x30 }
  - { offsetInCU: 0x19F71, offset: 0x69A5A, size: 0x8, addend: 0x0, symName: __ZNK9__gnu_cxx16__aligned_membufISt4pairIKNSt7__cxx1112basic_stringIcSt11char_traitsIcESaIcEEE5TypesEE6_M_ptrEv, symObjAddr: 0xBA90, symBinAddr: 0x10001A890, symSize: 0x1C }
  - { offsetInCU: 0x19F79, offset: 0x69A62, size: 0x8, addend: 0x0, symName: __ZNSt16allocator_traitsISaISt13_Rb_tree_nodeISt4pairIKNSt7__cxx1112basic_stringIcSt11char_traitsIcESaIcEEE5TypesEEEE7destroyISA_EEvRSC_PT_, symObjAddr: 0xBAAC, symBinAddr: 0x10001A8AC, symSize: 0x28 }
  - { offsetInCU: 0x1A084, offset: 0x69B6D, size: 0x8, addend: 0x0, symName: __ZNSt4pairIPSt18_Rb_tree_node_baseS1_EC1IRPSt13_Rb_tree_nodeIS_IKNSt7__cxx1112basic_stringIcSt11char_traitsIcESaIcEEE5TypesEERS1_Lb1EEEOT_OT0_, symObjAddr: 0xBA48, symBinAddr: 0x10001A848, symSize: 0x48 }
  - { offsetInCU: 0x1A08C, offset: 0x69B75, size: 0x8, addend: 0x0, symName: __ZNK9__gnu_cxx16__aligned_membufISt4pairIKNSt7__cxx1112basic_stringIcSt11char_traitsIcESaIcEEE5TypesEE6_M_ptrEv, symObjAddr: 0xBA90, symBinAddr: 0x10001A890, symSize: 0x1C }
  - { offsetInCU: 0x1A055, offset: 0x69B3E, size: 0x8, addend: 0x0, symName: __ZNSt8_Rb_treeINSt7__cxx1112basic_stringIcSt11char_traitsIcESaIcEEESt4pairIKS5_5TypesESt10_Select1stIS9_ESt4lessIS5_ESaIS9_EE5beginEv, symObjAddr: 0xBA20, symBinAddr: 0x10001A820, symSize: 0x28 }
  - { offsetInCU: 0x1A05D, offset: 0x69B46, size: 0x8, addend: 0x0, symName: __ZNSt4pairIPSt18_Rb_tree_node_baseS1_EC1IRPSt13_Rb_tree_nodeIS_IKNSt7__cxx1112basic_stringIcSt11char_traitsIcESaIcEEE5TypesEERS1_Lb1EEEOT_OT0_, symObjAddr: 0xBA48, symBinAddr: 0x10001A848, symSize: 0x48 }
  - { offsetInCU: 0x1A084, offset: 0x69B6D, size: 0x8, addend: 0x0, symName: __ZNSt16allocator_traitsISaISt13_Rb_tree_nodeISt4pairIKNSt7__cxx1112basic_stringIcSt11char_traitsIcESaIcEEE5TypesEEEE9constructISA_JRKSt21piecewise_construct_tSt5tupleIJRS8_EESI_IJEEEEEvRSC_PT_DpOT0_, symObjAddr: 0xB9B8, symBinAddr: 0x10001A7B8, symSize: 0x68 }
  - { offsetInCU: 0x1A08C, offset: 0x69B75, size: 0x8, addend: 0x0, symName: __ZNSt8_Rb_treeINSt7__cxx1112basic_stringIcSt11char_traitsIcESaIcEEESt4pairIKS5_5TypesESt10_Select1stIS9_ESt4lessIS5_ESaIS9_EE5beginEv, symObjAddr: 0xBA20, symBinAddr: 0x10001A820, symSize: 0x28 }
  - { offsetInCU: 0x1A122, offset: 0x69C0B, size: 0x8, addend: 0x0, symName: __ZNSt16allocator_traitsISaISt13_Rb_tree_nodeISt4pairIKNSt7__cxx1112basic_stringIcSt11char_traitsIcESaIcEEE5TypesEEEE8allocateERSC_m, symObjAddr: 0xB990, symBinAddr: 0x10001A790, symSize: 0x28 }
  - { offsetInCU: 0x1A12A, offset: 0x69C13, size: 0x8, addend: 0x0, symName: __ZNSt16allocator_traitsISaISt13_Rb_tree_nodeISt4pairIKNSt7__cxx1112basic_stringIcSt11char_traitsIcESaIcEEE5TypesEEEE9constructISA_JRKSt21piecewise_construct_tSt5tupleIJRS8_EESI_IJEEEEEvRSC_PT_DpOT0_, symObjAddr: 0xB9B8, symBinAddr: 0x10001A7B8, symSize: 0x68 }
  - { offsetInCU: 0x1A168, offset: 0x69C51, size: 0x8, addend: 0x0, symName: __ZNSt8_Rb_treeINSt7__cxx1112basic_stringIcSt11char_traitsIcESaIcEEESt4pairIKS5_5TypesESt10_Select1stIS9_ESt4lessIS5_ESaIS9_EE21_M_get_Node_allocatorEv, symObjAddr: 0xB97C, symBinAddr: 0x10001A77C, symSize: 0x14 }
  - { offsetInCU: 0x1A170, offset: 0x69C59, size: 0x8, addend: 0x0, symName: __ZNSt16allocator_traitsISaISt13_Rb_tree_nodeISt4pairIKNSt7__cxx1112basic_stringIcSt11char_traitsIcESaIcEEE5TypesEEEE8allocateERSC_m, symObjAddr: 0xB990, symBinAddr: 0x10001A790, symSize: 0x28 }
  - { offsetInCU: 0x1A19B, offset: 0x69C84, size: 0x8, addend: 0x0, symName: __ZN9__gnu_cxx16__aligned_membufISt4pairIKNSt7__cxx1112basic_stringIcSt11char_traitsIcESaIcEEE5TypesEE7_M_addrEv, symObjAddr: 0xB968, symBinAddr: 0x10001A768, symSize: 0x14 }
  - { offsetInCU: 0x1A1A3, offset: 0x69C8C, size: 0x8, addend: 0x0, symName: __ZNSt8_Rb_treeINSt7__cxx1112basic_stringIcSt11char_traitsIcESaIcEEESt4pairIKS5_5TypesESt10_Select1stIS9_ESt4lessIS5_ESaIS9_EE21_M_get_Node_allocatorEv, symObjAddr: 0xB97C, symBinAddr: 0x10001A77C, symSize: 0x14 }
  - { offsetInCU: 0x1A1CE, offset: 0x69CB7, size: 0x8, addend: 0x0, symName: __ZNSt16allocator_traitsISaISt13_Rb_tree_nodeISt4pairIKNSt7__cxx1112basic_stringIcSt11char_traitsIcESaIcEEE8CommandsEEEE10deallocateERSC_PSB_m, symObjAddr: 0xB938, symBinAddr: 0x10001A738, symSize: 0x30 }
  - { offsetInCU: 0x1A1D6, offset: 0x69CBF, size: 0x8, addend: 0x0, symName: __ZN9__gnu_cxx16__aligned_membufISt4pairIKNSt7__cxx1112basic_stringIcSt11char_traitsIcESaIcEEE5TypesEE7_M_addrEv, symObjAddr: 0xB968, symBinAddr: 0x10001A768, symSize: 0x14 }
  - { offsetInCU: 0x1A228, offset: 0x69D11, size: 0x8, addend: 0x0, symName: __ZNSt16allocator_traitsISaISt13_Rb_tree_nodeISt4pairIKNSt7__cxx1112basic_stringIcSt11char_traitsIcESaIcEEE8CommandsEEEE7destroyISA_EEvRSC_PT_, symObjAddr: 0xB910, symBinAddr: 0x10001A710, symSize: 0x28 }
  - { offsetInCU: 0x1A230, offset: 0x69D19, size: 0x8, addend: 0x0, symName: __ZNSt16allocator_traitsISaISt13_Rb_tree_nodeISt4pairIKNSt7__cxx1112basic_stringIcSt11char_traitsIcESaIcEEE8CommandsEEEE10deallocateERSC_PSB_m, symObjAddr: 0xB938, symBinAddr: 0x10001A738, symSize: 0x30 }
  - { offsetInCU: 0x1A27B, offset: 0x69D64, size: 0x8, addend: 0x0, symName: __ZNK9__gnu_cxx16__aligned_membufISt4pairIKNSt7__cxx1112basic_stringIcSt11char_traitsIcESaIcEEE8CommandsEE6_M_ptrEv, symObjAddr: 0xB8F4, symBinAddr: 0x10001A6F4, symSize: 0x1C }
  - { offsetInCU: 0x1A283, offset: 0x69D6C, size: 0x8, addend: 0x0, symName: __ZNSt16allocator_traitsISaISt13_Rb_tree_nodeISt4pairIKNSt7__cxx1112basic_stringIcSt11char_traitsIcESaIcEEE8CommandsEEEE7destroyISA_EEvRSC_PT_, symObjAddr: 0xB910, symBinAddr: 0x10001A710, symSize: 0x28 }
  - { offsetInCU: 0x1A391, offset: 0x69E7A, size: 0x8, addend: 0x0, symName: __ZNSt4pairIPSt18_Rb_tree_node_baseS1_EC1IRPSt13_Rb_tree_nodeIS_IKNSt7__cxx1112basic_stringIcSt11char_traitsIcESaIcEEE8CommandsEERS1_Lb1EEEOT_OT0_, symObjAddr: 0xB8AC, symBinAddr: 0x10001A6AC, symSize: 0x48 }
  - { offsetInCU: 0x1A399, offset: 0x69E82, size: 0x8, addend: 0x0, symName: __ZNK9__gnu_cxx16__aligned_membufISt4pairIKNSt7__cxx1112basic_stringIcSt11char_traitsIcESaIcEEE8CommandsEE6_M_ptrEv, symObjAddr: 0xB8F4, symBinAddr: 0x10001A6F4, symSize: 0x1C }
  - { offsetInCU: 0x1A35F, offset: 0x69E48, size: 0x8, addend: 0x0, symName: __ZNSt8_Rb_treeINSt7__cxx1112basic_stringIcSt11char_traitsIcESaIcEEESt4pairIKS5_8CommandsESt10_Select1stIS9_ESt4lessIS5_ESaIS9_EE5beginEv, symObjAddr: 0xB884, symBinAddr: 0x10001A684, symSize: 0x28 }
  - { offsetInCU: 0x1A367, offset: 0x69E50, size: 0x8, addend: 0x0, symName: __ZNSt4pairIPSt18_Rb_tree_node_baseS1_EC1IRPSt13_Rb_tree_nodeIS_IKNSt7__cxx1112basic_stringIcSt11char_traitsIcESaIcEEE8CommandsEERS1_Lb1EEEOT_OT0_, symObjAddr: 0xB8AC, symBinAddr: 0x10001A6AC, symSize: 0x48 }
  - { offsetInCU: 0x1A38E, offset: 0x69E77, size: 0x8, addend: 0x0, symName: __ZNSt16allocator_traitsISaISt13_Rb_tree_nodeISt4pairIKNSt7__cxx1112basic_stringIcSt11char_traitsIcESaIcEEE8CommandsEEEE9constructISA_JRKSt21piecewise_construct_tSt5tupleIJRS8_EESI_IJEEEEEvRSC_PT_DpOT0_, symObjAddr: 0xB808, symBinAddr: 0x10001A61C, symSize: 0x68 }
  - { offsetInCU: 0x1A42C, offset: 0x69F15, size: 0x8, addend: 0x0, symName: __ZNSt16allocator_traitsISaISt13_Rb_tree_nodeISt4pairIKNSt7__cxx1112basic_stringIcSt11char_traitsIcESaIcEEE8CommandsEEEE8allocateERSC_m, symObjAddr: 0xB7E0, symBinAddr: 0x10001A5F4, symSize: 0x28 }
  - { offsetInCU: 0x1A434, offset: 0x69F1D, size: 0x8, addend: 0x0, symName: __ZNSt16allocator_traitsISaISt13_Rb_tree_nodeISt4pairIKNSt7__cxx1112basic_stringIcSt11char_traitsIcESaIcEEE8CommandsEEEE9constructISA_JRKSt21piecewise_construct_tSt5tupleIJRS8_EESI_IJEEEEEvRSC_PT_DpOT0_, symObjAddr: 0xB808, symBinAddr: 0x10001A61C, symSize: 0x68 }
  - { offsetInCU: 0x1A472, offset: 0x69F5B, size: 0x8, addend: 0x0, symName: __ZNSt8_Rb_treeINSt7__cxx1112basic_stringIcSt11char_traitsIcESaIcEEESt4pairIKS5_8CommandsESt10_Select1stIS9_ESt4lessIS5_ESaIS9_EE21_M_get_Node_allocatorEv, symObjAddr: 0xB7CC, symBinAddr: 0x10001A5E0, symSize: 0x14 }
  - { offsetInCU: 0x1A47A, offset: 0x69F63, size: 0x8, addend: 0x0, symName: __ZNSt16allocator_traitsISaISt13_Rb_tree_nodeISt4pairIKNSt7__cxx1112basic_stringIcSt11char_traitsIcESaIcEEE8CommandsEEEE8allocateERSC_m, symObjAddr: 0xB7E0, symBinAddr: 0x10001A5F4, symSize: 0x28 }
  - { offsetInCU: 0x1A4A5, offset: 0x69F8E, size: 0x8, addend: 0x0, symName: __ZN9__gnu_cxx16__aligned_membufISt4pairIKNSt7__cxx1112basic_stringIcSt11char_traitsIcESaIcEEE8CommandsEE7_M_addrEv, symObjAddr: 0xB7B8, symBinAddr: 0x10001A5CC, symSize: 0x14 }
  - { offsetInCU: 0x1A4AD, offset: 0x69F96, size: 0x8, addend: 0x0, symName: __ZNSt8_Rb_treeINSt7__cxx1112basic_stringIcSt11char_traitsIcESaIcEEESt4pairIKS5_8CommandsESt10_Select1stIS9_ESt4lessIS5_ESaIS9_EE21_M_get_Node_allocatorEv, symObjAddr: 0xB7CC, symBinAddr: 0x10001A5E0, symSize: 0x14 }
  - { offsetInCU: 0x1A4E2, offset: 0x69FCB, size: 0x8, addend: 0x0, symName: __ZNSt8_Rb_treeINSt7__cxx1112basic_stringIcSt11char_traitsIcESaIcEEES5_St9_IdentityIS5_ESt4lessIS5_ESaIS5_EE13_M_clone_nodeILb0ENSB_11_Alloc_nodeEEEPSt13_Rb_tree_nodeIS5_ESG_RT0_, symObjAddr: 0xB6D0, symBinAddr: 0x10001A570, symSize: 0x5C }
  - { offsetInCU: 0x1A57B, offset: 0x6A064, size: 0x8, addend: 0x0, symName: __ZNKSt8_Rb_treeINSt7__cxx1112basic_stringIcSt11char_traitsIcESaIcEEESt4pairIKS5_5TypesESt10_Select1stIS9_ESt4lessIS5_ESaIS9_EE11_Alloc_nodeclIRKS9_EEPSt13_Rb_tree_nodeIS9_EOT_, symObjAddr: 0xB674, symBinAddr: 0x10001A534, symSize: 0x3C }
  - { offsetInCU: 0x1A66B, offset: 0x6A154, size: 0x8, addend: 0x0, symName: __ZN9__gnu_cxx13new_allocatorISt13_Rb_tree_nodeISt4pairIKNSt7__cxx1112basic_stringIcSt11char_traitsIcESaIcEEE5TypesEEEC2ERKSD_, symObjAddr: 0xB65C, symBinAddr: 0x10001A51C, symSize: 0x18 }
  - { offsetInCU: 0x1A673, offset: 0x6A15C, size: 0x8, addend: 0x0, symName: __ZNKSt8_Rb_treeINSt7__cxx1112basic_stringIcSt11char_traitsIcESaIcEEESt4pairIKS5_5TypesESt10_Select1stIS9_ESt4lessIS5_ESaIS9_EE11_Alloc_nodeclIRKS9_EEPSt13_Rb_tree_nodeIS9_EOT_, symObjAddr: 0xB674, symBinAddr: 0x10001A534, symSize: 0x3C }
  - { offsetInCU: 0x1A63A, offset: 0x6A123, size: 0x8, addend: 0x0, symName: __ZNKSt8_Rb_treeINSt7__cxx1112basic_stringIcSt11char_traitsIcESaIcEEESt4pairIKS5_6FieldsESt10_Select1stIS9_ESt4lessIS5_ESaIS9_EE11_Alloc_nodeclIRKS9_EEPSt13_Rb_tree_nodeIS9_EOT_, symObjAddr: 0xB620, symBinAddr: 0x10001A4E0, symSize: 0x3C }
  - { offsetInCU: 0x1A642, offset: 0x6A12B, size: 0x8, addend: 0x0, symName: __ZN9__gnu_cxx13new_allocatorISt13_Rb_tree_nodeISt4pairIKNSt7__cxx1112basic_stringIcSt11char_traitsIcESaIcEEE5TypesEEEC2ERKSD_, symObjAddr: 0xB65C, symBinAddr: 0x10001A51C, symSize: 0x18 }
  - { offsetInCU: 0x1A72B, offset: 0x6A214, size: 0x8, addend: 0x0, symName: __ZN9__gnu_cxx13new_allocatorISt13_Rb_tree_nodeISt4pairIKNSt7__cxx1112basic_stringIcSt11char_traitsIcESaIcEEE6FieldsEEEC2ERKSD_, symObjAddr: 0xB608, symBinAddr: 0x10001A4C8, symSize: 0x18 }
  - { offsetInCU: 0x1A733, offset: 0x6A21C, size: 0x8, addend: 0x0, symName: __ZNKSt8_Rb_treeINSt7__cxx1112basic_stringIcSt11char_traitsIcESaIcEEESt4pairIKS5_6FieldsESt10_Select1stIS9_ESt4lessIS5_ESaIS9_EE11_Alloc_nodeclIRKS9_EEPSt13_Rb_tree_nodeIS9_EOT_, symObjAddr: 0xB620, symBinAddr: 0x10001A4E0, symSize: 0x3C }
  - { offsetInCU: 0x1A6F9, offset: 0x6A1E2, size: 0x8, addend: 0x0, symName: __ZNKSt8_Rb_treeINSt7__cxx1112basic_stringIcSt11char_traitsIcESaIcEEESt4pairIKS5_8CommandsESt10_Select1stIS9_ESt4lessIS5_ESaIS9_EE11_Alloc_nodeclIRKS9_EEPSt13_Rb_tree_nodeIS9_EOT_, symObjAddr: 0xB5CC, symBinAddr: 0x10001A48C, symSize: 0x3C }
  - { offsetInCU: 0x1A701, offset: 0x6A1EA, size: 0x8, addend: 0x0, symName: __ZN9__gnu_cxx13new_allocatorISt13_Rb_tree_nodeISt4pairIKNSt7__cxx1112basic_stringIcSt11char_traitsIcESaIcEEE6FieldsEEEC2ERKSD_, symObjAddr: 0xB608, symBinAddr: 0x10001A4C8, symSize: 0x18 }
  - { offsetInCU: 0x1A7EC, offset: 0x6A2D5, size: 0x8, addend: 0x0, symName: __ZN9__gnu_cxx13new_allocatorISt13_Rb_tree_nodeISt4pairIKNSt7__cxx1112basic_stringIcSt11char_traitsIcESaIcEEE8CommandsEEEC2ERKSD_, symObjAddr: 0xB5B4, symBinAddr: 0x10001A474, symSize: 0x18 }
  - { offsetInCU: 0x1A7F4, offset: 0x6A2DD, size: 0x8, addend: 0x0, symName: __ZNKSt8_Rb_treeINSt7__cxx1112basic_stringIcSt11char_traitsIcESaIcEEESt4pairIKS5_8CommandsESt10_Select1stIS9_ESt4lessIS5_ESaIS9_EE11_Alloc_nodeclIRKS9_EEPSt13_Rb_tree_nodeIS9_EOT_, symObjAddr: 0xB5CC, symBinAddr: 0x10001A48C, symSize: 0x3C }
  - { offsetInCU: 0x1A7AF, offset: 0x6A298, size: 0x8, addend: 0x0, symName: __ZNSt8_Rb_treeINSt7__cxx1112basic_stringIcSt11char_traitsIcESaIcEEESt4pairIKS5_5TypesESt10_Select1stIS9_ESt4lessIS5_ESaIS9_EE17_M_construct_nodeIJRKSt21piecewise_construct_tSt5tupleIJOS5_EESK_IJEEEEEvPSt13_Rb_tree_nodeIS9_EDpOT_, symObjAddr: 0xB028, symBinAddr: 0x10001A3B8, symSize: 0xBC }
  - { offsetInCU: 0x1A8CF, offset: 0x6A3B8, size: 0x8, addend: 0x0, symName: __ZNSt11_Tuple_implILm0EJONSt7__cxx1112basic_stringIcSt11char_traitsIcESaIcEEEEEC2IS5_EEOT_, symObjAddr: 0xAFEC, symBinAddr: 0x10001A37C, symSize: 0x3C }
  - { offsetInCU: 0x1A8D7, offset: 0x6A3C0, size: 0x8, addend: 0x0, symName: __ZNSt8_Rb_treeINSt7__cxx1112basic_stringIcSt11char_traitsIcESaIcEEESt4pairIKS5_5TypesESt10_Select1stIS9_ESt4lessIS5_ESaIS9_EE17_M_construct_nodeIJRKSt21piecewise_construct_tSt5tupleIJOS5_EESK_IJEEEEEvPSt13_Rb_tree_nodeIS9_EDpOT_, symObjAddr: 0xB028, symBinAddr: 0x10001A3B8, symSize: 0xBC }
  - { offsetInCU: 0x1A8BB, offset: 0x6A3A4, size: 0x8, addend: 0x0, symName: __ZNSt8_Rb_treeINSt7__cxx1112basic_stringIcSt11char_traitsIcESaIcEEESt4pairIKS5_6FieldsESt10_Select1stIS9_ESt4lessIS5_ESaIS9_EE11_M_put_nodeEPSt13_Rb_tree_nodeIS9_E, symObjAddr: 0xADC8, symBinAddr: 0x10001A34C, symSize: 0x30 }
  - { offsetInCU: 0x1A8FE, offset: 0x6A3E7, size: 0x8, addend: 0x0, symName: __ZNSt8_Rb_treeINSt7__cxx1112basic_stringIcSt11char_traitsIcESaIcEEESt4pairIKS5_6FieldsESt10_Select1stIS9_ESt4lessIS5_ESaIS9_EE15_M_destroy_nodeEPSt13_Rb_tree_nodeIS9_E, symObjAddr: 0xAD84, symBinAddr: 0x10001A308, symSize: 0x44 }
  - { offsetInCU: 0x1A906, offset: 0x6A3EF, size: 0x8, addend: 0x0, symName: __ZNSt8_Rb_treeINSt7__cxx1112basic_stringIcSt11char_traitsIcESaIcEEESt4pairIKS5_6FieldsESt10_Select1stIS9_ESt4lessIS5_ESaIS9_EE11_M_put_nodeEPSt13_Rb_tree_nodeIS9_E, symObjAddr: 0xADC8, symBinAddr: 0x10001A34C, symSize: 0x30 }
  - { offsetInCU: 0x1A941, offset: 0x6A42A, size: 0x8, addend: 0x0, symName: __ZNKSt13_Rb_tree_nodeISt4pairIKNSt7__cxx1112basic_stringIcSt11char_traitsIcESaIcEEE6FieldsEE9_M_valptrEv, symObjAddr: 0xAD64, symBinAddr: 0x10001A2E8, symSize: 0x20 }
  - { offsetInCU: 0x1A949, offset: 0x6A432, size: 0x8, addend: 0x0, symName: __ZNSt8_Rb_treeINSt7__cxx1112basic_stringIcSt11char_traitsIcESaIcEEESt4pairIKS5_6FieldsESt10_Select1stIS9_ESt4lessIS5_ESaIS9_EE15_M_destroy_nodeEPSt13_Rb_tree_nodeIS9_E, symObjAddr: 0xAD84, symBinAddr: 0x10001A308, symSize: 0x44 }
  - { offsetInCU: 0x1A970, offset: 0x6A459, size: 0x8, addend: 0x0, symName: __ZNSt17_Rb_tree_iteratorISt4pairIKNSt7__cxx1112basic_stringIcSt11char_traitsIcESaIcEEE6FieldsEEppEv, symObjAddr: 0xAD34, symBinAddr: 0x10001A2B8, symSize: 0x30 }
  - { offsetInCU: 0x1A978, offset: 0x6A461, size: 0x8, addend: 0x0, symName: __ZNKSt13_Rb_tree_nodeISt4pairIKNSt7__cxx1112basic_stringIcSt11char_traitsIcESaIcEEE6FieldsEE9_M_valptrEv, symObjAddr: 0xAD64, symBinAddr: 0x10001A2E8, symSize: 0x20 }
  - { offsetInCU: 0x1A99F, offset: 0x6A488, size: 0x8, addend: 0x0, symName: __ZNSt17_Rb_tree_iteratorISt4pairIKNSt7__cxx1112basic_stringIcSt11char_traitsIcESaIcEEE6FieldsEEmmEv, symObjAddr: 0xAD04, symBinAddr: 0x10001A288, symSize: 0x30 }
  - { offsetInCU: 0x1A9A7, offset: 0x6A490, size: 0x8, addend: 0x0, symName: __ZNSt17_Rb_tree_iteratorISt4pairIKNSt7__cxx1112basic_stringIcSt11char_traitsIcESaIcEEE6FieldsEEppEv, symObjAddr: 0xAD34, symBinAddr: 0x10001A2B8, symSize: 0x30 }
  - { offsetInCU: 0x1A9CE, offset: 0x6A4B7, size: 0x8, addend: 0x0, symName: __ZNSt8_Rb_treeINSt7__cxx1112basic_stringIcSt11char_traitsIcESaIcEEESt4pairIKS5_6FieldsESt10_Select1stIS9_ESt4lessIS5_ESaIS9_EE11_M_leftmostEv, symObjAddr: 0xACEC, symBinAddr: 0x10001A270, symSize: 0x18 }
  - { offsetInCU: 0x1A9D6, offset: 0x6A4BF, size: 0x8, addend: 0x0, symName: __ZNSt17_Rb_tree_iteratorISt4pairIKNSt7__cxx1112basic_stringIcSt11char_traitsIcESaIcEEE6FieldsEEmmEv, symObjAddr: 0xAD04, symBinAddr: 0x10001A288, symSize: 0x30 }
  - { offsetInCU: 0x1A9FD, offset: 0x6A4E6, size: 0x8, addend: 0x0, symName: __ZNSt8_Rb_treeINSt7__cxx1112basic_stringIcSt11char_traitsIcESaIcEEESt4pairIKS5_6FieldsESt10_Select1stIS9_ESt4lessIS5_ESaIS9_EE24_M_get_insert_unique_posERS7_, symObjAddr: 0xAB9C, symBinAddr: 0x10001A120, symSize: 0x150 }
  - { offsetInCU: 0x1AA05, offset: 0x6A4EE, size: 0x8, addend: 0x0, symName: __ZNSt8_Rb_treeINSt7__cxx1112basic_stringIcSt11char_traitsIcESaIcEEESt4pairIKS5_6FieldsESt10_Select1stIS9_ESt4lessIS5_ESaIS9_EE11_M_leftmostEv, symObjAddr: 0xACEC, symBinAddr: 0x10001A270, symSize: 0x18 }
  - { offsetInCU: 0x1AA95, offset: 0x6A57E, size: 0x8, addend: 0x0, symName: __ZNSt8_Rb_treeINSt7__cxx1112basic_stringIcSt11char_traitsIcESaIcEEESt4pairIKS5_6FieldsESt10_Select1stIS9_ESt4lessIS5_ESaIS9_EE6_S_keyEPKSt18_Rb_tree_node_base, symObjAddr: 0xAB80, symBinAddr: 0x10001A104, symSize: 0x1C }
  - { offsetInCU: 0x1AA9D, offset: 0x6A586, size: 0x8, addend: 0x0, symName: __ZNSt8_Rb_treeINSt7__cxx1112basic_stringIcSt11char_traitsIcESaIcEEESt4pairIKS5_6FieldsESt10_Select1stIS9_ESt4lessIS5_ESaIS9_EE24_M_get_insert_unique_posERS7_, symObjAddr: 0xAB9C, symBinAddr: 0x10001A120, symSize: 0x150 }
  - { offsetInCU: 0x1AAC7, offset: 0x6A5B0, size: 0x8, addend: 0x0, symName: __ZNSt8_Rb_treeINSt7__cxx1112basic_stringIcSt11char_traitsIcESaIcEEESt4pairIKS5_6FieldsESt10_Select1stIS9_ESt4lessIS5_ESaIS9_EE12_M_rightmostEv, symObjAddr: 0xAB68, symBinAddr: 0x10001A0EC, symSize: 0x18 }
  - { offsetInCU: 0x1AACF, offset: 0x6A5B8, size: 0x8, addend: 0x0, symName: __ZNSt8_Rb_treeINSt7__cxx1112basic_stringIcSt11char_traitsIcESaIcEEESt4pairIKS5_6FieldsESt10_Select1stIS9_ESt4lessIS5_ESaIS9_EE6_S_keyEPKSt18_Rb_tree_node_base, symObjAddr: 0xAB80, symBinAddr: 0x10001A104, symSize: 0x1C }
  - { offsetInCU: 0x1AAF6, offset: 0x6A5DF, size: 0x8, addend: 0x0, symName: __ZNKSt8_Rb_treeINSt7__cxx1112basic_stringIcSt11char_traitsIcESaIcEEESt4pairIKS5_6FieldsESt10_Select1stIS9_ESt4lessIS5_ESaIS9_EE4sizeEv, symObjAddr: 0xAB50, symBinAddr: 0x10001A0D4, symSize: 0x18 }
  - { offsetInCU: 0x1AAFE, offset: 0x6A5E7, size: 0x8, addend: 0x0, symName: __ZNSt8_Rb_treeINSt7__cxx1112basic_stringIcSt11char_traitsIcESaIcEEESt4pairIKS5_6FieldsESt10_Select1stIS9_ESt4lessIS5_ESaIS9_EE12_M_rightmostEv, symObjAddr: 0xAB68, symBinAddr: 0x10001A0EC, symSize: 0x18 }
  - { offsetInCU: 0x1AB25, offset: 0x6A60E, size: 0x8, addend: 0x0, symName: __ZNKSt23_Rb_tree_const_iteratorISt4pairIKNSt7__cxx1112basic_stringIcSt11char_traitsIcESaIcEEE6FieldsEE13_M_const_castEv, symObjAddr: 0xAB28, symBinAddr: 0x10001A0AC, symSize: 0x28 }
  - { offsetInCU: 0x1AB2D, offset: 0x6A616, size: 0x8, addend: 0x0, symName: __ZNKSt8_Rb_treeINSt7__cxx1112basic_stringIcSt11char_traitsIcESaIcEEESt4pairIKS5_6FieldsESt10_Select1stIS9_ESt4lessIS5_ESaIS9_EE4sizeEv, symObjAddr: 0xAB50, symBinAddr: 0x10001A0D4, symSize: 0x18 }
  - { offsetInCU: 0x1AB54, offset: 0x6A63D, size: 0x8, addend: 0x0, symName: __ZNSt8_Rb_treeINSt7__cxx1112basic_stringIcSt11char_traitsIcESaIcEEESt4pairIKS5_6FieldsESt10_Select1stIS9_ESt4lessIS5_ESaIS9_EE17_M_construct_nodeIJRKSt21piecewise_construct_tSt5tupleIJRS7_EESK_IJEEEEEvPSt13_Rb_tree_nodeIS9_EDpOT_, symObjAddr: 0xAA6C, symBinAddr: 0x100019FF0, symSize: 0xBC }
  - { offsetInCU: 0x1AB5C, offset: 0x6A645, size: 0x8, addend: 0x0, symName: __ZNKSt23_Rb_tree_const_iteratorISt4pairIKNSt7__cxx1112basic_stringIcSt11char_traitsIcESaIcEEE6FieldsEE13_M_const_castEv, symObjAddr: 0xAB28, symBinAddr: 0x10001A0AC, symSize: 0x28 }
  - { offsetInCU: 0x1ABE2, offset: 0x6A6CB, size: 0x8, addend: 0x0, symName: __ZNSt8_Rb_treeINSt7__cxx1112basic_stringIcSt11char_traitsIcESaIcEEESt4pairIKS5_6FieldsESt10_Select1stIS9_ESt4lessIS5_ESaIS9_EE11_M_get_nodeEv, symObjAddr: 0xAA48, symBinAddr: 0x100019FCC, symSize: 0x24 }
  - { offsetInCU: 0x1ABEA, offset: 0x6A6D3, size: 0x8, addend: 0x0, symName: __ZNSt8_Rb_treeINSt7__cxx1112basic_stringIcSt11char_traitsIcESaIcEEESt4pairIKS5_6FieldsESt10_Select1stIS9_ESt4lessIS5_ESaIS9_EE17_M_construct_nodeIJRKSt21piecewise_construct_tSt5tupleIJRS7_EESK_IJEEEEEvPSt13_Rb_tree_nodeIS9_EDpOT_, symObjAddr: 0xAA6C, symBinAddr: 0x100019FF0, symSize: 0xBC }
  - { offsetInCU: 0x1AC11, offset: 0x6A6FA, size: 0x8, addend: 0x0, symName: __ZN9__gnu_cxx16__aligned_membufISt4pairIKNSt7__cxx1112basic_stringIcSt11char_traitsIcESaIcEEE6FieldsEE6_M_ptrEv, symObjAddr: 0xAA2C, symBinAddr: 0x100019FB0, symSize: 0x1C }
  - { offsetInCU: 0x1AC19, offset: 0x6A702, size: 0x8, addend: 0x0, symName: __ZNSt8_Rb_treeINSt7__cxx1112basic_stringIcSt11char_traitsIcESaIcEEESt4pairIKS5_6FieldsESt10_Select1stIS9_ESt4lessIS5_ESaIS9_EE11_M_get_nodeEv, symObjAddr: 0xAA48, symBinAddr: 0x100019FCC, symSize: 0x24 }
  - { offsetInCU: 0x1AC40, offset: 0x6A729, size: 0x8, addend: 0x0, symName: __ZNSt8_Rb_treeINSt7__cxx1112basic_stringIcSt11char_traitsIcESaIcEEESt4pairIKS5_6FieldsESt10_Select1stIS9_ESt4lessIS5_ESaIS9_EE14_M_lower_boundEPSt13_Rb_tree_nodeIS9_EPSt18_Rb_tree_node_baseRS7_, symObjAddr: 0xA990, symBinAddr: 0x100019F14, symSize: 0x9C }
  - { offsetInCU: 0x1AC48, offset: 0x6A731, size: 0x8, addend: 0x0, symName: __ZN9__gnu_cxx16__aligned_membufISt4pairIKNSt7__cxx1112basic_stringIcSt11char_traitsIcESaIcEEE6FieldsEE6_M_ptrEv, symObjAddr: 0xAA2C, symBinAddr: 0x100019FB0, symSize: 0x1C }
  - { offsetInCU: 0x1ACAB, offset: 0x6A794, size: 0x8, addend: 0x0, symName: __ZNSt8_Rb_treeINSt7__cxx1112basic_stringIcSt11char_traitsIcESaIcEEESt4pairIKS5_6FieldsESt10_Select1stIS9_ESt4lessIS5_ESaIS9_EE6_M_endEv, symObjAddr: 0xA978, symBinAddr: 0x100019EFC, symSize: 0x18 }
  - { offsetInCU: 0x1ACB3, offset: 0x6A79C, size: 0x8, addend: 0x0, symName: __ZNSt8_Rb_treeINSt7__cxx1112basic_stringIcSt11char_traitsIcESaIcEEESt4pairIKS5_6FieldsESt10_Select1stIS9_ESt4lessIS5_ESaIS9_EE14_M_lower_boundEPSt13_Rb_tree_nodeIS9_EPSt18_Rb_tree_node_baseRS7_, symObjAddr: 0xA990, symBinAddr: 0x100019F14, symSize: 0x9C }
  - { offsetInCU: 0x1ACDA, offset: 0x6A7C3, size: 0x8, addend: 0x0, symName: __ZNSt8_Rb_treeINSt7__cxx1112basic_stringIcSt11char_traitsIcESaIcEEESt4pairIKS5_5TypesESt10_Select1stIS9_ESt4lessIS5_ESaIS9_EE11_M_put_nodeEPSt13_Rb_tree_nodeIS9_E, symObjAddr: 0xA948, symBinAddr: 0x100019ECC, symSize: 0x30 }
  - { offsetInCU: 0x1ACE2, offset: 0x6A7CB, size: 0x8, addend: 0x0, symName: __ZNSt8_Rb_treeINSt7__cxx1112basic_stringIcSt11char_traitsIcESaIcEEESt4pairIKS5_6FieldsESt10_Select1stIS9_ESt4lessIS5_ESaIS9_EE6_M_endEv, symObjAddr: 0xA978, symBinAddr: 0x100019EFC, symSize: 0x18 }
  - { offsetInCU: 0x1AD1D, offset: 0x6A806, size: 0x8, addend: 0x0, symName: __ZNSt8_Rb_treeINSt7__cxx1112basic_stringIcSt11char_traitsIcESaIcEEESt4pairIKS5_5TypesESt10_Select1stIS9_ESt4lessIS5_ESaIS9_EE15_M_destroy_nodeEPSt13_Rb_tree_nodeIS9_E, symObjAddr: 0xA904, symBinAddr: 0x100019E88, symSize: 0x44 }
  - { offsetInCU: 0x1AD25, offset: 0x6A80E, size: 0x8, addend: 0x0, symName: __ZNSt8_Rb_treeINSt7__cxx1112basic_stringIcSt11char_traitsIcESaIcEEESt4pairIKS5_5TypesESt10_Select1stIS9_ESt4lessIS5_ESaIS9_EE11_M_put_nodeEPSt13_Rb_tree_nodeIS9_E, symObjAddr: 0xA948, symBinAddr: 0x100019ECC, symSize: 0x30 }
  - { offsetInCU: 0x1AD60, offset: 0x6A849, size: 0x8, addend: 0x0, symName: __ZNKSt13_Rb_tree_nodeISt4pairIKNSt7__cxx1112basic_stringIcSt11char_traitsIcESaIcEEE5TypesEE9_M_valptrEv, symObjAddr: 0xA8E4, symBinAddr: 0x100019E68, symSize: 0x20 }
  - { offsetInCU: 0x1AD68, offset: 0x6A851, size: 0x8, addend: 0x0, symName: __ZNSt8_Rb_treeINSt7__cxx1112basic_stringIcSt11char_traitsIcESaIcEEESt4pairIKS5_5TypesESt10_Select1stIS9_ESt4lessIS5_ESaIS9_EE15_M_destroy_nodeEPSt13_Rb_tree_nodeIS9_E, symObjAddr: 0xA904, symBinAddr: 0x100019E88, symSize: 0x44 }
  - { offsetInCU: 0x1AD8F, offset: 0x6A878, size: 0x8, addend: 0x0, symName: __ZNSt17_Rb_tree_iteratorISt4pairIKNSt7__cxx1112basic_stringIcSt11char_traitsIcESaIcEEE5TypesEEppEv, symObjAddr: 0xA8B4, symBinAddr: 0x100019E38, symSize: 0x30 }
  - { offsetInCU: 0x1AD97, offset: 0x6A880, size: 0x8, addend: 0x0, symName: __ZNKSt13_Rb_tree_nodeISt4pairIKNSt7__cxx1112basic_stringIcSt11char_traitsIcESaIcEEE5TypesEE9_M_valptrEv, symObjAddr: 0xA8E4, symBinAddr: 0x100019E68, symSize: 0x20 }
  - { offsetInCU: 0x1ADBE, offset: 0x6A8A7, size: 0x8, addend: 0x0, symName: __ZNSt17_Rb_tree_iteratorISt4pairIKNSt7__cxx1112basic_stringIcSt11char_traitsIcESaIcEEE5TypesEEmmEv, symObjAddr: 0xA884, symBinAddr: 0x100019E08, symSize: 0x30 }
  - { offsetInCU: 0x1ADC6, offset: 0x6A8AF, size: 0x8, addend: 0x0, symName: __ZNSt17_Rb_tree_iteratorISt4pairIKNSt7__cxx1112basic_stringIcSt11char_traitsIcESaIcEEE5TypesEEppEv, symObjAddr: 0xA8B4, symBinAddr: 0x100019E38, symSize: 0x30 }
  - { offsetInCU: 0x1ADED, offset: 0x6A8D6, size: 0x8, addend: 0x0, symName: __ZNSt8_Rb_treeINSt7__cxx1112basic_stringIcSt11char_traitsIcESaIcEEESt4pairIKS5_5TypesESt10_Select1stIS9_ESt4lessIS5_ESaIS9_EE11_M_leftmostEv, symObjAddr: 0xA86C, symBinAddr: 0x100019DF0, symSize: 0x18 }
  - { offsetInCU: 0x1ADF5, offset: 0x6A8DE, size: 0x8, addend: 0x0, symName: __ZNSt17_Rb_tree_iteratorISt4pairIKNSt7__cxx1112basic_stringIcSt11char_traitsIcESaIcEEE5TypesEEmmEv, symObjAddr: 0xA884, symBinAddr: 0x100019E08, symSize: 0x30 }
  - { offsetInCU: 0x1AE1C, offset: 0x6A905, size: 0x8, addend: 0x0, symName: __ZNSt8_Rb_treeINSt7__cxx1112basic_stringIcSt11char_traitsIcESaIcEEESt4pairIKS5_5TypesESt10_Select1stIS9_ESt4lessIS5_ESaIS9_EE24_M_get_insert_unique_posERS7_, symObjAddr: 0xA71C, symBinAddr: 0x100019CA0, symSize: 0x150 }
  - { offsetInCU: 0x1AE24, offset: 0x6A90D, size: 0x8, addend: 0x0, symName: __ZNSt8_Rb_treeINSt7__cxx1112basic_stringIcSt11char_traitsIcESaIcEEESt4pairIKS5_5TypesESt10_Select1stIS9_ESt4lessIS5_ESaIS9_EE11_M_leftmostEv, symObjAddr: 0xA86C, symBinAddr: 0x100019DF0, symSize: 0x18 }
  - { offsetInCU: 0x1AEB4, offset: 0x6A99D, size: 0x8, addend: 0x0, symName: __ZNSt8_Rb_treeINSt7__cxx1112basic_stringIcSt11char_traitsIcESaIcEEESt4pairIKS5_5TypesESt10_Select1stIS9_ESt4lessIS5_ESaIS9_EE6_S_keyEPKSt18_Rb_tree_node_base, symObjAddr: 0xA700, symBinAddr: 0x100019C84, symSize: 0x1C }
  - { offsetInCU: 0x1AEBC, offset: 0x6A9A5, size: 0x8, addend: 0x0, symName: __ZNSt8_Rb_treeINSt7__cxx1112basic_stringIcSt11char_traitsIcESaIcEEESt4pairIKS5_5TypesESt10_Select1stIS9_ESt4lessIS5_ESaIS9_EE24_M_get_insert_unique_posERS7_, symObjAddr: 0xA71C, symBinAddr: 0x100019CA0, symSize: 0x150 }
  - { offsetInCU: 0x1AEE6, offset: 0x6A9CF, size: 0x8, addend: 0x0, symName: __ZNSt8_Rb_treeINSt7__cxx1112basic_stringIcSt11char_traitsIcESaIcEEESt4pairIKS5_5TypesESt10_Select1stIS9_ESt4lessIS5_ESaIS9_EE12_M_rightmostEv, symObjAddr: 0xA6E8, symBinAddr: 0x100019C6C, symSize: 0x18 }
  - { offsetInCU: 0x1AEEE, offset: 0x6A9D7, size: 0x8, addend: 0x0, symName: __ZNSt8_Rb_treeINSt7__cxx1112basic_stringIcSt11char_traitsIcESaIcEEESt4pairIKS5_5TypesESt10_Select1stIS9_ESt4lessIS5_ESaIS9_EE6_S_keyEPKSt18_Rb_tree_node_base, symObjAddr: 0xA700, symBinAddr: 0x100019C84, symSize: 0x1C }
  - { offsetInCU: 0x1AF15, offset: 0x6A9FE, size: 0x8, addend: 0x0, symName: __ZNKSt8_Rb_treeINSt7__cxx1112basic_stringIcSt11char_traitsIcESaIcEEESt4pairIKS5_5TypesESt10_Select1stIS9_ESt4lessIS5_ESaIS9_EE4sizeEv, symObjAddr: 0xA6D0, symBinAddr: 0x100019C54, symSize: 0x18 }
  - { offsetInCU: 0x1AF1D, offset: 0x6AA06, size: 0x8, addend: 0x0, symName: __ZNSt8_Rb_treeINSt7__cxx1112basic_stringIcSt11char_traitsIcESaIcEEESt4pairIKS5_5TypesESt10_Select1stIS9_ESt4lessIS5_ESaIS9_EE12_M_rightmostEv, symObjAddr: 0xA6E8, symBinAddr: 0x100019C6C, symSize: 0x18 }
  - { offsetInCU: 0x1AF44, offset: 0x6AA2D, size: 0x8, addend: 0x0, symName: __ZNKSt23_Rb_tree_const_iteratorISt4pairIKNSt7__cxx1112basic_stringIcSt11char_traitsIcESaIcEEE5TypesEE13_M_const_castEv, symObjAddr: 0xA6A8, symBinAddr: 0x100019C2C, symSize: 0x28 }
  - { offsetInCU: 0x1AF4C, offset: 0x6AA35, size: 0x8, addend: 0x0, symName: __ZNKSt8_Rb_treeINSt7__cxx1112basic_stringIcSt11char_traitsIcESaIcEEESt4pairIKS5_5TypesESt10_Select1stIS9_ESt4lessIS5_ESaIS9_EE4sizeEv, symObjAddr: 0xA6D0, symBinAddr: 0x100019C54, symSize: 0x18 }
  - { offsetInCU: 0x1AF73, offset: 0x6AA5C, size: 0x8, addend: 0x0, symName: __ZNSt8_Rb_treeINSt7__cxx1112basic_stringIcSt11char_traitsIcESaIcEEESt4pairIKS5_5TypesESt10_Select1stIS9_ESt4lessIS5_ESaIS9_EE17_M_construct_nodeIJRKSt21piecewise_construct_tSt5tupleIJRS7_EESK_IJEEEEEvPSt13_Rb_tree_nodeIS9_EDpOT_, symObjAddr: 0xA5EC, symBinAddr: 0x100019B70, symSize: 0xBC }
  - { offsetInCU: 0x1AF7B, offset: 0x6AA64, size: 0x8, addend: 0x0, symName: __ZNKSt23_Rb_tree_const_iteratorISt4pairIKNSt7__cxx1112basic_stringIcSt11char_traitsIcESaIcEEE5TypesEE13_M_const_castEv, symObjAddr: 0xA6A8, symBinAddr: 0x100019C2C, symSize: 0x28 }
  - { offsetInCU: 0x1B001, offset: 0x6AAEA, size: 0x8, addend: 0x0, symName: __ZNSt8_Rb_treeINSt7__cxx1112basic_stringIcSt11char_traitsIcESaIcEEESt4pairIKS5_5TypesESt10_Select1stIS9_ESt4lessIS5_ESaIS9_EE11_M_get_nodeEv, symObjAddr: 0xA5C8, symBinAddr: 0x100019B4C, symSize: 0x24 }
  - { offsetInCU: 0x1B009, offset: 0x6AAF2, size: 0x8, addend: 0x0, symName: __ZNSt8_Rb_treeINSt7__cxx1112basic_stringIcSt11char_traitsIcESaIcEEESt4pairIKS5_5TypesESt10_Select1stIS9_ESt4lessIS5_ESaIS9_EE17_M_construct_nodeIJRKSt21piecewise_construct_tSt5tupleIJRS7_EESK_IJEEEEEvPSt13_Rb_tree_nodeIS9_EDpOT_, symObjAddr: 0xA5EC, symBinAddr: 0x100019B70, symSize: 0xBC }
  - { offsetInCU: 0x1B030, offset: 0x6AB19, size: 0x8, addend: 0x0, symName: __ZN9__gnu_cxx16__aligned_membufISt4pairIKNSt7__cxx1112basic_stringIcSt11char_traitsIcESaIcEEE5TypesEE6_M_ptrEv, symObjAddr: 0xA5AC, symBinAddr: 0x100019B30, symSize: 0x1C }
  - { offsetInCU: 0x1B038, offset: 0x6AB21, size: 0x8, addend: 0x0, symName: __ZNSt8_Rb_treeINSt7__cxx1112basic_stringIcSt11char_traitsIcESaIcEEESt4pairIKS5_5TypesESt10_Select1stIS9_ESt4lessIS5_ESaIS9_EE11_M_get_nodeEv, symObjAddr: 0xA5C8, symBinAddr: 0x100019B4C, symSize: 0x24 }
  - { offsetInCU: 0x1B05F, offset: 0x6AB48, size: 0x8, addend: 0x0, symName: __ZNSt8_Rb_treeINSt7__cxx1112basic_stringIcSt11char_traitsIcESaIcEEESt4pairIKS5_5TypesESt10_Select1stIS9_ESt4lessIS5_ESaIS9_EE14_M_lower_boundEPSt13_Rb_tree_nodeIS9_EPSt18_Rb_tree_node_baseRS7_, symObjAddr: 0xA510, symBinAddr: 0x100019A94, symSize: 0x9C }
  - { offsetInCU: 0x1B067, offset: 0x6AB50, size: 0x8, addend: 0x0, symName: __ZN9__gnu_cxx16__aligned_membufISt4pairIKNSt7__cxx1112basic_stringIcSt11char_traitsIcESaIcEEE5TypesEE6_M_ptrEv, symObjAddr: 0xA5AC, symBinAddr: 0x100019B30, symSize: 0x1C }
  - { offsetInCU: 0x1B0CA, offset: 0x6ABB3, size: 0x8, addend: 0x0, symName: __ZNSt8_Rb_treeINSt7__cxx1112basic_stringIcSt11char_traitsIcESaIcEEESt4pairIKS5_5TypesESt10_Select1stIS9_ESt4lessIS5_ESaIS9_EE6_M_endEv, symObjAddr: 0xA4F8, symBinAddr: 0x100019A7C, symSize: 0x18 }
  - { offsetInCU: 0x1B0D2, offset: 0x6ABBB, size: 0x8, addend: 0x0, symName: __ZNSt8_Rb_treeINSt7__cxx1112basic_stringIcSt11char_traitsIcESaIcEEESt4pairIKS5_5TypesESt10_Select1stIS9_ESt4lessIS5_ESaIS9_EE14_M_lower_boundEPSt13_Rb_tree_nodeIS9_EPSt18_Rb_tree_node_baseRS7_, symObjAddr: 0xA510, symBinAddr: 0x100019A94, symSize: 0x9C }
  - { offsetInCU: 0x1B0F9, offset: 0x6ABE2, size: 0x8, addend: 0x0, symName: __ZNSt8_Rb_treeINSt7__cxx1112basic_stringIcSt11char_traitsIcESaIcEEESt4pairIKS5_8CommandsESt10_Select1stIS9_ESt4lessIS5_ESaIS9_EE11_M_put_nodeEPSt13_Rb_tree_nodeIS9_E, symObjAddr: 0xA4C8, symBinAddr: 0x100019A4C, symSize: 0x30 }
  - { offsetInCU: 0x1B101, offset: 0x6ABEA, size: 0x8, addend: 0x0, symName: __ZNSt8_Rb_treeINSt7__cxx1112basic_stringIcSt11char_traitsIcESaIcEEESt4pairIKS5_5TypesESt10_Select1stIS9_ESt4lessIS5_ESaIS9_EE6_M_endEv, symObjAddr: 0xA4F8, symBinAddr: 0x100019A7C, symSize: 0x18 }
  - { offsetInCU: 0x1B13C, offset: 0x6AC25, size: 0x8, addend: 0x0, symName: __ZNSt8_Rb_treeINSt7__cxx1112basic_stringIcSt11char_traitsIcESaIcEEESt4pairIKS5_8CommandsESt10_Select1stIS9_ESt4lessIS5_ESaIS9_EE15_M_destroy_nodeEPSt13_Rb_tree_nodeIS9_E, symObjAddr: 0xA484, symBinAddr: 0x100019A08, symSize: 0x44 }
  - { offsetInCU: 0x1B144, offset: 0x6AC2D, size: 0x8, addend: 0x0, symName: __ZNSt8_Rb_treeINSt7__cxx1112basic_stringIcSt11char_traitsIcESaIcEEESt4pairIKS5_8CommandsESt10_Select1stIS9_ESt4lessIS5_ESaIS9_EE11_M_put_nodeEPSt13_Rb_tree_nodeIS9_E, symObjAddr: 0xA4C8, symBinAddr: 0x100019A4C, symSize: 0x30 }
  - { offsetInCU: 0x1B17F, offset: 0x6AC68, size: 0x8, addend: 0x0, symName: __ZNKSt13_Rb_tree_nodeISt4pairIKNSt7__cxx1112basic_stringIcSt11char_traitsIcESaIcEEE8CommandsEE9_M_valptrEv, symObjAddr: 0xA464, symBinAddr: 0x1000199E8, symSize: 0x20 }
  - { offsetInCU: 0x1B187, offset: 0x6AC70, size: 0x8, addend: 0x0, symName: __ZNSt8_Rb_treeINSt7__cxx1112basic_stringIcSt11char_traitsIcESaIcEEESt4pairIKS5_8CommandsESt10_Select1stIS9_ESt4lessIS5_ESaIS9_EE15_M_destroy_nodeEPSt13_Rb_tree_nodeIS9_E, symObjAddr: 0xA484, symBinAddr: 0x100019A08, symSize: 0x44 }
  - { offsetInCU: 0x1B1AE, offset: 0x6AC97, size: 0x8, addend: 0x0, symName: __ZNSt17_Rb_tree_iteratorISt4pairIKNSt7__cxx1112basic_stringIcSt11char_traitsIcESaIcEEE8CommandsEEppEv, symObjAddr: 0xA3F0, symBinAddr: 0x1000199B8, symSize: 0x30 }
  - { offsetInCU: 0x1B1DD, offset: 0x6ACC6, size: 0x8, addend: 0x0, symName: __ZNSt17_Rb_tree_iteratorISt4pairIKNSt7__cxx1112basic_stringIcSt11char_traitsIcESaIcEEE8CommandsEEmmEv, symObjAddr: 0xA3C0, symBinAddr: 0x100019988, symSize: 0x30 }
  - { offsetInCU: 0x1B1E5, offset: 0x6ACCE, size: 0x8, addend: 0x0, symName: __ZNSt17_Rb_tree_iteratorISt4pairIKNSt7__cxx1112basic_stringIcSt11char_traitsIcESaIcEEE8CommandsEEppEv, symObjAddr: 0xA3F0, symBinAddr: 0x1000199B8, symSize: 0x30 }
  - { offsetInCU: 0x1B20C, offset: 0x6ACF5, size: 0x8, addend: 0x0, symName: __ZNSt8_Rb_treeINSt7__cxx1112basic_stringIcSt11char_traitsIcESaIcEEESt4pairIKS5_8CommandsESt10_Select1stIS9_ESt4lessIS5_ESaIS9_EE11_M_leftmostEv, symObjAddr: 0xA360, symBinAddr: 0x100019970, symSize: 0x18 }
  - { offsetInCU: 0x1B23B, offset: 0x6AD24, size: 0x8, addend: 0x0, symName: __ZNSt8_Rb_treeINSt7__cxx1112basic_stringIcSt11char_traitsIcESaIcEEESt4pairIKS5_8CommandsESt10_Select1stIS9_ESt4lessIS5_ESaIS9_EE24_M_get_insert_unique_posERS7_, symObjAddr: 0xA210, symBinAddr: 0x100019820, symSize: 0x150 }
  - { offsetInCU: 0x1B243, offset: 0x6AD2C, size: 0x8, addend: 0x0, symName: __ZNSt8_Rb_treeINSt7__cxx1112basic_stringIcSt11char_traitsIcESaIcEEESt4pairIKS5_8CommandsESt10_Select1stIS9_ESt4lessIS5_ESaIS9_EE11_M_leftmostEv, symObjAddr: 0xA360, symBinAddr: 0x100019970, symSize: 0x18 }
  - { offsetInCU: 0x1B2D3, offset: 0x6ADBC, size: 0x8, addend: 0x0, symName: __ZNSt8_Rb_treeINSt7__cxx1112basic_stringIcSt11char_traitsIcESaIcEEESt4pairIKS5_8CommandsESt10_Select1stIS9_ESt4lessIS5_ESaIS9_EE6_S_keyEPKSt18_Rb_tree_node_base, symObjAddr: 0xA1B0, symBinAddr: 0x100019804, symSize: 0x1C }
  - { offsetInCU: 0x1B305, offset: 0x6ADEE, size: 0x8, addend: 0x0, symName: __ZNSt8_Rb_treeINSt7__cxx1112basic_stringIcSt11char_traitsIcESaIcEEESt4pairIKS5_8CommandsESt10_Select1stIS9_ESt4lessIS5_ESaIS9_EE12_M_rightmostEv, symObjAddr: 0xA198, symBinAddr: 0x1000197EC, symSize: 0x18 }
  - { offsetInCU: 0x1B30D, offset: 0x6ADF6, size: 0x8, addend: 0x0, symName: __ZNSt8_Rb_treeINSt7__cxx1112basic_stringIcSt11char_traitsIcESaIcEEESt4pairIKS5_8CommandsESt10_Select1stIS9_ESt4lessIS5_ESaIS9_EE6_S_keyEPKSt18_Rb_tree_node_base, symObjAddr: 0xA1B0, symBinAddr: 0x100019804, symSize: 0x1C }
  - { offsetInCU: 0x1B334, offset: 0x6AE1D, size: 0x8, addend: 0x0, symName: __ZNKSt8_Rb_treeINSt7__cxx1112basic_stringIcSt11char_traitsIcESaIcEEESt4pairIKS5_8CommandsESt10_Select1stIS9_ESt4lessIS5_ESaIS9_EE4sizeEv, symObjAddr: 0xA180, symBinAddr: 0x1000197D4, symSize: 0x18 }
  - { offsetInCU: 0x1B33C, offset: 0x6AE25, size: 0x8, addend: 0x0, symName: __ZNSt8_Rb_treeINSt7__cxx1112basic_stringIcSt11char_traitsIcESaIcEEESt4pairIKS5_8CommandsESt10_Select1stIS9_ESt4lessIS5_ESaIS9_EE12_M_rightmostEv, symObjAddr: 0xA198, symBinAddr: 0x1000197EC, symSize: 0x18 }
  - { offsetInCU: 0x1B363, offset: 0x6AE4C, size: 0x8, addend: 0x0, symName: __ZNKSt23_Rb_tree_const_iteratorISt4pairIKNSt7__cxx1112basic_stringIcSt11char_traitsIcESaIcEEE8CommandsEE13_M_const_castEv, symObjAddr: 0xA158, symBinAddr: 0x1000197AC, symSize: 0x28 }
  - { offsetInCU: 0x1B36B, offset: 0x6AE54, size: 0x8, addend: 0x0, symName: __ZNKSt8_Rb_treeINSt7__cxx1112basic_stringIcSt11char_traitsIcESaIcEEESt4pairIKS5_8CommandsESt10_Select1stIS9_ESt4lessIS5_ESaIS9_EE4sizeEv, symObjAddr: 0xA180, symBinAddr: 0x1000197D4, symSize: 0x18 }
  - { offsetInCU: 0x1B392, offset: 0x6AE7B, size: 0x8, addend: 0x0, symName: __ZNSt8_Rb_treeINSt7__cxx1112basic_stringIcSt11char_traitsIcESaIcEEESt4pairIKS5_8CommandsESt10_Select1stIS9_ESt4lessIS5_ESaIS9_EE17_M_construct_nodeIJRKSt21piecewise_construct_tSt5tupleIJRS7_EESK_IJEEEEEvPSt13_Rb_tree_nodeIS9_EDpOT_, symObjAddr: 0xA09C, symBinAddr: 0x1000196F0, symSize: 0xBC }
  - { offsetInCU: 0x1B39A, offset: 0x6AE83, size: 0x8, addend: 0x0, symName: __ZNKSt23_Rb_tree_const_iteratorISt4pairIKNSt7__cxx1112basic_stringIcSt11char_traitsIcESaIcEEE8CommandsEE13_M_const_castEv, symObjAddr: 0xA158, symBinAddr: 0x1000197AC, symSize: 0x28 }
  - { offsetInCU: 0x1B420, offset: 0x6AF09, size: 0x8, addend: 0x0, symName: __ZNSt8_Rb_treeINSt7__cxx1112basic_stringIcSt11char_traitsIcESaIcEEESt4pairIKS5_8CommandsESt10_Select1stIS9_ESt4lessIS5_ESaIS9_EE11_M_get_nodeEv, symObjAddr: 0xA078, symBinAddr: 0x1000196CC, symSize: 0x24 }
  - { offsetInCU: 0x1B428, offset: 0x6AF11, size: 0x8, addend: 0x0, symName: __ZNSt8_Rb_treeINSt7__cxx1112basic_stringIcSt11char_traitsIcESaIcEEESt4pairIKS5_8CommandsESt10_Select1stIS9_ESt4lessIS5_ESaIS9_EE17_M_construct_nodeIJRKSt21piecewise_construct_tSt5tupleIJRS7_EESK_IJEEEEEvPSt13_Rb_tree_nodeIS9_EDpOT_, symObjAddr: 0xA09C, symBinAddr: 0x1000196F0, symSize: 0xBC }
  - { offsetInCU: 0x1B4D0, offset: 0x6AFB9, size: 0x8, addend: 0x0, symName: __ZNSt10_Head_baseILm0ERKNSt7__cxx1112basic_stringIcSt11char_traitsIcESaIcEEELb0EEC2ES7_, symObjAddr: 0xA054, symBinAddr: 0x1000196A8, symSize: 0x24 }
  - { offsetInCU: 0x1B4D8, offset: 0x6AFC1, size: 0x8, addend: 0x0, symName: __ZNSt8_Rb_treeINSt7__cxx1112basic_stringIcSt11char_traitsIcESaIcEEESt4pairIKS5_8CommandsESt10_Select1stIS9_ESt4lessIS5_ESaIS9_EE11_M_get_nodeEv, symObjAddr: 0xA078, symBinAddr: 0x1000196CC, symSize: 0x24 }
  - { offsetInCU: 0x1B4B2, offset: 0x6AF9B, size: 0x8, addend: 0x0, symName: __ZN9__gnu_cxx16__aligned_membufISt4pairIKNSt7__cxx1112basic_stringIcSt11char_traitsIcESaIcEEE8CommandsEE6_M_ptrEv, symObjAddr: 0xA038, symBinAddr: 0x10001968C, symSize: 0x1C }
  - { offsetInCU: 0x1B4BA, offset: 0x6AFA3, size: 0x8, addend: 0x0, symName: __ZNSt10_Head_baseILm0ERKNSt7__cxx1112basic_stringIcSt11char_traitsIcESaIcEEELb0EEC2ES7_, symObjAddr: 0xA054, symBinAddr: 0x1000196A8, symSize: 0x24 }
  - { offsetInCU: 0x1B4E1, offset: 0x6AFCA, size: 0x8, addend: 0x0, symName: __ZNSt8_Rb_treeINSt7__cxx1112basic_stringIcSt11char_traitsIcESaIcEEESt4pairIKS5_8CommandsESt10_Select1stIS9_ESt4lessIS5_ESaIS9_EE14_M_lower_boundEPSt13_Rb_tree_nodeIS9_EPSt18_Rb_tree_node_baseRS7_, symObjAddr: 0x9F9C, symBinAddr: 0x1000195F0, symSize: 0x9C }
  - { offsetInCU: 0x1B4E9, offset: 0x6AFD2, size: 0x8, addend: 0x0, symName: __ZN9__gnu_cxx16__aligned_membufISt4pairIKNSt7__cxx1112basic_stringIcSt11char_traitsIcESaIcEEE8CommandsEE6_M_ptrEv, symObjAddr: 0xA038, symBinAddr: 0x10001968C, symSize: 0x1C }
  - { offsetInCU: 0x1B54C, offset: 0x6B035, size: 0x8, addend: 0x0, symName: __ZNSt8_Rb_treeINSt7__cxx1112basic_stringIcSt11char_traitsIcESaIcEEESt4pairIKS5_8CommandsESt10_Select1stIS9_ESt4lessIS5_ESaIS9_EE6_M_endEv, symObjAddr: 0x9F84, symBinAddr: 0x1000195D8, symSize: 0x18 }
  - { offsetInCU: 0x1B554, offset: 0x6B03D, size: 0x8, addend: 0x0, symName: __ZNSt8_Rb_treeINSt7__cxx1112basic_stringIcSt11char_traitsIcESaIcEEESt4pairIKS5_8CommandsESt10_Select1stIS9_ESt4lessIS5_ESaIS9_EE14_M_lower_boundEPSt13_Rb_tree_nodeIS9_EPSt18_Rb_tree_node_baseRS7_, symObjAddr: 0x9F9C, symBinAddr: 0x1000195F0, symSize: 0x9C }
  - { offsetInCU: 0x1B57B, offset: 0x6B064, size: 0x8, addend: 0x0, symName: __ZNSt8_Rb_treeINSt7__cxx1112basic_stringIcSt11char_traitsIcESaIcEEES5_St9_IdentityIS5_ESt4lessIS5_ESaIS5_EE10_S_maximumEPSt18_Rb_tree_node_base, symObjAddr: 0x9EF4, symBinAddr: 0x1000195BC, symSize: 0x1C }
  - { offsetInCU: 0x1B5AD, offset: 0x6B096, size: 0x8, addend: 0x0, symName: __ZNSt8_Rb_treeINSt7__cxx1112basic_stringIcSt11char_traitsIcESaIcEEES5_St9_IdentityIS5_ESt4lessIS5_ESaIS5_EE10_S_minimumEPSt18_Rb_tree_node_base, symObjAddr: 0x9EC0, symBinAddr: 0x1000195A0, symSize: 0x1C }
  - { offsetInCU: 0x1B5DF, offset: 0x6B0C8, size: 0x8, addend: 0x0, symName: __ZNSt8_Rb_treeINSt7__cxx1112basic_stringIcSt11char_traitsIcESaIcEEES5_St9_IdentityIS5_ESt4lessIS5_ESaIS5_EE7_M_copyILb0ENSB_11_Alloc_nodeEEEPSt13_Rb_tree_nodeIS5_ESG_PSt18_Rb_tree_node_baseRT0_, symObjAddr: 0x9D60, symBinAddr: 0x100019458, symSize: 0x148 }
  - { offsetInCU: 0x1B69F, offset: 0x6B188, size: 0x8, addend: 0x0, symName: __ZNSt16allocator_traitsISaISt13_Rb_tree_nodeINSt7__cxx1112basic_stringIcSt11char_traitsIcESaIcEEEEEE37select_on_container_copy_constructionERKS8_, symObjAddr: 0x9D18, symBinAddr: 0x100019428, symSize: 0x30 }
  - { offsetInCU: 0x1B6DB, offset: 0x6B1C4, size: 0x8, addend: 0x0, symName: __ZNSt8_Rb_treeINSt7__cxx1112basic_stringIcSt11char_traitsIcESaIcEEESt4pairIKS5_5TypesESt10_Select1stIS9_ESt4lessIS5_ESaIS9_EE10_M_insert_IRKS9_NSF_11_Alloc_nodeEEESt17_Rb_tree_iteratorIS9_EPSt18_Rb_tree_node_baseSN_OT_RT0_, symObjAddr: 0x9C00, symBinAddr: 0x100019338, symSize: 0xF0 }
  - { offsetInCU: 0x1B863, offset: 0x6B34C, size: 0x8, addend: 0x0, symName: __ZSt7forwardIRKSt4pairIKNSt7__cxx1112basic_stringIcSt11char_traitsIcESaIcEEE5TypesEEOT_RNSt16remove_referenceISC_E4typeE, symObjAddr: 0x9BEC, symBinAddr: 0x100019324, symSize: 0x14 }
  - { offsetInCU: 0x1B86B, offset: 0x6B354, size: 0x8, addend: 0x0, symName: __ZNSt8_Rb_treeINSt7__cxx1112basic_stringIcSt11char_traitsIcESaIcEEESt4pairIKS5_5TypesESt10_Select1stIS9_ESt4lessIS5_ESaIS9_EE10_M_insert_IRKS9_NSF_11_Alloc_nodeEEESt17_Rb_tree_iteratorIS9_EPSt18_Rb_tree_node_baseSN_OT_RT0_, symObjAddr: 0x9C00, symBinAddr: 0x100019338, symSize: 0xF0 }
  - { offsetInCU: 0x1B7F1, offset: 0x6B2DA, size: 0x8, addend: 0x0, symName: __ZNKSt10_Select1stISt4pairIKNSt7__cxx1112basic_stringIcSt11char_traitsIcESaIcEEE5TypesEEclERKS9_, symObjAddr: 0x9BD4, symBinAddr: 0x10001930C, symSize: 0x18 }
  - { offsetInCU: 0x1B7F9, offset: 0x6B2E2, size: 0x8, addend: 0x0, symName: __ZSt7forwardIRKSt4pairIKNSt7__cxx1112basic_stringIcSt11char_traitsIcESaIcEEE5TypesEEOT_RNSt16remove_referenceISC_E4typeE, symObjAddr: 0x9BEC, symBinAddr: 0x100019324, symSize: 0x14 }
  - { offsetInCU: 0x1B834, offset: 0x6B31D, size: 0x8, addend: 0x0, symName: __ZNKSt8_Rb_treeINSt7__cxx1112basic_stringIcSt11char_traitsIcESaIcEEESt4pairIKS5_5TypesESt10_Select1stIS9_ESt4lessIS5_ESaIS9_EE9_M_mbeginEv, symObjAddr: 0x9BBC, symBinAddr: 0x1000192F4, symSize: 0x18 }
  - { offsetInCU: 0x1B83C, offset: 0x6B325, size: 0x8, addend: 0x0, symName: __ZNKSt10_Select1stISt4pairIKNSt7__cxx1112basic_stringIcSt11char_traitsIcESaIcEEE5TypesEEclERKS9_, symObjAddr: 0x9BD4, symBinAddr: 0x10001930C, symSize: 0x18 }
  - { offsetInCU: 0x1B863, offset: 0x6B34C, size: 0x8, addend: 0x0, symName: __ZNSt8_Rb_treeINSt7__cxx1112basic_stringIcSt11char_traitsIcESaIcEEESt4pairIKS5_5TypesESt10_Select1stIS9_ESt4lessIS5_ESaIS9_EE7_S_leftEPSt18_Rb_tree_node_base, symObjAddr: 0x9BA4, symBinAddr: 0x1000192DC, symSize: 0x18 }
  - { offsetInCU: 0x1B86B, offset: 0x6B354, size: 0x8, addend: 0x0, symName: __ZNKSt8_Rb_treeINSt7__cxx1112basic_stringIcSt11char_traitsIcESaIcEEESt4pairIKS5_5TypesESt10_Select1stIS9_ESt4lessIS5_ESaIS9_EE9_M_mbeginEv, symObjAddr: 0x9BBC, symBinAddr: 0x1000192F4, symSize: 0x18 }
  - { offsetInCU: 0x1B895, offset: 0x6B37E, size: 0x8, addend: 0x0, symName: __ZNSt8_Rb_treeINSt7__cxx1112basic_stringIcSt11char_traitsIcESaIcEEESt4pairIKS5_5TypesESt10_Select1stIS9_ESt4lessIS5_ESaIS9_EE8_S_rightEPSt18_Rb_tree_node_base, symObjAddr: 0x9B8C, symBinAddr: 0x1000192C4, symSize: 0x18 }
  - { offsetInCU: 0x1B89D, offset: 0x6B386, size: 0x8, addend: 0x0, symName: __ZNSt8_Rb_treeINSt7__cxx1112basic_stringIcSt11char_traitsIcESaIcEEESt4pairIKS5_5TypesESt10_Select1stIS9_ESt4lessIS5_ESaIS9_EE7_S_leftEPSt18_Rb_tree_node_base, symObjAddr: 0x9BA4, symBinAddr: 0x1000192DC, symSize: 0x18 }
  - { offsetInCU: 0x1B957, offset: 0x6B440, size: 0x8, addend: 0x0, symName: __ZNSaISt13_Rb_tree_nodeISt4pairIKNSt7__cxx1112basic_stringIcSt11char_traitsIcESaIcEEE5TypesEEEC2ERKSB_, symObjAddr: 0x9B64, symBinAddr: 0x10001929C, symSize: 0x28 }
  - { offsetInCU: 0x1B95F, offset: 0x6B448, size: 0x8, addend: 0x0, symName: __ZNSt8_Rb_treeINSt7__cxx1112basic_stringIcSt11char_traitsIcESaIcEEESt4pairIKS5_5TypesESt10_Select1stIS9_ESt4lessIS5_ESaIS9_EE8_S_rightEPSt18_Rb_tree_node_base, symObjAddr: 0x9B8C, symBinAddr: 0x1000192C4, symSize: 0x18 }
  - { offsetInCU: 0x1BA20, offset: 0x6B509, size: 0x8, addend: 0x0, symName: __ZSt4moveIRSaISt13_Rb_tree_nodeISt4pairIKNSt7__cxx1112basic_stringIcSt11char_traitsIcESaIcEEE5TypesEEEEONSt16remove_referenceIT_E4typeEOSF_, symObjAddr: 0x9B50, symBinAddr: 0x100019288, symSize: 0x14 }
  - { offsetInCU: 0x1BA28, offset: 0x6B511, size: 0x8, addend: 0x0, symName: __ZNSaISt13_Rb_tree_nodeISt4pairIKNSt7__cxx1112basic_stringIcSt11char_traitsIcESaIcEEE5TypesEEEC2ERKSB_, symObjAddr: 0x9B64, symBinAddr: 0x10001929C, symSize: 0x28 }
  - { offsetInCU: 0x1BA1F, offset: 0x6B508, size: 0x8, addend: 0x0, symName: __ZN9__gnu_cxx13new_allocatorISt13_Rb_tree_nodeISt4pairIKNSt7__cxx1112basic_stringIcSt11char_traitsIcESaIcEEE5TypesEEED2Ev, symObjAddr: 0x9B3C, symBinAddr: 0x100019274, symSize: 0x14 }
  - { offsetInCU: 0x1BA27, offset: 0x6B510, size: 0x8, addend: 0x0, symName: __ZSt4moveIRSaISt13_Rb_tree_nodeISt4pairIKNSt7__cxx1112basic_stringIcSt11char_traitsIcESaIcEEE5TypesEEEEONSt16remove_referenceIT_E4typeEOSF_, symObjAddr: 0x9B50, symBinAddr: 0x100019288, symSize: 0x14 }
  - { offsetInCU: 0x1BA66, offset: 0x6B54F, size: 0x8, addend: 0x0, symName: __ZN9__gnu_cxx13new_allocatorISt13_Rb_tree_nodeISt4pairIKNSt7__cxx1112basic_stringIcSt11char_traitsIcESaIcEEE5TypesEEEC2Ev, symObjAddr: 0x9B28, symBinAddr: 0x100019260, symSize: 0x14 }
  - { offsetInCU: 0x1BA6E, offset: 0x6B557, size: 0x8, addend: 0x0, symName: __ZN9__gnu_cxx13new_allocatorISt13_Rb_tree_nodeISt4pairIKNSt7__cxx1112basic_stringIcSt11char_traitsIcESaIcEEE5TypesEEED2Ev, symObjAddr: 0x9B3C, symBinAddr: 0x100019274, symSize: 0x14 }
  - { offsetInCU: 0x1BA24, offset: 0x6B50D, size: 0x8, addend: 0x0, symName: __ZNSt8_Rb_treeINSt7__cxx1112basic_stringIcSt11char_traitsIcESaIcEEESt4pairIKS5_6FieldsESt10_Select1stIS9_ESt4lessIS5_ESaIS9_EE10_M_insert_IRKS9_NSF_11_Alloc_nodeEEESt17_Rb_tree_iteratorIS9_EPSt18_Rb_tree_node_baseSN_OT_RT0_, symObjAddr: 0x9A38, symBinAddr: 0x100019170, symSize: 0xF0 }
  - { offsetInCU: 0x1BA2C, offset: 0x6B515, size: 0x8, addend: 0x0, symName: __ZN9__gnu_cxx13new_allocatorISt13_Rb_tree_nodeISt4pairIKNSt7__cxx1112basic_stringIcSt11char_traitsIcESaIcEEE5TypesEEEC2Ev, symObjAddr: 0x9B28, symBinAddr: 0x100019260, symSize: 0x14 }
  - { offsetInCU: 0x1BBAE, offset: 0x6B697, size: 0x8, addend: 0x0, symName: __ZSt7forwardIRKSt4pairIKNSt7__cxx1112basic_stringIcSt11char_traitsIcESaIcEEE6FieldsEEOT_RNSt16remove_referenceISC_E4typeE, symObjAddr: 0x9A24, symBinAddr: 0x10001915C, symSize: 0x14 }
  - { offsetInCU: 0x1BBB6, offset: 0x6B69F, size: 0x8, addend: 0x0, symName: __ZNSt8_Rb_treeINSt7__cxx1112basic_stringIcSt11char_traitsIcESaIcEEESt4pairIKS5_6FieldsESt10_Select1stIS9_ESt4lessIS5_ESaIS9_EE10_M_insert_IRKS9_NSF_11_Alloc_nodeEEESt17_Rb_tree_iteratorIS9_EPSt18_Rb_tree_node_baseSN_OT_RT0_, symObjAddr: 0x9A38, symBinAddr: 0x100019170, symSize: 0xF0 }
  - { offsetInCU: 0x1BB3A, offset: 0x6B623, size: 0x8, addend: 0x0, symName: __ZNKSt10_Select1stISt4pairIKNSt7__cxx1112basic_stringIcSt11char_traitsIcESaIcEEE6FieldsEEclERKS9_, symObjAddr: 0x9A0C, symBinAddr: 0x100019144, symSize: 0x18 }
  - { offsetInCU: 0x1BB42, offset: 0x6B62B, size: 0x8, addend: 0x0, symName: __ZSt7forwardIRKSt4pairIKNSt7__cxx1112basic_stringIcSt11char_traitsIcESaIcEEE6FieldsEEOT_RNSt16remove_referenceISC_E4typeE, symObjAddr: 0x9A24, symBinAddr: 0x10001915C, symSize: 0x14 }
  - { offsetInCU: 0x1BB7D, offset: 0x6B666, size: 0x8, addend: 0x0, symName: __ZNKSt8_Rb_treeINSt7__cxx1112basic_stringIcSt11char_traitsIcESaIcEEESt4pairIKS5_6FieldsESt10_Select1stIS9_ESt4lessIS5_ESaIS9_EE9_M_mbeginEv, symObjAddr: 0x99F4, symBinAddr: 0x10001912C, symSize: 0x18 }
  - { offsetInCU: 0x1BB85, offset: 0x6B66E, size: 0x8, addend: 0x0, symName: __ZNKSt10_Select1stISt4pairIKNSt7__cxx1112basic_stringIcSt11char_traitsIcESaIcEEE6FieldsEEclERKS9_, symObjAddr: 0x9A0C, symBinAddr: 0x100019144, symSize: 0x18 }
  - { offsetInCU: 0x1BBAC, offset: 0x6B695, size: 0x8, addend: 0x0, symName: __ZNSt8_Rb_treeINSt7__cxx1112basic_stringIcSt11char_traitsIcESaIcEEESt4pairIKS5_6FieldsESt10_Select1stIS9_ESt4lessIS5_ESaIS9_EE7_S_leftEPSt18_Rb_tree_node_base, symObjAddr: 0x99DC, symBinAddr: 0x100019114, symSize: 0x18 }
  - { offsetInCU: 0x1BBB4, offset: 0x6B69D, size: 0x8, addend: 0x0, symName: __ZNKSt8_Rb_treeINSt7__cxx1112basic_stringIcSt11char_traitsIcESaIcEEESt4pairIKS5_6FieldsESt10_Select1stIS9_ESt4lessIS5_ESaIS9_EE9_M_mbeginEv, symObjAddr: 0x99F4, symBinAddr: 0x10001912C, symSize: 0x18 }
  - { offsetInCU: 0x1BBDE, offset: 0x6B6C7, size: 0x8, addend: 0x0, symName: __ZNSt8_Rb_treeINSt7__cxx1112basic_stringIcSt11char_traitsIcESaIcEEESt4pairIKS5_6FieldsESt10_Select1stIS9_ESt4lessIS5_ESaIS9_EE8_S_rightEPSt18_Rb_tree_node_base, symObjAddr: 0x99C4, symBinAddr: 0x1000190FC, symSize: 0x18 }
  - { offsetInCU: 0x1BBE6, offset: 0x6B6CF, size: 0x8, addend: 0x0, symName: __ZNSt8_Rb_treeINSt7__cxx1112basic_stringIcSt11char_traitsIcESaIcEEESt4pairIKS5_6FieldsESt10_Select1stIS9_ESt4lessIS5_ESaIS9_EE7_S_leftEPSt18_Rb_tree_node_base, symObjAddr: 0x99DC, symBinAddr: 0x100019114, symSize: 0x18 }
  - { offsetInCU: 0x1BCA1, offset: 0x6B78A, size: 0x8, addend: 0x0, symName: __ZNSaISt13_Rb_tree_nodeISt4pairIKNSt7__cxx1112basic_stringIcSt11char_traitsIcESaIcEEE6FieldsEEEC2ERKSB_, symObjAddr: 0x999C, symBinAddr: 0x1000190D4, symSize: 0x28 }
  - { offsetInCU: 0x1BCA9, offset: 0x6B792, size: 0x8, addend: 0x0, symName: __ZNSt8_Rb_treeINSt7__cxx1112basic_stringIcSt11char_traitsIcESaIcEEESt4pairIKS5_6FieldsESt10_Select1stIS9_ESt4lessIS5_ESaIS9_EE8_S_rightEPSt18_Rb_tree_node_base, symObjAddr: 0x99C4, symBinAddr: 0x1000190FC, symSize: 0x18 }
  - { offsetInCU: 0x1BD6B, offset: 0x6B854, size: 0x8, addend: 0x0, symName: __ZSt4moveIRSaISt13_Rb_tree_nodeISt4pairIKNSt7__cxx1112basic_stringIcSt11char_traitsIcESaIcEEE6FieldsEEEEONSt16remove_referenceIT_E4typeEOSF_, symObjAddr: 0x9988, symBinAddr: 0x1000190C0, symSize: 0x14 }
  - { offsetInCU: 0x1BD73, offset: 0x6B85C, size: 0x8, addend: 0x0, symName: __ZNSaISt13_Rb_tree_nodeISt4pairIKNSt7__cxx1112basic_stringIcSt11char_traitsIcESaIcEEE6FieldsEEEC2ERKSB_, symObjAddr: 0x999C, symBinAddr: 0x1000190D4, symSize: 0x28 }
  - { offsetInCU: 0x1BD69, offset: 0x6B852, size: 0x8, addend: 0x0, symName: __ZN9__gnu_cxx13new_allocatorISt13_Rb_tree_nodeISt4pairIKNSt7__cxx1112basic_stringIcSt11char_traitsIcESaIcEEE6FieldsEEED2Ev, symObjAddr: 0x9974, symBinAddr: 0x1000190AC, symSize: 0x14 }
  - { offsetInCU: 0x1BD71, offset: 0x6B85A, size: 0x8, addend: 0x0, symName: __ZSt4moveIRSaISt13_Rb_tree_nodeISt4pairIKNSt7__cxx1112basic_stringIcSt11char_traitsIcESaIcEEE6FieldsEEEEONSt16remove_referenceIT_E4typeEOSF_, symObjAddr: 0x9988, symBinAddr: 0x1000190C0, symSize: 0x14 }
  - { offsetInCU: 0x1BDB0, offset: 0x6B899, size: 0x8, addend: 0x0, symName: __ZN9__gnu_cxx13new_allocatorISt13_Rb_tree_nodeISt4pairIKNSt7__cxx1112basic_stringIcSt11char_traitsIcESaIcEEE6FieldsEEEC2Ev, symObjAddr: 0x9960, symBinAddr: 0x100019098, symSize: 0x14 }
  - { offsetInCU: 0x1BDB8, offset: 0x6B8A1, size: 0x8, addend: 0x0, symName: __ZN9__gnu_cxx13new_allocatorISt13_Rb_tree_nodeISt4pairIKNSt7__cxx1112basic_stringIcSt11char_traitsIcESaIcEEE6FieldsEEED2Ev, symObjAddr: 0x9974, symBinAddr: 0x1000190AC, symSize: 0x14 }
  - { offsetInCU: 0x1BD6D, offset: 0x6B856, size: 0x8, addend: 0x0, symName: __ZNSt8_Rb_treeINSt7__cxx1112basic_stringIcSt11char_traitsIcESaIcEEESt4pairIKS5_8CommandsESt10_Select1stIS9_ESt4lessIS5_ESaIS9_EE10_M_insert_IRKS9_NSF_11_Alloc_nodeEEESt17_Rb_tree_iteratorIS9_EPSt18_Rb_tree_node_baseSN_OT_RT0_, symObjAddr: 0x9870, symBinAddr: 0x100018FA8, symSize: 0xF0 }
  - { offsetInCU: 0x1BD75, offset: 0x6B85E, size: 0x8, addend: 0x0, symName: __ZN9__gnu_cxx13new_allocatorISt13_Rb_tree_nodeISt4pairIKNSt7__cxx1112basic_stringIcSt11char_traitsIcESaIcEEE6FieldsEEEC2Ev, symObjAddr: 0x9960, symBinAddr: 0x100019098, symSize: 0x14 }
  - { offsetInCU: 0x1BEFB, offset: 0x6B9E4, size: 0x8, addend: 0x0, symName: __ZSt7forwardIRKSt4pairIKNSt7__cxx1112basic_stringIcSt11char_traitsIcESaIcEEE8CommandsEEOT_RNSt16remove_referenceISC_E4typeE, symObjAddr: 0x985C, symBinAddr: 0x100018F94, symSize: 0x14 }
  - { offsetInCU: 0x1BF03, offset: 0x6B9EC, size: 0x8, addend: 0x0, symName: __ZNSt8_Rb_treeINSt7__cxx1112basic_stringIcSt11char_traitsIcESaIcEEESt4pairIKS5_8CommandsESt10_Select1stIS9_ESt4lessIS5_ESaIS9_EE10_M_insert_IRKS9_NSF_11_Alloc_nodeEEESt17_Rb_tree_iteratorIS9_EPSt18_Rb_tree_node_baseSN_OT_RT0_, symObjAddr: 0x9870, symBinAddr: 0x100018FA8, symSize: 0xF0 }
  - { offsetInCU: 0x1BE83, offset: 0x6B96C, size: 0x8, addend: 0x0, symName: __ZNKSt10_Select1stISt4pairIKNSt7__cxx1112basic_stringIcSt11char_traitsIcESaIcEEE8CommandsEEclERKS9_, symObjAddr: 0x9844, symBinAddr: 0x100018F7C, symSize: 0x18 }
  - { offsetInCU: 0x1BE8B, offset: 0x6B974, size: 0x8, addend: 0x0, symName: __ZSt7forwardIRKSt4pairIKNSt7__cxx1112basic_stringIcSt11char_traitsIcESaIcEEE8CommandsEEOT_RNSt16remove_referenceISC_E4typeE, symObjAddr: 0x985C, symBinAddr: 0x100018F94, symSize: 0x14 }
  - { offsetInCU: 0x1BEC6, offset: 0x6B9AF, size: 0x8, addend: 0x0, symName: __ZNKSt8_Rb_treeINSt7__cxx1112basic_stringIcSt11char_traitsIcESaIcEEESt4pairIKS5_8CommandsESt10_Select1stIS9_ESt4lessIS5_ESaIS9_EE9_M_mbeginEv, symObjAddr: 0x982C, symBinAddr: 0x100018F64, symSize: 0x18 }
  - { offsetInCU: 0x1BECE, offset: 0x6B9B7, size: 0x8, addend: 0x0, symName: __ZNKSt10_Select1stISt4pairIKNSt7__cxx1112basic_stringIcSt11char_traitsIcESaIcEEE8CommandsEEclERKS9_, symObjAddr: 0x9844, symBinAddr: 0x100018F7C, symSize: 0x18 }
  - { offsetInCU: 0x1BEF5, offset: 0x6B9DE, size: 0x8, addend: 0x0, symName: __ZNSt8_Rb_treeINSt7__cxx1112basic_stringIcSt11char_traitsIcESaIcEEESt4pairIKS5_8CommandsESt10_Select1stIS9_ESt4lessIS5_ESaIS9_EE7_S_leftEPSt18_Rb_tree_node_base, symObjAddr: 0x9814, symBinAddr: 0x100018F4C, symSize: 0x18 }
  - { offsetInCU: 0x1BEFD, offset: 0x6B9E6, size: 0x8, addend: 0x0, symName: __ZNKSt8_Rb_treeINSt7__cxx1112basic_stringIcSt11char_traitsIcESaIcEEESt4pairIKS5_8CommandsESt10_Select1stIS9_ESt4lessIS5_ESaIS9_EE9_M_mbeginEv, symObjAddr: 0x982C, symBinAddr: 0x100018F64, symSize: 0x18 }
  - { offsetInCU: 0x1BF27, offset: 0x6BA10, size: 0x8, addend: 0x0, symName: __ZNSt8_Rb_treeINSt7__cxx1112basic_stringIcSt11char_traitsIcESaIcEEESt4pairIKS5_8CommandsESt10_Select1stIS9_ESt4lessIS5_ESaIS9_EE8_S_rightEPSt18_Rb_tree_node_base, symObjAddr: 0x97FC, symBinAddr: 0x100018F34, symSize: 0x18 }
  - { offsetInCU: 0x1BF2F, offset: 0x6BA18, size: 0x8, addend: 0x0, symName: __ZNSt8_Rb_treeINSt7__cxx1112basic_stringIcSt11char_traitsIcESaIcEEESt4pairIKS5_8CommandsESt10_Select1stIS9_ESt4lessIS5_ESaIS9_EE7_S_leftEPSt18_Rb_tree_node_base, symObjAddr: 0x9814, symBinAddr: 0x100018F4C, symSize: 0x18 }
  - { offsetInCU: 0x1BFEC, offset: 0x6BAD5, size: 0x8, addend: 0x0, symName: __ZNSaISt13_Rb_tree_nodeISt4pairIKNSt7__cxx1112basic_stringIcSt11char_traitsIcESaIcEEE8CommandsEEEC2ERKSB_, symObjAddr: 0x97D4, symBinAddr: 0x100018F0C, symSize: 0x28 }
  - { offsetInCU: 0x1BFF4, offset: 0x6BADD, size: 0x8, addend: 0x0, symName: __ZNSt8_Rb_treeINSt7__cxx1112basic_stringIcSt11char_traitsIcESaIcEEESt4pairIKS5_8CommandsESt10_Select1stIS9_ESt4lessIS5_ESaIS9_EE8_S_rightEPSt18_Rb_tree_node_base, symObjAddr: 0x97FC, symBinAddr: 0x100018F34, symSize: 0x18 }
  - { offsetInCU: 0x1C0B8, offset: 0x6BBA1, size: 0x8, addend: 0x0, symName: __ZSt4moveIRSaISt13_Rb_tree_nodeISt4pairIKNSt7__cxx1112basic_stringIcSt11char_traitsIcESaIcEEE8CommandsEEEEONSt16remove_referenceIT_E4typeEOSF_, symObjAddr: 0x97C0, symBinAddr: 0x100018EF8, symSize: 0x14 }
  - { offsetInCU: 0x1C0C0, offset: 0x6BBA9, size: 0x8, addend: 0x0, symName: __ZNSaISt13_Rb_tree_nodeISt4pairIKNSt7__cxx1112basic_stringIcSt11char_traitsIcESaIcEEE8CommandsEEEC2ERKSB_, symObjAddr: 0x97D4, symBinAddr: 0x100018F0C, symSize: 0x28 }
  - { offsetInCU: 0x1C0B4, offset: 0x6BB9D, size: 0x8, addend: 0x0, symName: __ZN9__gnu_cxx13new_allocatorISt13_Rb_tree_nodeISt4pairIKNSt7__cxx1112basic_stringIcSt11char_traitsIcESaIcEEE8CommandsEEED2Ev, symObjAddr: 0x97AC, symBinAddr: 0x100018EE4, symSize: 0x14 }
  - { offsetInCU: 0x1C0BC, offset: 0x6BBA5, size: 0x8, addend: 0x0, symName: __ZSt4moveIRSaISt13_Rb_tree_nodeISt4pairIKNSt7__cxx1112basic_stringIcSt11char_traitsIcESaIcEEE8CommandsEEEEONSt16remove_referenceIT_E4typeEOSF_, symObjAddr: 0x97C0, symBinAddr: 0x100018EF8, symSize: 0x14 }
  - { offsetInCU: 0x1C0FB, offset: 0x6BBE4, size: 0x8, addend: 0x0, symName: __ZN9__gnu_cxx13new_allocatorISt13_Rb_tree_nodeISt4pairIKNSt7__cxx1112basic_stringIcSt11char_traitsIcESaIcEEE8CommandsEEEC2Ev, symObjAddr: 0x9798, symBinAddr: 0x100018ED0, symSize: 0x14 }
  - { offsetInCU: 0x1C103, offset: 0x6BBEC, size: 0x8, addend: 0x0, symName: __ZN9__gnu_cxx13new_allocatorISt13_Rb_tree_nodeISt4pairIKNSt7__cxx1112basic_stringIcSt11char_traitsIcESaIcEEE8CommandsEEED2Ev, symObjAddr: 0x97AC, symBinAddr: 0x100018EE4, symSize: 0x14 }
  - { offsetInCU: 0x1C0AC, offset: 0x6BB95, size: 0x8, addend: 0x0, symName: __ZNSt8_Rb_treeINSt7__cxx1112basic_stringIcSt11char_traitsIcESaIcEEESt4pairIKS5_5TypesESt10_Select1stIS9_ESt4lessIS5_ESaIS9_EE14_M_create_nodeIJRKSt21piecewise_construct_tSt5tupleIJOS5_EESK_IJEEEEEPSt13_Rb_tree_nodeIS9_EDpOT_, symObjAddr: 0x8FD8, symBinAddr: 0x100018E60, symSize: 0x70 }
  - { offsetInCU: 0x1C21A, offset: 0x6BD03, size: 0x8, addend: 0x0, symName: __ZSt7forwardISt5tupleIJONSt7__cxx1112basic_stringIcSt11char_traitsIcESaIcEEEEEEOT_RNSt16remove_referenceIS9_E4typeE, symObjAddr: 0x8FC4, symBinAddr: 0x100018E4C, symSize: 0x14 }
  - { offsetInCU: 0x1C222, offset: 0x6BD0B, size: 0x8, addend: 0x0, symName: __ZNSt8_Rb_treeINSt7__cxx1112basic_stringIcSt11char_traitsIcESaIcEEESt4pairIKS5_5TypesESt10_Select1stIS9_ESt4lessIS5_ESaIS9_EE14_M_create_nodeIJRKSt21piecewise_construct_tSt5tupleIJOS5_EESK_IJEEEEEPSt13_Rb_tree_nodeIS9_EDpOT_, symObjAddr: 0x8FD8, symBinAddr: 0x100018E60, symSize: 0x70 }
  - { offsetInCU: 0x1C230, offset: 0x6BD19, size: 0x8, addend: 0x0, symName: __ZNSt5tupleIJONSt7__cxx1112basic_stringIcSt11char_traitsIcESaIcEEEEEC1IJS5_ELb1ELb1EEEDpOT_, symObjAddr: 0x8F88, symBinAddr: 0x100018E10, symSize: 0x3C }
  - { offsetInCU: 0x1C238, offset: 0x6BD21, size: 0x8, addend: 0x0, symName: __ZSt7forwardISt5tupleIJONSt7__cxx1112basic_stringIcSt11char_traitsIcESaIcEEEEEEOT_RNSt16remove_referenceIS9_E4typeE, symObjAddr: 0x8FC4, symBinAddr: 0x100018E4C, symSize: 0x14 }
  - { offsetInCU: 0x1C2D6, offset: 0x6BDBF, size: 0x8, addend: 0x0, symName: __ZNSt17_Rb_tree_iteratorISt4pairIKNSt7__cxx1112basic_stringIcSt11char_traitsIcESaIcEEE6FieldsEEC1EPSt18_Rb_tree_node_base, symObjAddr: 0x8B64, symBinAddr: 0x100018DEC, symSize: 0x24 }
  - { offsetInCU: 0x1C296, offset: 0x6BD7F, size: 0x8, addend: 0x0, symName: __ZNSt8_Rb_treeINSt7__cxx1112basic_stringIcSt11char_traitsIcESaIcEEESt4pairIKS5_6FieldsESt10_Select1stIS9_ESt4lessIS5_ESaIS9_EE12_M_drop_nodeEPSt13_Rb_tree_nodeIS9_E, symObjAddr: 0x8B30, symBinAddr: 0x100018DB8, symSize: 0x34 }
  - { offsetInCU: 0x1C29E, offset: 0x6BD87, size: 0x8, addend: 0x0, symName: __ZNSt17_Rb_tree_iteratorISt4pairIKNSt7__cxx1112basic_stringIcSt11char_traitsIcESaIcEEE6FieldsEEC1EPSt18_Rb_tree_node_base, symObjAddr: 0x8B64, symBinAddr: 0x100018DEC, symSize: 0x24 }
  - { offsetInCU: 0x1C2D9, offset: 0x6BDC2, size: 0x8, addend: 0x0, symName: __ZNSt8_Rb_treeINSt7__cxx1112basic_stringIcSt11char_traitsIcESaIcEEESt4pairIKS5_6FieldsESt10_Select1stIS9_ESt4lessIS5_ESaIS9_EE14_M_insert_nodeEPSt18_Rb_tree_node_baseSH_PSt13_Rb_tree_nodeIS9_E, symObjAddr: 0x8A60, symBinAddr: 0x100018CE8, symSize: 0xD0 }
  - { offsetInCU: 0x1C2E1, offset: 0x6BDCA, size: 0x8, addend: 0x0, symName: __ZNSt8_Rb_treeINSt7__cxx1112basic_stringIcSt11char_traitsIcESaIcEEESt4pairIKS5_6FieldsESt10_Select1stIS9_ESt4lessIS5_ESaIS9_EE12_M_drop_nodeEPSt13_Rb_tree_nodeIS9_E, symObjAddr: 0x8B30, symBinAddr: 0x100018DB8, symSize: 0x34 }
  - { offsetInCU: 0x1C358, offset: 0x6BE41, size: 0x8, addend: 0x0, symName: __ZNSt8_Rb_treeINSt7__cxx1112basic_stringIcSt11char_traitsIcESaIcEEESt4pairIKS5_6FieldsESt10_Select1stIS9_ESt4lessIS5_ESaIS9_EE6_S_keyEPKSt13_Rb_tree_nodeIS9_E, symObjAddr: 0x8A38, symBinAddr: 0x100018CC0, symSize: 0x28 }
  - { offsetInCU: 0x1C360, offset: 0x6BE49, size: 0x8, addend: 0x0, symName: __ZNSt8_Rb_treeINSt7__cxx1112basic_stringIcSt11char_traitsIcESaIcEEESt4pairIKS5_6FieldsESt10_Select1stIS9_ESt4lessIS5_ESaIS9_EE14_M_insert_nodeEPSt18_Rb_tree_node_baseSH_PSt13_Rb_tree_nodeIS9_E, symObjAddr: 0x8A60, symBinAddr: 0x100018CE8, symSize: 0xD0 }
  - { offsetInCU: 0x1C38A, offset: 0x6BE73, size: 0x8, addend: 0x0, symName: __ZNSt8_Rb_treeINSt7__cxx1112basic_stringIcSt11char_traitsIcESaIcEEESt4pairIKS5_6FieldsESt10_Select1stIS9_ESt4lessIS5_ESaIS9_EE29_M_get_insert_hint_unique_posESt23_Rb_tree_const_iteratorIS9_ERS7_, symObjAddr: 0x872C, symBinAddr: 0x1000189B4, symSize: 0x30C }
  - { offsetInCU: 0x1C392, offset: 0x6BE7B, size: 0x8, addend: 0x0, symName: __ZNSt8_Rb_treeINSt7__cxx1112basic_stringIcSt11char_traitsIcESaIcEEESt4pairIKS5_6FieldsESt10_Select1stIS9_ESt4lessIS5_ESaIS9_EE6_S_keyEPKSt13_Rb_tree_nodeIS9_E, symObjAddr: 0x8A38, symBinAddr: 0x100018CC0, symSize: 0x28 }
  - { offsetInCU: 0x1C447, offset: 0x6BF30, size: 0x8, addend: 0x0, symName: __ZNSt8_Rb_treeINSt7__cxx1112basic_stringIcSt11char_traitsIcESaIcEEESt4pairIKS5_6FieldsESt10_Select1stIS9_ESt4lessIS5_ESaIS9_EE14_M_create_nodeIJRKSt21piecewise_construct_tSt5tupleIJRS7_EESK_IJEEEEEPSt13_Rb_tree_nodeIS9_EDpOT_, symObjAddr: 0x86BC, symBinAddr: 0x100018944, symSize: 0x70 }
  - { offsetInCU: 0x1C44F, offset: 0x6BF38, size: 0x8, addend: 0x0, symName: __ZNSt8_Rb_treeINSt7__cxx1112basic_stringIcSt11char_traitsIcESaIcEEESt4pairIKS5_6FieldsESt10_Select1stIS9_ESt4lessIS5_ESaIS9_EE29_M_get_insert_hint_unique_posESt23_Rb_tree_const_iteratorIS9_ERS7_, symObjAddr: 0x872C, symBinAddr: 0x1000189B4, symSize: 0x30C }
  - { offsetInCU: 0x1C4D5, offset: 0x6BFBE, size: 0x8, addend: 0x0, symName: __ZNSt13_Rb_tree_nodeISt4pairIKNSt7__cxx1112basic_stringIcSt11char_traitsIcESaIcEEE6FieldsEE9_M_valptrEv, symObjAddr: 0x869C, symBinAddr: 0x100018924, symSize: 0x20 }
  - { offsetInCU: 0x1C4DD, offset: 0x6BFC6, size: 0x8, addend: 0x0, symName: __ZNSt8_Rb_treeINSt7__cxx1112basic_stringIcSt11char_traitsIcESaIcEEESt4pairIKS5_6FieldsESt10_Select1stIS9_ESt4lessIS5_ESaIS9_EE14_M_create_nodeIJRKSt21piecewise_construct_tSt5tupleIJRS7_EESK_IJEEEEEPSt13_Rb_tree_nodeIS9_EDpOT_, symObjAddr: 0x86BC, symBinAddr: 0x100018944, symSize: 0x70 }
  - { offsetInCU: 0x1C504, offset: 0x6BFED, size: 0x8, addend: 0x0, symName: __ZNKSt8_Rb_treeINSt7__cxx1112basic_stringIcSt11char_traitsIcESaIcEEESt4pairIKS5_6FieldsESt10_Select1stIS9_ESt4lessIS5_ESaIS9_EE8key_compEv, symObjAddr: 0x8684, symBinAddr: 0x10001890C, symSize: 0x18 }
  - { offsetInCU: 0x1C50C, offset: 0x6BFF5, size: 0x8, addend: 0x0, symName: __ZNSt13_Rb_tree_nodeISt4pairIKNSt7__cxx1112basic_stringIcSt11char_traitsIcESaIcEEE6FieldsEE9_M_valptrEv, symObjAddr: 0x869C, symBinAddr: 0x100018924, symSize: 0x20 }
  - { offsetInCU: 0x1C533, offset: 0x6C01C, size: 0x8, addend: 0x0, symName: __ZNSt8_Rb_treeINSt7__cxx1112basic_stringIcSt11char_traitsIcESaIcEEESt4pairIKS5_6FieldsESt10_Select1stIS9_ESt4lessIS5_ESaIS9_EE11lower_boundERS7_, symObjAddr: 0x863C, symBinAddr: 0x1000188C4, symSize: 0x48 }
  - { offsetInCU: 0x1C53B, offset: 0x6C024, size: 0x8, addend: 0x0, symName: __ZNKSt8_Rb_treeINSt7__cxx1112basic_stringIcSt11char_traitsIcESaIcEEESt4pairIKS5_6FieldsESt10_Select1stIS9_ESt4lessIS5_ESaIS9_EE8key_compEv, symObjAddr: 0x8684, symBinAddr: 0x10001890C, symSize: 0x18 }
  - { offsetInCU: 0x1C619, offset: 0x6C102, size: 0x8, addend: 0x0, symName: __ZNSt17_Rb_tree_iteratorISt4pairIKNSt7__cxx1112basic_stringIcSt11char_traitsIcESaIcEEE5TypesEEC1EPSt18_Rb_tree_node_base, symObjAddr: 0x8618, symBinAddr: 0x1000188A0, symSize: 0x24 }
  - { offsetInCU: 0x1C621, offset: 0x6C10A, size: 0x8, addend: 0x0, symName: __ZNSt8_Rb_treeINSt7__cxx1112basic_stringIcSt11char_traitsIcESaIcEEESt4pairIKS5_6FieldsESt10_Select1stIS9_ESt4lessIS5_ESaIS9_EE11lower_boundERS7_, symObjAddr: 0x863C, symBinAddr: 0x1000188C4, symSize: 0x48 }
  - { offsetInCU: 0x1C5DA, offset: 0x6C0C3, size: 0x8, addend: 0x0, symName: __ZNSt8_Rb_treeINSt7__cxx1112basic_stringIcSt11char_traitsIcESaIcEEESt4pairIKS5_5TypesESt10_Select1stIS9_ESt4lessIS5_ESaIS9_EE12_M_drop_nodeEPSt13_Rb_tree_nodeIS9_E, symObjAddr: 0x85E4, symBinAddr: 0x10001886C, symSize: 0x34 }
  - { offsetInCU: 0x1C5E2, offset: 0x6C0CB, size: 0x8, addend: 0x0, symName: __ZNSt17_Rb_tree_iteratorISt4pairIKNSt7__cxx1112basic_stringIcSt11char_traitsIcESaIcEEE5TypesEEC1EPSt18_Rb_tree_node_base, symObjAddr: 0x8618, symBinAddr: 0x1000188A0, symSize: 0x24 }
  - { offsetInCU: 0x1C61D, offset: 0x6C106, size: 0x8, addend: 0x0, symName: __ZNSt8_Rb_treeINSt7__cxx1112basic_stringIcSt11char_traitsIcESaIcEEESt4pairIKS5_5TypesESt10_Select1stIS9_ESt4lessIS5_ESaIS9_EE14_M_insert_nodeEPSt18_Rb_tree_node_baseSH_PSt13_Rb_tree_nodeIS9_E, symObjAddr: 0x8514, symBinAddr: 0x10001879C, symSize: 0xD0 }
  - { offsetInCU: 0x1C625, offset: 0x6C10E, size: 0x8, addend: 0x0, symName: __ZNSt8_Rb_treeINSt7__cxx1112basic_stringIcSt11char_traitsIcESaIcEEESt4pairIKS5_5TypesESt10_Select1stIS9_ESt4lessIS5_ESaIS9_EE12_M_drop_nodeEPSt13_Rb_tree_nodeIS9_E, symObjAddr: 0x85E4, symBinAddr: 0x10001886C, symSize: 0x34 }
  - { offsetInCU: 0x1C69C, offset: 0x6C185, size: 0x8, addend: 0x0, symName: __ZNSt8_Rb_treeINSt7__cxx1112basic_stringIcSt11char_traitsIcESaIcEEESt4pairIKS5_5TypesESt10_Select1stIS9_ESt4lessIS5_ESaIS9_EE6_S_keyEPKSt13_Rb_tree_nodeIS9_E, symObjAddr: 0x84EC, symBinAddr: 0x100018774, symSize: 0x28 }
  - { offsetInCU: 0x1C6A4, offset: 0x6C18D, size: 0x8, addend: 0x0, symName: __ZNSt8_Rb_treeINSt7__cxx1112basic_stringIcSt11char_traitsIcESaIcEEESt4pairIKS5_5TypesESt10_Select1stIS9_ESt4lessIS5_ESaIS9_EE14_M_insert_nodeEPSt18_Rb_tree_node_baseSH_PSt13_Rb_tree_nodeIS9_E, symObjAddr: 0x8514, symBinAddr: 0x10001879C, symSize: 0xD0 }
  - { offsetInCU: 0x1C6CE, offset: 0x6C1B7, size: 0x8, addend: 0x0, symName: __ZNSt8_Rb_treeINSt7__cxx1112basic_stringIcSt11char_traitsIcESaIcEEESt4pairIKS5_5TypesESt10_Select1stIS9_ESt4lessIS5_ESaIS9_EE29_M_get_insert_hint_unique_posESt23_Rb_tree_const_iteratorIS9_ERS7_, symObjAddr: 0x81E0, symBinAddr: 0x100018468, symSize: 0x30C }
  - { offsetInCU: 0x1C6D6, offset: 0x6C1BF, size: 0x8, addend: 0x0, symName: __ZNSt8_Rb_treeINSt7__cxx1112basic_stringIcSt11char_traitsIcESaIcEEESt4pairIKS5_5TypesESt10_Select1stIS9_ESt4lessIS5_ESaIS9_EE6_S_keyEPKSt13_Rb_tree_nodeIS9_E, symObjAddr: 0x84EC, symBinAddr: 0x100018774, symSize: 0x28 }
  - { offsetInCU: 0x1C78B, offset: 0x6C274, size: 0x8, addend: 0x0, symName: __ZNSt8_Rb_treeINSt7__cxx1112basic_stringIcSt11char_traitsIcESaIcEEESt4pairIKS5_5TypesESt10_Select1stIS9_ESt4lessIS5_ESaIS9_EE14_M_create_nodeIJRKSt21piecewise_construct_tSt5tupleIJRS7_EESK_IJEEEEEPSt13_Rb_tree_nodeIS9_EDpOT_, symObjAddr: 0x8170, symBinAddr: 0x1000183F8, symSize: 0x70 }
  - { offsetInCU: 0x1C793, offset: 0x6C27C, size: 0x8, addend: 0x0, symName: __ZNSt8_Rb_treeINSt7__cxx1112basic_stringIcSt11char_traitsIcESaIcEEESt4pairIKS5_5TypesESt10_Select1stIS9_ESt4lessIS5_ESaIS9_EE29_M_get_insert_hint_unique_posESt23_Rb_tree_const_iteratorIS9_ERS7_, symObjAddr: 0x81E0, symBinAddr: 0x100018468, symSize: 0x30C }
  - { offsetInCU: 0x1C819, offset: 0x6C302, size: 0x8, addend: 0x0, symName: __ZNSt13_Rb_tree_nodeISt4pairIKNSt7__cxx1112basic_stringIcSt11char_traitsIcESaIcEEE5TypesEE9_M_valptrEv, symObjAddr: 0x8150, symBinAddr: 0x1000183D8, symSize: 0x20 }
  - { offsetInCU: 0x1C821, offset: 0x6C30A, size: 0x8, addend: 0x0, symName: __ZNSt8_Rb_treeINSt7__cxx1112basic_stringIcSt11char_traitsIcESaIcEEESt4pairIKS5_5TypesESt10_Select1stIS9_ESt4lessIS5_ESaIS9_EE14_M_create_nodeIJRKSt21piecewise_construct_tSt5tupleIJRS7_EESK_IJEEEEEPSt13_Rb_tree_nodeIS9_EDpOT_, symObjAddr: 0x8170, symBinAddr: 0x1000183F8, symSize: 0x70 }
  - { offsetInCU: 0x1C848, offset: 0x6C331, size: 0x8, addend: 0x0, symName: __ZNKSt8_Rb_treeINSt7__cxx1112basic_stringIcSt11char_traitsIcESaIcEEESt4pairIKS5_5TypesESt10_Select1stIS9_ESt4lessIS5_ESaIS9_EE8key_compEv, symObjAddr: 0x8138, symBinAddr: 0x1000183C0, symSize: 0x18 }
  - { offsetInCU: 0x1C850, offset: 0x6C339, size: 0x8, addend: 0x0, symName: __ZNSt13_Rb_tree_nodeISt4pairIKNSt7__cxx1112basic_stringIcSt11char_traitsIcESaIcEEE5TypesEE9_M_valptrEv, symObjAddr: 0x8150, symBinAddr: 0x1000183D8, symSize: 0x20 }
  - { offsetInCU: 0x1C877, offset: 0x6C360, size: 0x8, addend: 0x0, symName: __ZNSt8_Rb_treeINSt7__cxx1112basic_stringIcSt11char_traitsIcESaIcEEESt4pairIKS5_5TypesESt10_Select1stIS9_ESt4lessIS5_ESaIS9_EE11lower_boundERS7_, symObjAddr: 0x80F0, symBinAddr: 0x100018378, symSize: 0x48 }
  - { offsetInCU: 0x1C87F, offset: 0x6C368, size: 0x8, addend: 0x0, symName: __ZNKSt8_Rb_treeINSt7__cxx1112basic_stringIcSt11char_traitsIcESaIcEEESt4pairIKS5_5TypesESt10_Select1stIS9_ESt4lessIS5_ESaIS9_EE8key_compEv, symObjAddr: 0x8138, symBinAddr: 0x1000183C0, symSize: 0x18 }
  - { offsetInCU: 0x1C960, offset: 0x6C449, size: 0x8, addend: 0x0, symName: __ZNSt17_Rb_tree_iteratorISt4pairIKNSt7__cxx1112basic_stringIcSt11char_traitsIcESaIcEEE8CommandsEEC1EPSt18_Rb_tree_node_base, symObjAddr: 0x80CC, symBinAddr: 0x100018354, symSize: 0x24 }
  - { offsetInCU: 0x1C968, offset: 0x6C451, size: 0x8, addend: 0x0, symName: __ZNSt8_Rb_treeINSt7__cxx1112basic_stringIcSt11char_traitsIcESaIcEEESt4pairIKS5_5TypesESt10_Select1stIS9_ESt4lessIS5_ESaIS9_EE11lower_boundERS7_, symObjAddr: 0x80F0, symBinAddr: 0x100018378, symSize: 0x48 }
  - { offsetInCU: 0x1C91E, offset: 0x6C407, size: 0x8, addend: 0x0, symName: __ZNSt8_Rb_treeINSt7__cxx1112basic_stringIcSt11char_traitsIcESaIcEEESt4pairIKS5_8CommandsESt10_Select1stIS9_ESt4lessIS5_ESaIS9_EE12_M_drop_nodeEPSt13_Rb_tree_nodeIS9_E, symObjAddr: 0x8098, symBinAddr: 0x100018320, symSize: 0x34 }
  - { offsetInCU: 0x1C926, offset: 0x6C40F, size: 0x8, addend: 0x0, symName: __ZNSt17_Rb_tree_iteratorISt4pairIKNSt7__cxx1112basic_stringIcSt11char_traitsIcESaIcEEE8CommandsEEC1EPSt18_Rb_tree_node_base, symObjAddr: 0x80CC, symBinAddr: 0x100018354, symSize: 0x24 }
  - { offsetInCU: 0x1C961, offset: 0x6C44A, size: 0x8, addend: 0x0, symName: __ZNSt8_Rb_treeINSt7__cxx1112basic_stringIcSt11char_traitsIcESaIcEEESt4pairIKS5_8CommandsESt10_Select1stIS9_ESt4lessIS5_ESaIS9_EE14_M_insert_nodeEPSt18_Rb_tree_node_baseSH_PSt13_Rb_tree_nodeIS9_E, symObjAddr: 0x7FC8, symBinAddr: 0x100018250, symSize: 0xD0 }
  - { offsetInCU: 0x1C969, offset: 0x6C452, size: 0x8, addend: 0x0, symName: __ZNSt8_Rb_treeINSt7__cxx1112basic_stringIcSt11char_traitsIcESaIcEEESt4pairIKS5_8CommandsESt10_Select1stIS9_ESt4lessIS5_ESaIS9_EE12_M_drop_nodeEPSt13_Rb_tree_nodeIS9_E, symObjAddr: 0x8098, symBinAddr: 0x100018320, symSize: 0x34 }
  - { offsetInCU: 0x1C9E0, offset: 0x6C4C9, size: 0x8, addend: 0x0, symName: __ZNSt8_Rb_treeINSt7__cxx1112basic_stringIcSt11char_traitsIcESaIcEEESt4pairIKS5_8CommandsESt10_Select1stIS9_ESt4lessIS5_ESaIS9_EE6_S_keyEPKSt13_Rb_tree_nodeIS9_E, symObjAddr: 0x7FA0, symBinAddr: 0x100018228, symSize: 0x28 }
  - { offsetInCU: 0x1C9E8, offset: 0x6C4D1, size: 0x8, addend: 0x0, symName: __ZNSt8_Rb_treeINSt7__cxx1112basic_stringIcSt11char_traitsIcESaIcEEESt4pairIKS5_8CommandsESt10_Select1stIS9_ESt4lessIS5_ESaIS9_EE14_M_insert_nodeEPSt18_Rb_tree_node_baseSH_PSt13_Rb_tree_nodeIS9_E, symObjAddr: 0x7FC8, symBinAddr: 0x100018250, symSize: 0xD0 }
  - { offsetInCU: 0x1CA12, offset: 0x6C4FB, size: 0x8, addend: 0x0, symName: __ZNSt8_Rb_treeINSt7__cxx1112basic_stringIcSt11char_traitsIcESaIcEEESt4pairIKS5_8CommandsESt10_Select1stIS9_ESt4lessIS5_ESaIS9_EE29_M_get_insert_hint_unique_posESt23_Rb_tree_const_iteratorIS9_ERS7_, symObjAddr: 0x7C94, symBinAddr: 0x100017F1C, symSize: 0x30C }
  - { offsetInCU: 0x1CA1A, offset: 0x6C503, size: 0x8, addend: 0x0, symName: __ZNSt8_Rb_treeINSt7__cxx1112basic_stringIcSt11char_traitsIcESaIcEEESt4pairIKS5_8CommandsESt10_Select1stIS9_ESt4lessIS5_ESaIS9_EE6_S_keyEPKSt13_Rb_tree_nodeIS9_E, symObjAddr: 0x7FA0, symBinAddr: 0x100018228, symSize: 0x28 }
  - { offsetInCU: 0x1CACF, offset: 0x6C5B8, size: 0x8, addend: 0x0, symName: __ZNSt8_Rb_treeINSt7__cxx1112basic_stringIcSt11char_traitsIcESaIcEEESt4pairIKS5_8CommandsESt10_Select1stIS9_ESt4lessIS5_ESaIS9_EE14_M_create_nodeIJRKSt21piecewise_construct_tSt5tupleIJRS7_EESK_IJEEEEEPSt13_Rb_tree_nodeIS9_EDpOT_, symObjAddr: 0x7C24, symBinAddr: 0x100017EAC, symSize: 0x70 }
  - { offsetInCU: 0x1CAD7, offset: 0x6C5C0, size: 0x8, addend: 0x0, symName: __ZNSt8_Rb_treeINSt7__cxx1112basic_stringIcSt11char_traitsIcESaIcEEESt4pairIKS5_8CommandsESt10_Select1stIS9_ESt4lessIS5_ESaIS9_EE29_M_get_insert_hint_unique_posESt23_Rb_tree_const_iteratorIS9_ERS7_, symObjAddr: 0x7C94, symBinAddr: 0x100017F1C, symSize: 0x30C }
  - { offsetInCU: 0x1CBB7, offset: 0x6C6A0, size: 0x8, addend: 0x0, symName: __ZSt7forwardISt5tupleIJEEEOT_RNSt16remove_referenceIS2_E4typeE, symObjAddr: 0x7C10, symBinAddr: 0x100017E98, symSize: 0x14 }
  - { offsetInCU: 0x1CBBF, offset: 0x6C6A8, size: 0x8, addend: 0x0, symName: __ZNSt8_Rb_treeINSt7__cxx1112basic_stringIcSt11char_traitsIcESaIcEEESt4pairIKS5_8CommandsESt10_Select1stIS9_ESt4lessIS5_ESaIS9_EE14_M_create_nodeIJRKSt21piecewise_construct_tSt5tupleIJRS7_EESK_IJEEEEEPSt13_Rb_tree_nodeIS9_EDpOT_, symObjAddr: 0x7C24, symBinAddr: 0x100017EAC, symSize: 0x70 }
  - { offsetInCU: 0x1CC97, offset: 0x6C780, size: 0x8, addend: 0x0, symName: __ZSt7forwardISt5tupleIJRKNSt7__cxx1112basic_stringIcSt11char_traitsIcESaIcEEEEEEOT_RNSt16remove_referenceISA_E4typeE, symObjAddr: 0x7BFC, symBinAddr: 0x100017E84, symSize: 0x14 }
  - { offsetInCU: 0x1CC9F, offset: 0x6C788, size: 0x8, addend: 0x0, symName: __ZSt7forwardISt5tupleIJEEEOT_RNSt16remove_referenceIS2_E4typeE, symObjAddr: 0x7C10, symBinAddr: 0x100017E98, symSize: 0x14 }
  - { offsetInCU: 0x1CC82, offset: 0x6C76B, size: 0x8, addend: 0x0, symName: __ZSt7forwardIRKSt21piecewise_construct_tEOT_RNSt16remove_referenceIS3_E4typeE, symObjAddr: 0x7BE8, symBinAddr: 0x100017E70, symSize: 0x14 }
  - { offsetInCU: 0x1CC8A, offset: 0x6C773, size: 0x8, addend: 0x0, symName: __ZSt7forwardISt5tupleIJRKNSt7__cxx1112basic_stringIcSt11char_traitsIcESaIcEEEEEEOT_RNSt16remove_referenceISA_E4typeE, symObjAddr: 0x7BFC, symBinAddr: 0x100017E84, symSize: 0x14 }
  - { offsetInCU: 0x1CCDA, offset: 0x6C7C3, size: 0x8, addend: 0x0, symName: __ZNSt11_Tuple_implILm0EJRKNSt7__cxx1112basic_stringIcSt11char_traitsIcESaIcEEEEEC2ES7_, symObjAddr: 0x7BC0, symBinAddr: 0x100017E48, symSize: 0x28 }
  - { offsetInCU: 0x1CCE2, offset: 0x6C7CB, size: 0x8, addend: 0x0, symName: __ZSt7forwardIRKSt21piecewise_construct_tEOT_RNSt16remove_referenceIS3_E4typeE, symObjAddr: 0x7BE8, symBinAddr: 0x100017E70, symSize: 0x14 }
  - { offsetInCU: 0x1CCBD, offset: 0x6C7A6, size: 0x8, addend: 0x0, symName: __ZNSt13_Rb_tree_nodeISt4pairIKNSt7__cxx1112basic_stringIcSt11char_traitsIcESaIcEEE8CommandsEE9_M_valptrEv, symObjAddr: 0x7B74, symBinAddr: 0x100017E28, symSize: 0x20 }
  - { offsetInCU: 0x1CCEC, offset: 0x6C7D5, size: 0x8, addend: 0x0, symName: __ZNKSt8_Rb_treeINSt7__cxx1112basic_stringIcSt11char_traitsIcESaIcEEESt4pairIKS5_8CommandsESt10_Select1stIS9_ESt4lessIS5_ESaIS9_EE8key_compEv, symObjAddr: 0x7B5C, symBinAddr: 0x100017E10, symSize: 0x18 }
  - { offsetInCU: 0x1CCF4, offset: 0x6C7DD, size: 0x8, addend: 0x0, symName: __ZNSt13_Rb_tree_nodeISt4pairIKNSt7__cxx1112basic_stringIcSt11char_traitsIcESaIcEEE8CommandsEE9_M_valptrEv, symObjAddr: 0x7B74, symBinAddr: 0x100017E28, symSize: 0x20 }
  - { offsetInCU: 0x1CD1B, offset: 0x6C804, size: 0x8, addend: 0x0, symName: __ZNSt8_Rb_treeINSt7__cxx1112basic_stringIcSt11char_traitsIcESaIcEEESt4pairIKS5_8CommandsESt10_Select1stIS9_ESt4lessIS5_ESaIS9_EE11lower_boundERS7_, symObjAddr: 0x7B14, symBinAddr: 0x100017DC8, symSize: 0x48 }
  - { offsetInCU: 0x1CD23, offset: 0x6C80C, size: 0x8, addend: 0x0, symName: __ZNKSt8_Rb_treeINSt7__cxx1112basic_stringIcSt11char_traitsIcESaIcEEESt4pairIKS5_8CommandsESt10_Select1stIS9_ESt4lessIS5_ESaIS9_EE8key_compEv, symObjAddr: 0x7B5C, symBinAddr: 0x100017E10, symSize: 0x18 }
  - { offsetInCU: 0x1CD5E, offset: 0x6C847, size: 0x8, addend: 0x0, symName: __ZNSt8_Rb_treeINSt7__cxx1112basic_stringIcSt11char_traitsIcESaIcEEES5_St9_IdentityIS5_ESt4lessIS5_ESaIS5_EE7_M_copyILb0ENSB_11_Alloc_nodeEEEPSt13_Rb_tree_nodeIS5_ERKSB_RT0_, symObjAddr: 0x7A04, symBinAddr: 0x100017D34, symSize: 0x94 }
  - { offsetInCU: 0x1CE64, offset: 0x6C94D, size: 0x8, addend: 0x0, symName: __ZNSaISt13_Rb_tree_nodeINSt7__cxx1112basic_stringIcSt11char_traitsIcESaIcEEEEEC1ERKS7_, symObjAddr: 0x79B0, symBinAddr: 0x100017D0C, symSize: 0x28 }
  - { offsetInCU: 0x1CE47, offset: 0x6C930, size: 0x8, addend: 0x0, symName: __ZN9__gnu_cxx14__alloc_traitsISaISt13_Rb_tree_nodeINSt7__cxx1112basic_stringIcSt11char_traitsIcESaIcEEEEES8_E17_S_select_on_copyERKS9_, symObjAddr: 0x7958, symBinAddr: 0x100017CDC, symSize: 0x30 }
  - { offsetInCU: 0x1CF12, offset: 0x6C9FB, size: 0x8, addend: 0x0, symName: __ZNSt23_Rb_tree_const_iteratorINSt7__cxx1112basic_stringIcSt11char_traitsIcESaIcEEEEC1EPKSt18_Rb_tree_node_base, symObjAddr: 0x7934, symBinAddr: 0x100017CB8, symSize: 0x24 }
  - { offsetInCU: 0x1CF1A, offset: 0x6CA03, size: 0x8, addend: 0x0, symName: __ZN9__gnu_cxx14__alloc_traitsISaISt13_Rb_tree_nodeINSt7__cxx1112basic_stringIcSt11char_traitsIcESaIcEEEEES8_E17_S_select_on_copyERKS9_, symObjAddr: 0x7958, symBinAddr: 0x100017CDC, symSize: 0x30 }
  - { offsetInCU: 0x1CEDC, offset: 0x6C9C5, size: 0x8, addend: 0x0, symName: __ZNSt8_Rb_treeINSt7__cxx1112basic_stringIcSt11char_traitsIcESaIcEEES5_St9_IdentityIS5_ESt4lessIS5_ESaIS5_EE14_M_lower_boundEPSt13_Rb_tree_nodeIS5_EPSt18_Rb_tree_node_baseRKS5_, symObjAddr: 0x784C, symBinAddr: 0x100017C1C, symSize: 0x9C }
  - { offsetInCU: 0x1CF47, offset: 0x6CA30, size: 0x8, addend: 0x0, symName: __ZNSt8_Rb_treeINSt7__cxx1112basic_stringIcSt11char_traitsIcESaIcEEESt4pairIKS5_5TypesESt10_Select1stIS9_ESt4lessIS5_ESaIS9_EE17_M_insert_unique_IRKS9_NSF_11_Alloc_nodeEEESt17_Rb_tree_iteratorIS9_ESt23_Rb_tree_const_iteratorIS9_EOT_RT0_, symObjAddr: 0x77A4, symBinAddr: 0x100017B8C, symSize: 0x90 }
  - { offsetInCU: 0x1CFE0, offset: 0x6CAC9, size: 0x8, addend: 0x0, symName: __ZNSt8_Rb_treeINSt7__cxx1112basic_stringIcSt11char_traitsIcESaIcEEESt4pairIKS5_5TypesESt10_Select1stIS9_ESt4lessIS5_ESaIS9_EE3endEv, symObjAddr: 0x777C, symBinAddr: 0x100017B64, symSize: 0x28 }
  - { offsetInCU: 0x1CFE8, offset: 0x6CAD1, size: 0x8, addend: 0x0, symName: __ZNSt8_Rb_treeINSt7__cxx1112basic_stringIcSt11char_traitsIcESaIcEEESt4pairIKS5_5TypesESt10_Select1stIS9_ESt4lessIS5_ESaIS9_EE17_M_insert_unique_IRKS9_NSF_11_Alloc_nodeEEESt17_Rb_tree_iteratorIS9_ESt23_Rb_tree_const_iteratorIS9_EOT_RT0_, symObjAddr: 0x77A4, symBinAddr: 0x100017B8C, symSize: 0x90 }
  - { offsetInCU: 0x1D0CB, offset: 0x6CBB4, size: 0x8, addend: 0x0, symName: __ZNSt8_Rb_treeINSt7__cxx1112basic_stringIcSt11char_traitsIcESaIcEEESt4pairIKS5_5TypesESt10_Select1stIS9_ESt4lessIS5_ESaIS9_EE11_Alloc_nodeC1ERSF_, symObjAddr: 0x7758, symBinAddr: 0x100017B40, symSize: 0x24 }
  - { offsetInCU: 0x1D0D3, offset: 0x6CBBC, size: 0x8, addend: 0x0, symName: __ZNSt8_Rb_treeINSt7__cxx1112basic_stringIcSt11char_traitsIcESaIcEEESt4pairIKS5_5TypesESt10_Select1stIS9_ESt4lessIS5_ESaIS9_EE3endEv, symObjAddr: 0x777C, symBinAddr: 0x100017B64, symSize: 0x28 }
  - { offsetInCU: 0x1D073, offset: 0x6CB5C, size: 0x8, addend: 0x0, symName: __ZNKSt16initializer_listISt4pairIKNSt7__cxx1112basic_stringIcSt11char_traitsIcESaIcEEE5TypesEE4sizeEv, symObjAddr: 0x7740, symBinAddr: 0x100017B28, symSize: 0x18 }
  - { offsetInCU: 0x1D07B, offset: 0x6CB64, size: 0x8, addend: 0x0, symName: __ZNSt8_Rb_treeINSt7__cxx1112basic_stringIcSt11char_traitsIcESaIcEEESt4pairIKS5_5TypesESt10_Select1stIS9_ESt4lessIS5_ESaIS9_EE11_Alloc_nodeC1ERSF_, symObjAddr: 0x7758, symBinAddr: 0x100017B40, symSize: 0x24 }
  - { offsetInCU: 0x1D0A2, offset: 0x6CB8B, size: 0x8, addend: 0x0, symName: __ZNSt8_Rb_treeINSt7__cxx1112basic_stringIcSt11char_traitsIcESaIcEEESt4pairIKS5_5TypesESt10_Select1stIS9_ESt4lessIS5_ESaIS9_EE8_M_beginEv, symObjAddr: 0x7724, symBinAddr: 0x100017B0C, symSize: 0x1C }
  - { offsetInCU: 0x1D0AA, offset: 0x6CB93, size: 0x8, addend: 0x0, symName: __ZNKSt16initializer_listISt4pairIKNSt7__cxx1112basic_stringIcSt11char_traitsIcESaIcEEE5TypesEE4sizeEv, symObjAddr: 0x7740, symBinAddr: 0x100017B28, symSize: 0x18 }
  - { offsetInCU: 0x1D0D1, offset: 0x6CBBA, size: 0x8, addend: 0x0, symName: __ZNSt8_Rb_treeINSt7__cxx1112basic_stringIcSt11char_traitsIcESaIcEEESt4pairIKS5_5TypesESt10_Select1stIS9_ESt4lessIS5_ESaIS9_EE8_M_eraseEPSt13_Rb_tree_nodeIS9_E, symObjAddr: 0x76C0, symBinAddr: 0x100017AA8, symSize: 0x64 }
  - { offsetInCU: 0x1D0D9, offset: 0x6CBC2, size: 0x8, addend: 0x0, symName: __ZNSt8_Rb_treeINSt7__cxx1112basic_stringIcSt11char_traitsIcESaIcEEESt4pairIKS5_5TypesESt10_Select1stIS9_ESt4lessIS5_ESaIS9_EE8_M_beginEv, symObjAddr: 0x7724, symBinAddr: 0x100017B0C, symSize: 0x1C }
  - { offsetInCU: 0x1D22E, offset: 0x6CD17, size: 0x8, addend: 0x0, symName: __ZNSt8_Rb_treeINSt7__cxx1112basic_stringIcSt11char_traitsIcESaIcEEESt4pairIKS5_5TypesESt10_Select1stIS9_ESt4lessIS5_ESaIS9_EE13_Rb_tree_implISD_Lb1EEC1ERKSD_OSaISt13_Rb_tree_nodeIS9_EE, symObjAddr: 0x7674, symBinAddr: 0x100017A5C, symSize: 0x4C }
  - { offsetInCU: 0x1D236, offset: 0x6CD1F, size: 0x8, addend: 0x0, symName: __ZNSt8_Rb_treeINSt7__cxx1112basic_stringIcSt11char_traitsIcESaIcEEESt4pairIKS5_5TypesESt10_Select1stIS9_ESt4lessIS5_ESaIS9_EE8_M_eraseEPSt13_Rb_tree_nodeIS9_E, symObjAddr: 0x76C0, symBinAddr: 0x100017AA8, symSize: 0x64 }
  - { offsetInCU: 0x1D245, offset: 0x6CD2E, size: 0x8, addend: 0x0, symName: __ZNSaISt13_Rb_tree_nodeISt4pairIKNSt7__cxx1112basic_stringIcSt11char_traitsIcESaIcEEE5TypesEEED1Ev, symObjAddr: 0x7654, symBinAddr: 0x100017A3C, symSize: 0x20 }
  - { offsetInCU: 0x1D24D, offset: 0x6CD36, size: 0x8, addend: 0x0, symName: __ZNSt8_Rb_treeINSt7__cxx1112basic_stringIcSt11char_traitsIcESaIcEEESt4pairIKS5_5TypesESt10_Select1stIS9_ESt4lessIS5_ESaIS9_EE13_Rb_tree_implISD_Lb1EEC1ERKSD_OSaISt13_Rb_tree_nodeIS9_EE, symObjAddr: 0x7674, symBinAddr: 0x100017A5C, symSize: 0x4C }
  - { offsetInCU: 0x1D273, offset: 0x6CD5C, size: 0x8, addend: 0x0, symName: __ZNSaISt13_Rb_tree_nodeISt4pairIKNSt7__cxx1112basic_stringIcSt11char_traitsIcESaIcEEE5TypesEEED2Ev, symObjAddr: 0x7634, symBinAddr: 0x100017A1C, symSize: 0x20 }
  - { offsetInCU: 0x1D27B, offset: 0x6CD64, size: 0x8, addend: 0x0, symName: __ZNSaISt13_Rb_tree_nodeISt4pairIKNSt7__cxx1112basic_stringIcSt11char_traitsIcESaIcEEE5TypesEEED1Ev, symObjAddr: 0x7654, symBinAddr: 0x100017A3C, symSize: 0x20 }
  - { offsetInCU: 0x1D2DC, offset: 0x6CDC5, size: 0x8, addend: 0x0, symName: __ZNSaISt13_Rb_tree_nodeISt4pairIKNSt7__cxx1112basic_stringIcSt11char_traitsIcESaIcEEE5TypesEEEC1IS9_EERKSaIT_E, symObjAddr: 0x7610, symBinAddr: 0x1000179F8, symSize: 0x24 }
  - { offsetInCU: 0x1D2E4, offset: 0x6CDCD, size: 0x8, addend: 0x0, symName: __ZNSaISt13_Rb_tree_nodeISt4pairIKNSt7__cxx1112basic_stringIcSt11char_traitsIcESaIcEEE5TypesEEED2Ev, symObjAddr: 0x7634, symBinAddr: 0x100017A1C, symSize: 0x20 }
  - { offsetInCU: 0x1D341, offset: 0x6CE2A, size: 0x8, addend: 0x0, symName: __ZN9__gnu_cxx13new_allocatorISt4pairIKNSt7__cxx1112basic_stringIcSt11char_traitsIcESaIcEEE5TypesEEC2ERKSB_, symObjAddr: 0x75F8, symBinAddr: 0x1000179E0, symSize: 0x18 }
  - { offsetInCU: 0x1D349, offset: 0x6CE32, size: 0x8, addend: 0x0, symName: __ZNSaISt13_Rb_tree_nodeISt4pairIKNSt7__cxx1112basic_stringIcSt11char_traitsIcESaIcEEE5TypesEEEC1IS9_EERKSaIT_E, symObjAddr: 0x7610, symBinAddr: 0x1000179F8, symSize: 0x24 }
  - { offsetInCU: 0x1D310, offset: 0x6CDF9, size: 0x8, addend: 0x0, symName: __ZNSt8_Rb_treeINSt7__cxx1112basic_stringIcSt11char_traitsIcESaIcEEESt4pairIKS5_6FieldsESt10_Select1stIS9_ESt4lessIS5_ESaIS9_EE17_M_insert_unique_IRKS9_NSF_11_Alloc_nodeEEESt17_Rb_tree_iteratorIS9_ESt23_Rb_tree_const_iteratorIS9_EOT_RT0_, symObjAddr: 0x7568, symBinAddr: 0x100017950, symSize: 0x90 }
  - { offsetInCU: 0x1D318, offset: 0x6CE01, size: 0x8, addend: 0x0, symName: __ZN9__gnu_cxx13new_allocatorISt4pairIKNSt7__cxx1112basic_stringIcSt11char_traitsIcESaIcEEE5TypesEEC2ERKSB_, symObjAddr: 0x75F8, symBinAddr: 0x1000179E0, symSize: 0x18 }
  - { offsetInCU: 0x1D3A9, offset: 0x6CE92, size: 0x8, addend: 0x0, symName: __ZNSt8_Rb_treeINSt7__cxx1112basic_stringIcSt11char_traitsIcESaIcEEESt4pairIKS5_6FieldsESt10_Select1stIS9_ESt4lessIS5_ESaIS9_EE3endEv, symObjAddr: 0x7540, symBinAddr: 0x100017928, symSize: 0x28 }
  - { offsetInCU: 0x1D3B1, offset: 0x6CE9A, size: 0x8, addend: 0x0, symName: __ZNSt8_Rb_treeINSt7__cxx1112basic_stringIcSt11char_traitsIcESaIcEEESt4pairIKS5_6FieldsESt10_Select1stIS9_ESt4lessIS5_ESaIS9_EE17_M_insert_unique_IRKS9_NSF_11_Alloc_nodeEEESt17_Rb_tree_iteratorIS9_ESt23_Rb_tree_const_iteratorIS9_EOT_RT0_, symObjAddr: 0x7568, symBinAddr: 0x100017950, symSize: 0x90 }
  - { offsetInCU: 0x1D495, offset: 0x6CF7E, size: 0x8, addend: 0x0, symName: __ZNSt8_Rb_treeINSt7__cxx1112basic_stringIcSt11char_traitsIcESaIcEEESt4pairIKS5_6FieldsESt10_Select1stIS9_ESt4lessIS5_ESaIS9_EE11_Alloc_nodeC1ERSF_, symObjAddr: 0x751C, symBinAddr: 0x100017904, symSize: 0x24 }
  - { offsetInCU: 0x1D49D, offset: 0x6CF86, size: 0x8, addend: 0x0, symName: __ZNSt8_Rb_treeINSt7__cxx1112basic_stringIcSt11char_traitsIcESaIcEEESt4pairIKS5_6FieldsESt10_Select1stIS9_ESt4lessIS5_ESaIS9_EE3endEv, symObjAddr: 0x7540, symBinAddr: 0x100017928, symSize: 0x28 }
  - { offsetInCU: 0x1D43C, offset: 0x6CF25, size: 0x8, addend: 0x0, symName: __ZNKSt16initializer_listISt4pairIKNSt7__cxx1112basic_stringIcSt11char_traitsIcESaIcEEE6FieldsEE4sizeEv, symObjAddr: 0x7504, symBinAddr: 0x1000178EC, symSize: 0x18 }
  - { offsetInCU: 0x1D444, offset: 0x6CF2D, size: 0x8, addend: 0x0, symName: __ZNSt8_Rb_treeINSt7__cxx1112basic_stringIcSt11char_traitsIcESaIcEEESt4pairIKS5_6FieldsESt10_Select1stIS9_ESt4lessIS5_ESaIS9_EE11_Alloc_nodeC1ERSF_, symObjAddr: 0x751C, symBinAddr: 0x100017904, symSize: 0x24 }
  - { offsetInCU: 0x1D46B, offset: 0x6CF54, size: 0x8, addend: 0x0, symName: __ZNSt8_Rb_treeINSt7__cxx1112basic_stringIcSt11char_traitsIcESaIcEEESt4pairIKS5_6FieldsESt10_Select1stIS9_ESt4lessIS5_ESaIS9_EE8_M_beginEv, symObjAddr: 0x74E8, symBinAddr: 0x1000178D0, symSize: 0x1C }
  - { offsetInCU: 0x1D473, offset: 0x6CF5C, size: 0x8, addend: 0x0, symName: __ZNKSt16initializer_listISt4pairIKNSt7__cxx1112basic_stringIcSt11char_traitsIcESaIcEEE6FieldsEE4sizeEv, symObjAddr: 0x7504, symBinAddr: 0x1000178EC, symSize: 0x18 }
  - { offsetInCU: 0x1D49A, offset: 0x6CF83, size: 0x8, addend: 0x0, symName: __ZNSt8_Rb_treeINSt7__cxx1112basic_stringIcSt11char_traitsIcESaIcEEESt4pairIKS5_6FieldsESt10_Select1stIS9_ESt4lessIS5_ESaIS9_EE8_M_eraseEPSt13_Rb_tree_nodeIS9_E, symObjAddr: 0x7484, symBinAddr: 0x10001786C, symSize: 0x64 }
  - { offsetInCU: 0x1D4A2, offset: 0x6CF8B, size: 0x8, addend: 0x0, symName: __ZNSt8_Rb_treeINSt7__cxx1112basic_stringIcSt11char_traitsIcESaIcEEESt4pairIKS5_6FieldsESt10_Select1stIS9_ESt4lessIS5_ESaIS9_EE8_M_beginEv, symObjAddr: 0x74E8, symBinAddr: 0x1000178D0, symSize: 0x1C }
  - { offsetInCU: 0x1D5F8, offset: 0x6D0E1, size: 0x8, addend: 0x0, symName: __ZNSt8_Rb_treeINSt7__cxx1112basic_stringIcSt11char_traitsIcESaIcEEESt4pairIKS5_6FieldsESt10_Select1stIS9_ESt4lessIS5_ESaIS9_EE13_Rb_tree_implISD_Lb1EEC1ERKSD_OSaISt13_Rb_tree_nodeIS9_EE, symObjAddr: 0x7438, symBinAddr: 0x100017820, symSize: 0x4C }
  - { offsetInCU: 0x1D600, offset: 0x6D0E9, size: 0x8, addend: 0x0, symName: __ZNSt8_Rb_treeINSt7__cxx1112basic_stringIcSt11char_traitsIcESaIcEEESt4pairIKS5_6FieldsESt10_Select1stIS9_ESt4lessIS5_ESaIS9_EE8_M_eraseEPSt13_Rb_tree_nodeIS9_E, symObjAddr: 0x7484, symBinAddr: 0x10001786C, symSize: 0x64 }
  - { offsetInCU: 0x1D60F, offset: 0x6D0F8, size: 0x8, addend: 0x0, symName: __ZNSaISt13_Rb_tree_nodeISt4pairIKNSt7__cxx1112basic_stringIcSt11char_traitsIcESaIcEEE6FieldsEEED1Ev, symObjAddr: 0x7418, symBinAddr: 0x100017800, symSize: 0x20 }
  - { offsetInCU: 0x1D617, offset: 0x6D100, size: 0x8, addend: 0x0, symName: __ZNSt8_Rb_treeINSt7__cxx1112basic_stringIcSt11char_traitsIcESaIcEEESt4pairIKS5_6FieldsESt10_Select1stIS9_ESt4lessIS5_ESaIS9_EE13_Rb_tree_implISD_Lb1EEC1ERKSD_OSaISt13_Rb_tree_nodeIS9_EE, symObjAddr: 0x7438, symBinAddr: 0x100017820, symSize: 0x4C }
  - { offsetInCU: 0x1D63D, offset: 0x6D126, size: 0x8, addend: 0x0, symName: __ZNSaISt13_Rb_tree_nodeISt4pairIKNSt7__cxx1112basic_stringIcSt11char_traitsIcESaIcEEE6FieldsEEED2Ev, symObjAddr: 0x73F8, symBinAddr: 0x1000177E0, symSize: 0x20 }
  - { offsetInCU: 0x1D645, offset: 0x6D12E, size: 0x8, addend: 0x0, symName: __ZNSaISt13_Rb_tree_nodeISt4pairIKNSt7__cxx1112basic_stringIcSt11char_traitsIcESaIcEEE6FieldsEEED1Ev, symObjAddr: 0x7418, symBinAddr: 0x100017800, symSize: 0x20 }
  - { offsetInCU: 0x1D6A6, offset: 0x6D18F, size: 0x8, addend: 0x0, symName: __ZNSaISt13_Rb_tree_nodeISt4pairIKNSt7__cxx1112basic_stringIcSt11char_traitsIcESaIcEEE6FieldsEEEC1IS9_EERKSaIT_E, symObjAddr: 0x73D4, symBinAddr: 0x1000177BC, symSize: 0x24 }
  - { offsetInCU: 0x1D6AE, offset: 0x6D197, size: 0x8, addend: 0x0, symName: __ZNSaISt13_Rb_tree_nodeISt4pairIKNSt7__cxx1112basic_stringIcSt11char_traitsIcESaIcEEE6FieldsEEED2Ev, symObjAddr: 0x73F8, symBinAddr: 0x1000177E0, symSize: 0x20 }
  - { offsetInCU: 0x1D70B, offset: 0x6D1F4, size: 0x8, addend: 0x0, symName: __ZN9__gnu_cxx13new_allocatorISt4pairIKNSt7__cxx1112basic_stringIcSt11char_traitsIcESaIcEEE6FieldsEEC2ERKSB_, symObjAddr: 0x73BC, symBinAddr: 0x1000177A4, symSize: 0x18 }
  - { offsetInCU: 0x1D713, offset: 0x6D1FC, size: 0x8, addend: 0x0, symName: __ZNSaISt13_Rb_tree_nodeISt4pairIKNSt7__cxx1112basic_stringIcSt11char_traitsIcESaIcEEE6FieldsEEEC1IS9_EERKSaIT_E, symObjAddr: 0x73D4, symBinAddr: 0x1000177BC, symSize: 0x24 }
  - { offsetInCU: 0x1D6D9, offset: 0x6D1C2, size: 0x8, addend: 0x0, symName: __ZNSt8_Rb_treeINSt7__cxx1112basic_stringIcSt11char_traitsIcESaIcEEESt4pairIKS5_8CommandsESt10_Select1stIS9_ESt4lessIS5_ESaIS9_EE17_M_insert_unique_IRKS9_NSF_11_Alloc_nodeEEESt17_Rb_tree_iteratorIS9_ESt23_Rb_tree_const_iteratorIS9_EOT_RT0_, symObjAddr: 0x732C, symBinAddr: 0x100017714, symSize: 0x90 }
  - { offsetInCU: 0x1D6E1, offset: 0x6D1CA, size: 0x8, addend: 0x0, symName: __ZN9__gnu_cxx13new_allocatorISt4pairIKNSt7__cxx1112basic_stringIcSt11char_traitsIcESaIcEEE6FieldsEEC2ERKSB_, symObjAddr: 0x73BC, symBinAddr: 0x1000177A4, symSize: 0x18 }
  - { offsetInCU: 0x1D772, offset: 0x6D25B, size: 0x8, addend: 0x0, symName: __ZNSt8_Rb_treeINSt7__cxx1112basic_stringIcSt11char_traitsIcESaIcEEESt4pairIKS5_8CommandsESt10_Select1stIS9_ESt4lessIS5_ESaIS9_EE3endEv, symObjAddr: 0x7304, symBinAddr: 0x1000176EC, symSize: 0x28 }
  - { offsetInCU: 0x1D77A, offset: 0x6D263, size: 0x8, addend: 0x0, symName: __ZNSt8_Rb_treeINSt7__cxx1112basic_stringIcSt11char_traitsIcESaIcEEESt4pairIKS5_8CommandsESt10_Select1stIS9_ESt4lessIS5_ESaIS9_EE17_M_insert_unique_IRKS9_NSF_11_Alloc_nodeEEESt17_Rb_tree_iteratorIS9_ESt23_Rb_tree_const_iteratorIS9_EOT_RT0_, symObjAddr: 0x732C, symBinAddr: 0x100017714, symSize: 0x90 }
  - { offsetInCU: 0x1D860, offset: 0x6D349, size: 0x8, addend: 0x0, symName: __ZNSt8_Rb_treeINSt7__cxx1112basic_stringIcSt11char_traitsIcESaIcEEESt4pairIKS5_8CommandsESt10_Select1stIS9_ESt4lessIS5_ESaIS9_EE11_Alloc_nodeC1ERSF_, symObjAddr: 0x72E0, symBinAddr: 0x1000176C8, symSize: 0x24 }
  - { offsetInCU: 0x1D868, offset: 0x6D351, size: 0x8, addend: 0x0, symName: __ZNSt8_Rb_treeINSt7__cxx1112basic_stringIcSt11char_traitsIcESaIcEEESt4pairIKS5_8CommandsESt10_Select1stIS9_ESt4lessIS5_ESaIS9_EE3endEv, symObjAddr: 0x7304, symBinAddr: 0x1000176EC, symSize: 0x28 }
  - { offsetInCU: 0x1D805, offset: 0x6D2EE, size: 0x8, addend: 0x0, symName: __ZNKSt16initializer_listISt4pairIKNSt7__cxx1112basic_stringIcSt11char_traitsIcESaIcEEE8CommandsEE4sizeEv, symObjAddr: 0x72C8, symBinAddr: 0x1000176B0, symSize: 0x18 }
  - { offsetInCU: 0x1D80D, offset: 0x6D2F6, size: 0x8, addend: 0x0, symName: __ZNSt8_Rb_treeINSt7__cxx1112basic_stringIcSt11char_traitsIcESaIcEEESt4pairIKS5_8CommandsESt10_Select1stIS9_ESt4lessIS5_ESaIS9_EE11_Alloc_nodeC1ERSF_, symObjAddr: 0x72E0, symBinAddr: 0x1000176C8, symSize: 0x24 }
  - { offsetInCU: 0x1D834, offset: 0x6D31D, size: 0x8, addend: 0x0, symName: __ZNSt8_Rb_treeINSt7__cxx1112basic_stringIcSt11char_traitsIcESaIcEEESt4pairIKS5_8CommandsESt10_Select1stIS9_ESt4lessIS5_ESaIS9_EE8_M_beginEv, symObjAddr: 0x72AC, symBinAddr: 0x100017694, symSize: 0x1C }
  - { offsetInCU: 0x1D83C, offset: 0x6D325, size: 0x8, addend: 0x0, symName: __ZNKSt16initializer_listISt4pairIKNSt7__cxx1112basic_stringIcSt11char_traitsIcESaIcEEE8CommandsEE4sizeEv, symObjAddr: 0x72C8, symBinAddr: 0x1000176B0, symSize: 0x18 }
  - { offsetInCU: 0x1D863, offset: 0x6D34C, size: 0x8, addend: 0x0, symName: __ZNSt8_Rb_treeINSt7__cxx1112basic_stringIcSt11char_traitsIcESaIcEEESt4pairIKS5_8CommandsESt10_Select1stIS9_ESt4lessIS5_ESaIS9_EE8_M_eraseEPSt13_Rb_tree_nodeIS9_E, symObjAddr: 0x7248, symBinAddr: 0x100017630, symSize: 0x64 }
  - { offsetInCU: 0x1D86B, offset: 0x6D354, size: 0x8, addend: 0x0, symName: __ZNSt8_Rb_treeINSt7__cxx1112basic_stringIcSt11char_traitsIcESaIcEEESt4pairIKS5_8CommandsESt10_Select1stIS9_ESt4lessIS5_ESaIS9_EE8_M_beginEv, symObjAddr: 0x72AC, symBinAddr: 0x100017694, symSize: 0x1C }
  - { offsetInCU: 0x1D9C3, offset: 0x6D4AC, size: 0x8, addend: 0x0, symName: __ZNSt8_Rb_treeINSt7__cxx1112basic_stringIcSt11char_traitsIcESaIcEEESt4pairIKS5_8CommandsESt10_Select1stIS9_ESt4lessIS5_ESaIS9_EE13_Rb_tree_implISD_Lb1EEC1ERKSD_OSaISt13_Rb_tree_nodeIS9_EE, symObjAddr: 0x71FC, symBinAddr: 0x1000175E4, symSize: 0x4C }
  - { offsetInCU: 0x1D9CB, offset: 0x6D4B4, size: 0x8, addend: 0x0, symName: __ZNSt8_Rb_treeINSt7__cxx1112basic_stringIcSt11char_traitsIcESaIcEEESt4pairIKS5_8CommandsESt10_Select1stIS9_ESt4lessIS5_ESaIS9_EE8_M_eraseEPSt13_Rb_tree_nodeIS9_E, symObjAddr: 0x7248, symBinAddr: 0x100017630, symSize: 0x64 }
  - { offsetInCU: 0x1D9DA, offset: 0x6D4C3, size: 0x8, addend: 0x0, symName: __ZNSaISt13_Rb_tree_nodeISt4pairIKNSt7__cxx1112basic_stringIcSt11char_traitsIcESaIcEEE8CommandsEEED1Ev, symObjAddr: 0x71DC, symBinAddr: 0x1000175C4, symSize: 0x20 }
  - { offsetInCU: 0x1D9E2, offset: 0x6D4CB, size: 0x8, addend: 0x0, symName: __ZNSt8_Rb_treeINSt7__cxx1112basic_stringIcSt11char_traitsIcESaIcEEESt4pairIKS5_8CommandsESt10_Select1stIS9_ESt4lessIS5_ESaIS9_EE13_Rb_tree_implISD_Lb1EEC1ERKSD_OSaISt13_Rb_tree_nodeIS9_EE, symObjAddr: 0x71FC, symBinAddr: 0x1000175E4, symSize: 0x4C }
  - { offsetInCU: 0x1DA08, offset: 0x6D4F1, size: 0x8, addend: 0x0, symName: __ZNSaISt13_Rb_tree_nodeISt4pairIKNSt7__cxx1112basic_stringIcSt11char_traitsIcESaIcEEE8CommandsEEED2Ev, symObjAddr: 0x71BC, symBinAddr: 0x1000175A4, symSize: 0x20 }
  - { offsetInCU: 0x1DA10, offset: 0x6D4F9, size: 0x8, addend: 0x0, symName: __ZNSaISt13_Rb_tree_nodeISt4pairIKNSt7__cxx1112basic_stringIcSt11char_traitsIcESaIcEEE8CommandsEEED1Ev, symObjAddr: 0x71DC, symBinAddr: 0x1000175C4, symSize: 0x20 }
  - { offsetInCU: 0x1DA71, offset: 0x6D55A, size: 0x8, addend: 0x0, symName: __ZNSaISt13_Rb_tree_nodeISt4pairIKNSt7__cxx1112basic_stringIcSt11char_traitsIcESaIcEEE8CommandsEEEC1IS9_EERKSaIT_E, symObjAddr: 0x7198, symBinAddr: 0x100017580, symSize: 0x24 }
  - { offsetInCU: 0x1DA79, offset: 0x6D562, size: 0x8, addend: 0x0, symName: __ZNSaISt13_Rb_tree_nodeISt4pairIKNSt7__cxx1112basic_stringIcSt11char_traitsIcESaIcEEE8CommandsEEED2Ev, symObjAddr: 0x71BC, symBinAddr: 0x1000175A4, symSize: 0x20 }
  - { offsetInCU: 0x1DAD6, offset: 0x6D5BF, size: 0x8, addend: 0x0, symName: __ZN9__gnu_cxx13new_allocatorISt4pairIKNSt7__cxx1112basic_stringIcSt11char_traitsIcESaIcEEE8CommandsEEC2ERKSB_, symObjAddr: 0x7180, symBinAddr: 0x100017568, symSize: 0x18 }
  - { offsetInCU: 0x1DADE, offset: 0x6D5C7, size: 0x8, addend: 0x0, symName: __ZNSaISt13_Rb_tree_nodeISt4pairIKNSt7__cxx1112basic_stringIcSt11char_traitsIcESaIcEEE8CommandsEEEC1IS9_EERKSaIT_E, symObjAddr: 0x7198, symBinAddr: 0x100017580, symSize: 0x24 }
  - { offsetInCU: 0x1DAA2, offset: 0x6D58B, size: 0x8, addend: 0x0, symName: __ZNSt8_Rb_treeINSt7__cxx1112basic_stringIcSt11char_traitsIcESaIcEEESt4pairIKS5_5TypesESt10_Select1stIS9_ESt4lessIS5_ESaIS9_EE22_M_emplace_hint_uniqueIJRKSt21piecewise_construct_tSt5tupleIJOS5_EESK_IJEEEEESt17_Rb_tree_iteratorIS9_ESt23_Rb_tree_const_iteratorIS9_EDpOT_, symObjAddr: 0x6A78, symBinAddr: 0x100017478, symSize: 0xF0 }
  - { offsetInCU: 0x1DC36, offset: 0x6D71F, size: 0x8, addend: 0x0, symName: __ZSt16forward_as_tupleIJNSt7__cxx1112basic_stringIcSt11char_traitsIcESaIcEEEEESt5tupleIJDpOT_EES9_, symObjAddr: 0x6A40, symBinAddr: 0x100017440, symSize: 0x38 }
  - { offsetInCU: 0x1DC3E, offset: 0x6D727, size: 0x8, addend: 0x0, symName: __ZNSt8_Rb_treeINSt7__cxx1112basic_stringIcSt11char_traitsIcESaIcEEESt4pairIKS5_5TypesESt10_Select1stIS9_ESt4lessIS5_ESaIS9_EE22_M_emplace_hint_uniqueIJRKSt21piecewise_construct_tSt5tupleIJOS5_EESK_IJEEEEESt17_Rb_tree_iteratorIS9_ESt23_Rb_tree_const_iteratorIS9_EDpOT_, symObjAddr: 0x6A78, symBinAddr: 0x100017478, symSize: 0xF0 }
  - { offsetInCU: 0x1DC00, offset: 0x6D6E9, size: 0x8, addend: 0x0, symName: __ZSt7forwardIRfEOT_RNSt16remove_referenceIS1_E4typeE, symObjAddr: 0x6968, symBinAddr: 0x10001742C, symSize: 0x14 }
  - { offsetInCU: 0x1DC5C, offset: 0x6D745, size: 0x8, addend: 0x0, symName: __ZSt7forwardIRiEOT_RNSt16remove_referenceIS1_E4typeE, symObjAddr: 0x6954, symBinAddr: 0x100017418, symSize: 0x14 }
  - { offsetInCU: 0x1DC64, offset: 0x6D74D, size: 0x8, addend: 0x0, symName: __ZSt7forwardIRfEOT_RNSt16remove_referenceIS1_E4typeE, symObjAddr: 0x6968, symBinAddr: 0x10001742C, symSize: 0x14 }
  - { offsetInCU: 0x1DC73, offset: 0x6D75C, size: 0x8, addend: 0x0, symName: __ZNSt8_Rb_treeINSt7__cxx1112basic_stringIcSt11char_traitsIcESaIcEEESt4pairIKS5_6FieldsESt10_Select1stIS9_ESt4lessIS5_ESaIS9_EE22_M_emplace_hint_uniqueIJRKSt21piecewise_construct_tSt5tupleIJRS7_EESK_IJEEEEESt17_Rb_tree_iteratorIS9_ESt23_Rb_tree_const_iteratorIS9_EDpOT_, symObjAddr: 0x63B4, symBinAddr: 0x100017328, symSize: 0xF0 }
  - { offsetInCU: 0x1DDEB, offset: 0x6D8D4, size: 0x8, addend: 0x0, symName: __ZNSt23_Rb_tree_const_iteratorISt4pairIKNSt7__cxx1112basic_stringIcSt11char_traitsIcESaIcEEE6FieldsEEC1ERKSt17_Rb_tree_iteratorIS9_E, symObjAddr: 0x638C, symBinAddr: 0x100017300, symSize: 0x28 }
  - { offsetInCU: 0x1DDF3, offset: 0x6D8DC, size: 0x8, addend: 0x0, symName: __ZNSt8_Rb_treeINSt7__cxx1112basic_stringIcSt11char_traitsIcESaIcEEESt4pairIKS5_6FieldsESt10_Select1stIS9_ESt4lessIS5_ESaIS9_EE22_M_emplace_hint_uniqueIJRKSt21piecewise_construct_tSt5tupleIJRS7_EESK_IJEEEEESt17_Rb_tree_iteratorIS9_ESt23_Rb_tree_const_iteratorIS9_EDpOT_, symObjAddr: 0x63B4, symBinAddr: 0x100017328, symSize: 0xF0 }
  - { offsetInCU: 0x1DDA0, offset: 0x6D889, size: 0x8, addend: 0x0, symName: __ZNKSt17_Rb_tree_iteratorISt4pairIKNSt7__cxx1112basic_stringIcSt11char_traitsIcESaIcEEE6FieldsEEdeEv, symObjAddr: 0x636C, symBinAddr: 0x1000172E0, symSize: 0x20 }
  - { offsetInCU: 0x1DDA8, offset: 0x6D891, size: 0x8, addend: 0x0, symName: __ZNSt23_Rb_tree_const_iteratorISt4pairIKNSt7__cxx1112basic_stringIcSt11char_traitsIcESaIcEEE6FieldsEEC1ERKSt17_Rb_tree_iteratorIS9_E, symObjAddr: 0x638C, symBinAddr: 0x100017300, symSize: 0x28 }
  - { offsetInCU: 0x1DDCF, offset: 0x6D8B8, size: 0x8, addend: 0x0, symName: __ZNKSt3mapINSt7__cxx1112basic_stringIcSt11char_traitsIcESaIcEEE6FieldsSt4lessIS5_ESaISt4pairIKS5_S6_EEE8key_compEv, symObjAddr: 0x6340, symBinAddr: 0x1000172B4, symSize: 0x2C }
  - { offsetInCU: 0x1DDD7, offset: 0x6D8C0, size: 0x8, addend: 0x0, symName: __ZNKSt17_Rb_tree_iteratorISt4pairIKNSt7__cxx1112basic_stringIcSt11char_traitsIcESaIcEEE6FieldsEEdeEv, symObjAddr: 0x636C, symBinAddr: 0x1000172E0, symSize: 0x20 }
  - { offsetInCU: 0x1DE6F, offset: 0x6D958, size: 0x8, addend: 0x0, symName: __ZSteqRKSt17_Rb_tree_iteratorISt4pairIKNSt7__cxx1112basic_stringIcSt11char_traitsIcESaIcEEE6FieldsEESC_, symObjAddr: 0x6310, symBinAddr: 0x100017284, symSize: 0x30 }
  - { offsetInCU: 0x1DE77, offset: 0x6D960, size: 0x8, addend: 0x0, symName: __ZNKSt3mapINSt7__cxx1112basic_stringIcSt11char_traitsIcESaIcEEE6FieldsSt4lessIS5_ESaISt4pairIKS5_S6_EEE8key_compEv, symObjAddr: 0x6340, symBinAddr: 0x1000172B4, symSize: 0x2C }
  - { offsetInCU: 0x1DE5B, offset: 0x6D944, size: 0x8, addend: 0x0, symName: __ZNSt3mapINSt7__cxx1112basic_stringIcSt11char_traitsIcESaIcEEE6FieldsSt4lessIS5_ESaISt4pairIKS5_S6_EEE3endEv, symObjAddr: 0x62F4, symBinAddr: 0x100017268, symSize: 0x1C }
  - { offsetInCU: 0x1DE63, offset: 0x6D94C, size: 0x8, addend: 0x0, symName: __ZSteqRKSt17_Rb_tree_iteratorISt4pairIKNSt7__cxx1112basic_stringIcSt11char_traitsIcESaIcEEE6FieldsEESC_, symObjAddr: 0x6310, symBinAddr: 0x100017284, symSize: 0x30 }
  - { offsetInCU: 0x1DE8A, offset: 0x6D973, size: 0x8, addend: 0x0, symName: __ZNSt3mapINSt7__cxx1112basic_stringIcSt11char_traitsIcESaIcEEE6FieldsSt4lessIS5_ESaISt4pairIKS5_S6_EEE11lower_boundERSA_, symObjAddr: 0x62D0, symBinAddr: 0x100017244, symSize: 0x24 }
  - { offsetInCU: 0x1DE92, offset: 0x6D97B, size: 0x8, addend: 0x0, symName: __ZNSt3mapINSt7__cxx1112basic_stringIcSt11char_traitsIcESaIcEEE6FieldsSt4lessIS5_ESaISt4pairIKS5_S6_EEE3endEv, symObjAddr: 0x62F4, symBinAddr: 0x100017268, symSize: 0x1C }
  - { offsetInCU: 0x1DECD, offset: 0x6D9B6, size: 0x8, addend: 0x0, symName: __ZNSt8_Rb_treeINSt7__cxx1112basic_stringIcSt11char_traitsIcESaIcEEESt4pairIKS5_5TypesESt10_Select1stIS9_ESt4lessIS5_ESaIS9_EE22_M_emplace_hint_uniqueIJRKSt21piecewise_construct_tSt5tupleIJRS7_EESK_IJEEEEESt17_Rb_tree_iteratorIS9_ESt23_Rb_tree_const_iteratorIS9_EDpOT_, symObjAddr: 0x61E0, symBinAddr: 0x100017154, symSize: 0xF0 }
  - { offsetInCU: 0x1DED5, offset: 0x6D9BE, size: 0x8, addend: 0x0, symName: __ZNSt3mapINSt7__cxx1112basic_stringIcSt11char_traitsIcESaIcEEE6FieldsSt4lessIS5_ESaISt4pairIKS5_S6_EEE11lower_boundERSA_, symObjAddr: 0x62D0, symBinAddr: 0x100017244, symSize: 0x24 }
  - { offsetInCU: 0x1E044, offset: 0x6DB2D, size: 0x8, addend: 0x0, symName: __ZNSt23_Rb_tree_const_iteratorISt4pairIKNSt7__cxx1112basic_stringIcSt11char_traitsIcESaIcEEE5TypesEEC1ERKSt17_Rb_tree_iteratorIS9_E, symObjAddr: 0x61B8, symBinAddr: 0x10001712C, symSize: 0x28 }
  - { offsetInCU: 0x1E04C, offset: 0x6DB35, size: 0x8, addend: 0x0, symName: __ZNSt8_Rb_treeINSt7__cxx1112basic_stringIcSt11char_traitsIcESaIcEEESt4pairIKS5_5TypesESt10_Select1stIS9_ESt4lessIS5_ESaIS9_EE22_M_emplace_hint_uniqueIJRKSt21piecewise_construct_tSt5tupleIJRS7_EESK_IJEEEEESt17_Rb_tree_iteratorIS9_ESt23_Rb_tree_const_iteratorIS9_EDpOT_, symObjAddr: 0x61E0, symBinAddr: 0x100017154, symSize: 0xF0 }
  - { offsetInCU: 0x1DFFA, offset: 0x6DAE3, size: 0x8, addend: 0x0, symName: __ZNKSt17_Rb_tree_iteratorISt4pairIKNSt7__cxx1112basic_stringIcSt11char_traitsIcESaIcEEE5TypesEEdeEv, symObjAddr: 0x6198, symBinAddr: 0x10001710C, symSize: 0x20 }
  - { offsetInCU: 0x1E002, offset: 0x6DAEB, size: 0x8, addend: 0x0, symName: __ZNSt23_Rb_tree_const_iteratorISt4pairIKNSt7__cxx1112basic_stringIcSt11char_traitsIcESaIcEEE5TypesEEC1ERKSt17_Rb_tree_iteratorIS9_E, symObjAddr: 0x61B8, symBinAddr: 0x10001712C, symSize: 0x28 }
  - { offsetInCU: 0x1E029, offset: 0x6DB12, size: 0x8, addend: 0x0, symName: __ZNKSt3mapINSt7__cxx1112basic_stringIcSt11char_traitsIcESaIcEEE5TypesSt4lessIS5_ESaISt4pairIKS5_S6_EEE8key_compEv, symObjAddr: 0x616C, symBinAddr: 0x1000170E0, symSize: 0x2C }
  - { offsetInCU: 0x1E031, offset: 0x6DB1A, size: 0x8, addend: 0x0, symName: __ZNKSt17_Rb_tree_iteratorISt4pairIKNSt7__cxx1112basic_stringIcSt11char_traitsIcESaIcEEE5TypesEEdeEv, symObjAddr: 0x6198, symBinAddr: 0x10001710C, symSize: 0x20 }
  - { offsetInCU: 0x1E0C8, offset: 0x6DBB1, size: 0x8, addend: 0x0, symName: __ZSteqRKSt17_Rb_tree_iteratorISt4pairIKNSt7__cxx1112basic_stringIcSt11char_traitsIcESaIcEEE5TypesEESC_, symObjAddr: 0x613C, symBinAddr: 0x1000170B0, symSize: 0x30 }
  - { offsetInCU: 0x1E0D0, offset: 0x6DBB9, size: 0x8, addend: 0x0, symName: __ZNKSt3mapINSt7__cxx1112basic_stringIcSt11char_traitsIcESaIcEEE5TypesSt4lessIS5_ESaISt4pairIKS5_S6_EEE8key_compEv, symObjAddr: 0x616C, symBinAddr: 0x1000170E0, symSize: 0x2C }
  - { offsetInCU: 0x1E0B5, offset: 0x6DB9E, size: 0x8, addend: 0x0, symName: __ZNSt3mapINSt7__cxx1112basic_stringIcSt11char_traitsIcESaIcEEE5TypesSt4lessIS5_ESaISt4pairIKS5_S6_EEE3endEv, symObjAddr: 0x6120, symBinAddr: 0x100017094, symSize: 0x1C }
  - { offsetInCU: 0x1E0BD, offset: 0x6DBA6, size: 0x8, addend: 0x0, symName: __ZSteqRKSt17_Rb_tree_iteratorISt4pairIKNSt7__cxx1112basic_stringIcSt11char_traitsIcESaIcEEE5TypesEESC_, symObjAddr: 0x613C, symBinAddr: 0x1000170B0, symSize: 0x30 }
  - { offsetInCU: 0x1E0E4, offset: 0x6DBCD, size: 0x8, addend: 0x0, symName: __ZNSt3mapINSt7__cxx1112basic_stringIcSt11char_traitsIcESaIcEEE5TypesSt4lessIS5_ESaISt4pairIKS5_S6_EEE11lower_boundERSA_, symObjAddr: 0x60FC, symBinAddr: 0x100017070, symSize: 0x24 }
  - { offsetInCU: 0x1E0EC, offset: 0x6DBD5, size: 0x8, addend: 0x0, symName: __ZNSt3mapINSt7__cxx1112basic_stringIcSt11char_traitsIcESaIcEEE5TypesSt4lessIS5_ESaISt4pairIKS5_S6_EEE3endEv, symObjAddr: 0x6120, symBinAddr: 0x100017094, symSize: 0x1C }
  - { offsetInCU: 0x1E127, offset: 0x6DC10, size: 0x8, addend: 0x0, symName: __ZNSt8_Rb_treeINSt7__cxx1112basic_stringIcSt11char_traitsIcESaIcEEESt4pairIKS5_8CommandsESt10_Select1stIS9_ESt4lessIS5_ESaIS9_EE22_M_emplace_hint_uniqueIJRKSt21piecewise_construct_tSt5tupleIJRS7_EESK_IJEEEEESt17_Rb_tree_iteratorIS9_ESt23_Rb_tree_const_iteratorIS9_EDpOT_, symObjAddr: 0x600C, symBinAddr: 0x100016F80, symSize: 0xF0 }
  - { offsetInCU: 0x1E12F, offset: 0x6DC18, size: 0x8, addend: 0x0, symName: __ZNSt3mapINSt7__cxx1112basic_stringIcSt11char_traitsIcESaIcEEE5TypesSt4lessIS5_ESaISt4pairIKS5_S6_EEE11lower_boundERSA_, symObjAddr: 0x60FC, symBinAddr: 0x100017070, symSize: 0x24 }
  - { offsetInCU: 0x1E2A1, offset: 0x6DD8A, size: 0x8, addend: 0x0, symName: __ZNSt23_Rb_tree_const_iteratorISt4pairIKNSt7__cxx1112basic_stringIcSt11char_traitsIcESaIcEEE8CommandsEEC1ERKSt17_Rb_tree_iteratorIS9_E, symObjAddr: 0x5FE4, symBinAddr: 0x100016F58, symSize: 0x28 }
  - { offsetInCU: 0x1E2A9, offset: 0x6DD92, size: 0x8, addend: 0x0, symName: __ZNSt8_Rb_treeINSt7__cxx1112basic_stringIcSt11char_traitsIcESaIcEEESt4pairIKS5_8CommandsESt10_Select1stIS9_ESt4lessIS5_ESaIS9_EE22_M_emplace_hint_uniqueIJRKSt21piecewise_construct_tSt5tupleIJRS7_EESK_IJEEEEESt17_Rb_tree_iteratorIS9_ESt23_Rb_tree_const_iteratorIS9_EDpOT_, symObjAddr: 0x600C, symBinAddr: 0x100016F80, symSize: 0xF0 }
  - { offsetInCU: 0x1E2E3, offset: 0x6DDCC, size: 0x8, addend: 0x0, symName: __ZNSt5tupleIJRKNSt7__cxx1112basic_stringIcSt11char_traitsIcESaIcEEEEEC1ILb1ELb1EEES7_, symObjAddr: 0x5FBC, symBinAddr: 0x100016F30, symSize: 0x28 }
  - { offsetInCU: 0x1E2EB, offset: 0x6DDD4, size: 0x8, addend: 0x0, symName: __ZNSt23_Rb_tree_const_iteratorISt4pairIKNSt7__cxx1112basic_stringIcSt11char_traitsIcESaIcEEE8CommandsEEC1ERKSt17_Rb_tree_iteratorIS9_E, symObjAddr: 0x5FE4, symBinAddr: 0x100016F58, symSize: 0x28 }
  - { offsetInCU: 0x1E2D6, offset: 0x6DDBF, size: 0x8, addend: 0x0, symName: __ZNKSt17_Rb_tree_iteratorISt4pairIKNSt7__cxx1112basic_stringIcSt11char_traitsIcESaIcEEE8CommandsEEdeEv, symObjAddr: 0x5F70, symBinAddr: 0x100016F10, symSize: 0x20 }
  - { offsetInCU: 0x1E305, offset: 0x6DDEE, size: 0x8, addend: 0x0, symName: __ZNKSt3mapINSt7__cxx1112basic_stringIcSt11char_traitsIcESaIcEEE8CommandsSt4lessIS5_ESaISt4pairIKS5_S6_EEE8key_compEv, symObjAddr: 0x5F44, symBinAddr: 0x100016EE4, symSize: 0x2C }
  - { offsetInCU: 0x1E30D, offset: 0x6DDF6, size: 0x8, addend: 0x0, symName: __ZNKSt17_Rb_tree_iteratorISt4pairIKNSt7__cxx1112basic_stringIcSt11char_traitsIcESaIcEEE8CommandsEEdeEv, symObjAddr: 0x5F70, symBinAddr: 0x100016F10, symSize: 0x20 }
  - { offsetInCU: 0x1E3A7, offset: 0x6DE90, size: 0x8, addend: 0x0, symName: __ZSteqRKSt17_Rb_tree_iteratorISt4pairIKNSt7__cxx1112basic_stringIcSt11char_traitsIcESaIcEEE8CommandsEESC_, symObjAddr: 0x5F14, symBinAddr: 0x100016EB4, symSize: 0x30 }
  - { offsetInCU: 0x1E3AF, offset: 0x6DE98, size: 0x8, addend: 0x0, symName: __ZNKSt3mapINSt7__cxx1112basic_stringIcSt11char_traitsIcESaIcEEE8CommandsSt4lessIS5_ESaISt4pairIKS5_S6_EEE8key_compEv, symObjAddr: 0x5F44, symBinAddr: 0x100016EE4, symSize: 0x2C }
  - { offsetInCU: 0x1E391, offset: 0x6DE7A, size: 0x8, addend: 0x0, symName: __ZNSt3mapINSt7__cxx1112basic_stringIcSt11char_traitsIcESaIcEEE8CommandsSt4lessIS5_ESaISt4pairIKS5_S6_EEE3endEv, symObjAddr: 0x5EF8, symBinAddr: 0x100016E98, symSize: 0x1C }
  - { offsetInCU: 0x1E399, offset: 0x6DE82, size: 0x8, addend: 0x0, symName: __ZSteqRKSt17_Rb_tree_iteratorISt4pairIKNSt7__cxx1112basic_stringIcSt11char_traitsIcESaIcEEE8CommandsEESC_, symObjAddr: 0x5F14, symBinAddr: 0x100016EB4, symSize: 0x30 }
  - { offsetInCU: 0x1E3C0, offset: 0x6DEA9, size: 0x8, addend: 0x0, symName: __ZNSt3mapINSt7__cxx1112basic_stringIcSt11char_traitsIcESaIcEEE8CommandsSt4lessIS5_ESaISt4pairIKS5_S6_EEE11lower_boundERSA_, symObjAddr: 0x5ED4, symBinAddr: 0x100016E74, symSize: 0x24 }
  - { offsetInCU: 0x1E3C8, offset: 0x6DEB1, size: 0x8, addend: 0x0, symName: __ZNSt3mapINSt7__cxx1112basic_stringIcSt11char_traitsIcESaIcEEE8CommandsSt4lessIS5_ESaISt4pairIKS5_S6_EEE3endEv, symObjAddr: 0x5EF8, symBinAddr: 0x100016E98, symSize: 0x1C }
  - { offsetInCU: 0x1E403, offset: 0x6DEEC, size: 0x8, addend: 0x0, symName: __ZNSt8_Rb_treeINSt7__cxx1112basic_stringIcSt11char_traitsIcESaIcEEES5_St9_IdentityIS5_ESt4lessIS5_ESaIS5_EE7_M_copyERKSB_, symObjAddr: 0x5E1C, symBinAddr: 0x100016E3C, symSize: 0x38 }
  - { offsetInCU: 0x1E45A, offset: 0x6DF43, size: 0x8, addend: 0x0, symName: __ZNSt8_Rb_treeINSt7__cxx1112basic_stringIcSt11char_traitsIcESaIcEEES5_St9_IdentityIS5_ESt4lessIS5_ESaIS5_EE7_M_rootEv, symObjAddr: 0x5E04, symBinAddr: 0x100016E24, symSize: 0x18 }
  - { offsetInCU: 0x1E462, offset: 0x6DF4B, size: 0x8, addend: 0x0, symName: __ZNSt8_Rb_treeINSt7__cxx1112basic_stringIcSt11char_traitsIcESaIcEEES5_St9_IdentityIS5_ESt4lessIS5_ESaIS5_EE7_M_copyERKSB_, symObjAddr: 0x5E1C, symBinAddr: 0x100016E3C, symSize: 0x38 }
  - { offsetInCU: 0x1E489, offset: 0x6DF72, size: 0x8, addend: 0x0, symName: __ZNKSt8_Rb_treeINSt7__cxx1112basic_stringIcSt11char_traitsIcESaIcEEES5_St9_IdentityIS5_ESt4lessIS5_ESaIS5_EE7_M_rootEv, symObjAddr: 0x5DEC, symBinAddr: 0x100016E0C, symSize: 0x18 }
  - { offsetInCU: 0x1E491, offset: 0x6DF7A, size: 0x8, addend: 0x0, symName: __ZNSt8_Rb_treeINSt7__cxx1112basic_stringIcSt11char_traitsIcESaIcEEES5_St9_IdentityIS5_ESt4lessIS5_ESaIS5_EE7_M_rootEv, symObjAddr: 0x5E04, symBinAddr: 0x100016E24, symSize: 0x18 }
  - { offsetInCU: 0x1E56E, offset: 0x6E057, size: 0x8, addend: 0x0, symName: __ZNSt8_Rb_treeINSt7__cxx1112basic_stringIcSt11char_traitsIcESaIcEEES5_St9_IdentityIS5_ESt4lessIS5_ESaIS5_EE13_Rb_tree_implIS9_Lb1EEC1ERKSD_, symObjAddr: 0x5D50, symBinAddr: 0x100016DB0, symSize: 0x5C }
  - { offsetInCU: 0x1E51C, offset: 0x6E005, size: 0x8, addend: 0x0, symName: __ZNKSt8_Rb_treeINSt7__cxx1112basic_stringIcSt11char_traitsIcESaIcEEES5_St9_IdentityIS5_ESt4lessIS5_ESaIS5_EE3endEv, symObjAddr: 0x5D28, symBinAddr: 0x100016D88, symSize: 0x28 }
  - { offsetInCU: 0x1E524, offset: 0x6E00D, size: 0x8, addend: 0x0, symName: __ZNSt8_Rb_treeINSt7__cxx1112basic_stringIcSt11char_traitsIcESaIcEEES5_St9_IdentityIS5_ESt4lessIS5_ESaIS5_EE13_Rb_tree_implIS9_Lb1EEC1ERKSD_, symObjAddr: 0x5D50, symBinAddr: 0x100016DB0, symSize: 0x5C }
  - { offsetInCU: 0x1E54B, offset: 0x6E034, size: 0x8, addend: 0x0, symName: __ZNSt8_Rb_treeINSt7__cxx1112basic_stringIcSt11char_traitsIcESaIcEEES5_St9_IdentityIS5_ESt4lessIS5_ESaIS5_EE4findERKS5_, symObjAddr: 0x5C58, symBinAddr: 0x100016CE0, symSize: 0xA8 }
  - { offsetInCU: 0x1E5A2, offset: 0x6E08B, size: 0x8, addend: 0x0, symName: __ZNSt8_Rb_treeINSt7__cxx1112basic_stringIcSt11char_traitsIcESaIcEEESt4pairIKS5_5TypesESt10_Select1stIS9_ESt4lessIS5_ESaIS9_EE22_M_insert_range_uniqueIPKS9_EENSt9enable_ifIXsrSt7is_sameIS9_NSt15iterator_traitsIT_E10value_typeEE5valueEvE4typeESM_SM_, symObjAddr: 0x5BD8, symBinAddr: 0x100016C60, symSize: 0x80 }
  - { offsetInCU: 0x1E5AA, offset: 0x6E093, size: 0x8, addend: 0x0, symName: __ZNSt8_Rb_treeINSt7__cxx1112basic_stringIcSt11char_traitsIcESaIcEEES5_St9_IdentityIS5_ESt4lessIS5_ESaIS5_EE4findERKS5_, symObjAddr: 0x5C58, symBinAddr: 0x100016CE0, symSize: 0xA8 }
  - { offsetInCU: 0x1E61A, offset: 0x6E103, size: 0x8, addend: 0x0, symName: __ZNKSt16initializer_listISt4pairIKNSt7__cxx1112basic_stringIcSt11char_traitsIcESaIcEEE5TypesEE3endEv, symObjAddr: 0x5B90, symBinAddr: 0x100016C18, symSize: 0x48 }
  - { offsetInCU: 0x1E622, offset: 0x6E10B, size: 0x8, addend: 0x0, symName: __ZNSt8_Rb_treeINSt7__cxx1112basic_stringIcSt11char_traitsIcESaIcEEESt4pairIKS5_5TypesESt10_Select1stIS9_ESt4lessIS5_ESaIS9_EE22_M_insert_range_uniqueIPKS9_EENSt9enable_ifIXsrSt7is_sameIS9_NSt15iterator_traitsIT_E10value_typeEE5valueEvE4typeESM_SM_, symObjAddr: 0x5BD8, symBinAddr: 0x100016C60, symSize: 0x80 }
  - { offsetInCU: 0x1E649, offset: 0x6E132, size: 0x8, addend: 0x0, symName: __ZNKSt16initializer_listISt4pairIKNSt7__cxx1112basic_stringIcSt11char_traitsIcESaIcEEE5TypesEE5beginEv, symObjAddr: 0x5B78, symBinAddr: 0x100016C00, symSize: 0x18 }
  - { offsetInCU: 0x1E651, offset: 0x6E13A, size: 0x8, addend: 0x0, symName: __ZNKSt16initializer_listISt4pairIKNSt7__cxx1112basic_stringIcSt11char_traitsIcESaIcEEE5TypesEE3endEv, symObjAddr: 0x5B90, symBinAddr: 0x100016C18, symSize: 0x48 }
  - { offsetInCU: 0x1E721, offset: 0x6E20A, size: 0x8, addend: 0x0, symName: __ZNSt8_Rb_treeINSt7__cxx1112basic_stringIcSt11char_traitsIcESaIcEEESt4pairIKS5_5TypesESt10_Select1stIS9_ESt4lessIS5_ESaIS9_EED1Ev, symObjAddr: 0x5B44, symBinAddr: 0x100016BCC, symSize: 0x34 }
  - { offsetInCU: 0x1E729, offset: 0x6E212, size: 0x8, addend: 0x0, symName: __ZNKSt16initializer_listISt4pairIKNSt7__cxx1112basic_stringIcSt11char_traitsIcESaIcEEE5TypesEE5beginEv, symObjAddr: 0x5B78, symBinAddr: 0x100016C00, symSize: 0x18 }
  - { offsetInCU: 0x1E793, offset: 0x6E27C, size: 0x8, addend: 0x0, symName: __ZNSt8_Rb_treeINSt7__cxx1112basic_stringIcSt11char_traitsIcESaIcEEESt4pairIKS5_5TypesESt10_Select1stIS9_ESt4lessIS5_ESaIS9_EEC1ERKSD_RKSE_, symObjAddr: 0x5ADC, symBinAddr: 0x100016B64, symSize: 0x68 }
  - { offsetInCU: 0x1E79B, offset: 0x6E284, size: 0x8, addend: 0x0, symName: __ZNSt8_Rb_treeINSt7__cxx1112basic_stringIcSt11char_traitsIcESaIcEEESt4pairIKS5_5TypesESt10_Select1stIS9_ESt4lessIS5_ESaIS9_EED1Ev, symObjAddr: 0x5B44, symBinAddr: 0x100016BCC, symSize: 0x34 }
  - { offsetInCU: 0x1E813, offset: 0x6E2FC, size: 0x8, addend: 0x0, symName: __ZNSt8_Rb_treeINSt7__cxx1112basic_stringIcSt11char_traitsIcESaIcEEESt4pairIKS5_5TypesESt10_Select1stIS9_ESt4lessIS5_ESaIS9_EE13_Rb_tree_implISD_Lb1EED1Ev, symObjAddr: 0x5ABC, symBinAddr: 0x100016B44, symSize: 0x20 }
  - { offsetInCU: 0x1E81B, offset: 0x6E304, size: 0x8, addend: 0x0, symName: __ZNSt8_Rb_treeINSt7__cxx1112basic_stringIcSt11char_traitsIcESaIcEEESt4pairIKS5_5TypesESt10_Select1stIS9_ESt4lessIS5_ESaIS9_EEC1ERKSD_RKSE_, symObjAddr: 0x5ADC, symBinAddr: 0x100016B64, symSize: 0x68 }
  - { offsetInCU: 0x1E824, offset: 0x6E30D, size: 0x8, addend: 0x0, symName: __ZNSaISt4pairIKNSt7__cxx1112basic_stringIcSt11char_traitsIcESaIcEEE5TypesEEC1ERKS9_, symObjAddr: 0x5A94, symBinAddr: 0x100016B1C, symSize: 0x28 }
  - { offsetInCU: 0x1E82C, offset: 0x6E315, size: 0x8, addend: 0x0, symName: __ZNSt8_Rb_treeINSt7__cxx1112basic_stringIcSt11char_traitsIcESaIcEEESt4pairIKS5_5TypesESt10_Select1stIS9_ESt4lessIS5_ESaIS9_EE13_Rb_tree_implISD_Lb1EED1Ev, symObjAddr: 0x5ABC, symBinAddr: 0x100016B44, symSize: 0x20 }
  - { offsetInCU: 0x1E898, offset: 0x6E381, size: 0x8, addend: 0x0, symName: __ZN9__gnu_cxx13new_allocatorISt4pairIKNSt7__cxx1112basic_stringIcSt11char_traitsIcESaIcEEE5TypesEED2Ev, symObjAddr: 0x5A80, symBinAddr: 0x100016B08, symSize: 0x14 }
  - { offsetInCU: 0x1E8A0, offset: 0x6E389, size: 0x8, addend: 0x0, symName: __ZNSaISt4pairIKNSt7__cxx1112basic_stringIcSt11char_traitsIcESaIcEEE5TypesEEC1ERKS9_, symObjAddr: 0x5A94, symBinAddr: 0x100016B1C, symSize: 0x28 }
  - { offsetInCU: 0x1E8DF, offset: 0x6E3C8, size: 0x8, addend: 0x0, symName: __ZN9__gnu_cxx13new_allocatorISt4pairIKNSt7__cxx1112basic_stringIcSt11char_traitsIcESaIcEEE5TypesEEC2Ev, symObjAddr: 0x5A6C, symBinAddr: 0x100016AF4, symSize: 0x14 }
  - { offsetInCU: 0x1E8E7, offset: 0x6E3D0, size: 0x8, addend: 0x0, symName: __ZN9__gnu_cxx13new_allocatorISt4pairIKNSt7__cxx1112basic_stringIcSt11char_traitsIcESaIcEEE5TypesEED2Ev, symObjAddr: 0x5A80, symBinAddr: 0x100016B08, symSize: 0x14 }
  - { offsetInCU: 0x1E8A6, offset: 0x6E38F, size: 0x8, addend: 0x0, symName: __ZNSt8_Rb_treeINSt7__cxx1112basic_stringIcSt11char_traitsIcESaIcEEESt4pairIKS5_6FieldsESt10_Select1stIS9_ESt4lessIS5_ESaIS9_EE22_M_insert_range_uniqueIPKS9_EENSt9enable_ifIXsrSt7is_sameIS9_NSt15iterator_traitsIT_E10value_typeEE5valueEvE4typeESM_SM_, symObjAddr: 0x59EC, symBinAddr: 0x100016A74, symSize: 0x80 }
  - { offsetInCU: 0x1E8AE, offset: 0x6E397, size: 0x8, addend: 0x0, symName: __ZN9__gnu_cxx13new_allocatorISt4pairIKNSt7__cxx1112basic_stringIcSt11char_traitsIcESaIcEEE5TypesEEC2Ev, symObjAddr: 0x5A6C, symBinAddr: 0x100016AF4, symSize: 0x14 }
  - { offsetInCU: 0x1E91E, offset: 0x6E407, size: 0x8, addend: 0x0, symName: __ZNKSt16initializer_listISt4pairIKNSt7__cxx1112basic_stringIcSt11char_traitsIcESaIcEEE6FieldsEE3endEv, symObjAddr: 0x59A4, symBinAddr: 0x100016A2C, symSize: 0x48 }
  - { offsetInCU: 0x1E926, offset: 0x6E40F, size: 0x8, addend: 0x0, symName: __ZNSt8_Rb_treeINSt7__cxx1112basic_stringIcSt11char_traitsIcESaIcEEESt4pairIKS5_6FieldsESt10_Select1stIS9_ESt4lessIS5_ESaIS9_EE22_M_insert_range_uniqueIPKS9_EENSt9enable_ifIXsrSt7is_sameIS9_NSt15iterator_traitsIT_E10value_typeEE5valueEvE4typeESM_SM_, symObjAddr: 0x59EC, symBinAddr: 0x100016A74, symSize: 0x80 }
  - { offsetInCU: 0x1E94D, offset: 0x6E436, size: 0x8, addend: 0x0, symName: __ZNKSt16initializer_listISt4pairIKNSt7__cxx1112basic_stringIcSt11char_traitsIcESaIcEEE6FieldsEE5beginEv, symObjAddr: 0x598C, symBinAddr: 0x100016A14, symSize: 0x18 }
  - { offsetInCU: 0x1E955, offset: 0x6E43E, size: 0x8, addend: 0x0, symName: __ZNKSt16initializer_listISt4pairIKNSt7__cxx1112basic_stringIcSt11char_traitsIcESaIcEEE6FieldsEE3endEv, symObjAddr: 0x59A4, symBinAddr: 0x100016A2C, symSize: 0x48 }
  - { offsetInCU: 0x1EA26, offset: 0x6E50F, size: 0x8, addend: 0x0, symName: __ZNSt8_Rb_treeINSt7__cxx1112basic_stringIcSt11char_traitsIcESaIcEEESt4pairIKS5_6FieldsESt10_Select1stIS9_ESt4lessIS5_ESaIS9_EED1Ev, symObjAddr: 0x5958, symBinAddr: 0x1000169E0, symSize: 0x34 }
  - { offsetInCU: 0x1EA2E, offset: 0x6E517, size: 0x8, addend: 0x0, symName: __ZNKSt16initializer_listISt4pairIKNSt7__cxx1112basic_stringIcSt11char_traitsIcESaIcEEE6FieldsEE5beginEv, symObjAddr: 0x598C, symBinAddr: 0x100016A14, symSize: 0x18 }
  - { offsetInCU: 0x1EA98, offset: 0x6E581, size: 0x8, addend: 0x0, symName: __ZNSt8_Rb_treeINSt7__cxx1112basic_stringIcSt11char_traitsIcESaIcEEESt4pairIKS5_6FieldsESt10_Select1stIS9_ESt4lessIS5_ESaIS9_EEC1ERKSD_RKSE_, symObjAddr: 0x58F0, symBinAddr: 0x100016978, symSize: 0x68 }
  - { offsetInCU: 0x1EAA0, offset: 0x6E589, size: 0x8, addend: 0x0, symName: __ZNSt8_Rb_treeINSt7__cxx1112basic_stringIcSt11char_traitsIcESaIcEEESt4pairIKS5_6FieldsESt10_Select1stIS9_ESt4lessIS5_ESaIS9_EED1Ev, symObjAddr: 0x5958, symBinAddr: 0x1000169E0, symSize: 0x34 }
  - { offsetInCU: 0x1EB18, offset: 0x6E601, size: 0x8, addend: 0x0, symName: __ZNSt8_Rb_treeINSt7__cxx1112basic_stringIcSt11char_traitsIcESaIcEEESt4pairIKS5_6FieldsESt10_Select1stIS9_ESt4lessIS5_ESaIS9_EE13_Rb_tree_implISD_Lb1EED1Ev, symObjAddr: 0x58D0, symBinAddr: 0x100016958, symSize: 0x20 }
  - { offsetInCU: 0x1EB20, offset: 0x6E609, size: 0x8, addend: 0x0, symName: __ZNSt8_Rb_treeINSt7__cxx1112basic_stringIcSt11char_traitsIcESaIcEEESt4pairIKS5_6FieldsESt10_Select1stIS9_ESt4lessIS5_ESaIS9_EEC1ERKSD_RKSE_, symObjAddr: 0x58F0, symBinAddr: 0x100016978, symSize: 0x68 }
  - { offsetInCU: 0x1EB29, offset: 0x6E612, size: 0x8, addend: 0x0, symName: __ZNSaISt4pairIKNSt7__cxx1112basic_stringIcSt11char_traitsIcESaIcEEE6FieldsEEC1ERKS9_, symObjAddr: 0x58A8, symBinAddr: 0x100016930, symSize: 0x28 }
  - { offsetInCU: 0x1EB31, offset: 0x6E61A, size: 0x8, addend: 0x0, symName: __ZNSt8_Rb_treeINSt7__cxx1112basic_stringIcSt11char_traitsIcESaIcEEESt4pairIKS5_6FieldsESt10_Select1stIS9_ESt4lessIS5_ESaIS9_EE13_Rb_tree_implISD_Lb1EED1Ev, symObjAddr: 0x58D0, symBinAddr: 0x100016958, symSize: 0x20 }
  - { offsetInCU: 0x1EB9D, offset: 0x6E686, size: 0x8, addend: 0x0, symName: __ZN9__gnu_cxx13new_allocatorISt4pairIKNSt7__cxx1112basic_stringIcSt11char_traitsIcESaIcEEE6FieldsEED2Ev, symObjAddr: 0x5894, symBinAddr: 0x10001691C, symSize: 0x14 }
  - { offsetInCU: 0x1EBA5, offset: 0x6E68E, size: 0x8, addend: 0x0, symName: __ZNSaISt4pairIKNSt7__cxx1112basic_stringIcSt11char_traitsIcESaIcEEE6FieldsEEC1ERKS9_, symObjAddr: 0x58A8, symBinAddr: 0x100016930, symSize: 0x28 }
  - { offsetInCU: 0x1EBE4, offset: 0x6E6CD, size: 0x8, addend: 0x0, symName: __ZN9__gnu_cxx13new_allocatorISt4pairIKNSt7__cxx1112basic_stringIcSt11char_traitsIcESaIcEEE6FieldsEEC2Ev, symObjAddr: 0x5880, symBinAddr: 0x100016908, symSize: 0x14 }
  - { offsetInCU: 0x1EBEC, offset: 0x6E6D5, size: 0x8, addend: 0x0, symName: __ZN9__gnu_cxx13new_allocatorISt4pairIKNSt7__cxx1112basic_stringIcSt11char_traitsIcESaIcEEE6FieldsEED2Ev, symObjAddr: 0x5894, symBinAddr: 0x10001691C, symSize: 0x14 }
  - { offsetInCU: 0x1EBAA, offset: 0x6E693, size: 0x8, addend: 0x0, symName: __ZNSt8_Rb_treeINSt7__cxx1112basic_stringIcSt11char_traitsIcESaIcEEESt4pairIKS5_8CommandsESt10_Select1stIS9_ESt4lessIS5_ESaIS9_EE22_M_insert_range_uniqueIPKS9_EENSt9enable_ifIXsrSt7is_sameIS9_NSt15iterator_traitsIT_E10value_typeEE5valueEvE4typeESM_SM_, symObjAddr: 0x5800, symBinAddr: 0x100016888, symSize: 0x80 }
  - { offsetInCU: 0x1EBB2, offset: 0x6E69B, size: 0x8, addend: 0x0, symName: __ZN9__gnu_cxx13new_allocatorISt4pairIKNSt7__cxx1112basic_stringIcSt11char_traitsIcESaIcEEE6FieldsEEC2Ev, symObjAddr: 0x5880, symBinAddr: 0x100016908, symSize: 0x14 }
  - { offsetInCU: 0x1EC22, offset: 0x6E70B, size: 0x8, addend: 0x0, symName: __ZNKSt16initializer_listISt4pairIKNSt7__cxx1112basic_stringIcSt11char_traitsIcESaIcEEE8CommandsEE3endEv, symObjAddr: 0x57B8, symBinAddr: 0x100016840, symSize: 0x48 }
  - { offsetInCU: 0x1EC2A, offset: 0x6E713, size: 0x8, addend: 0x0, symName: __ZNSt8_Rb_treeINSt7__cxx1112basic_stringIcSt11char_traitsIcESaIcEEESt4pairIKS5_8CommandsESt10_Select1stIS9_ESt4lessIS5_ESaIS9_EE22_M_insert_range_uniqueIPKS9_EENSt9enable_ifIXsrSt7is_sameIS9_NSt15iterator_traitsIT_E10value_typeEE5valueEvE4typeESM_SM_, symObjAddr: 0x5800, symBinAddr: 0x100016888, symSize: 0x80 }
  - { offsetInCU: 0x1EC51, offset: 0x6E73A, size: 0x8, addend: 0x0, symName: __ZNKSt16initializer_listISt4pairIKNSt7__cxx1112basic_stringIcSt11char_traitsIcESaIcEEE8CommandsEE5beginEv, symObjAddr: 0x57A0, symBinAddr: 0x100016828, symSize: 0x18 }
  - { offsetInCU: 0x1EC59, offset: 0x6E742, size: 0x8, addend: 0x0, symName: __ZNKSt16initializer_listISt4pairIKNSt7__cxx1112basic_stringIcSt11char_traitsIcESaIcEEE8CommandsEE3endEv, symObjAddr: 0x57B8, symBinAddr: 0x100016840, symSize: 0x48 }
  - { offsetInCU: 0x1ED2C, offset: 0x6E815, size: 0x8, addend: 0x0, symName: __ZNSt8_Rb_treeINSt7__cxx1112basic_stringIcSt11char_traitsIcESaIcEEESt4pairIKS5_8CommandsESt10_Select1stIS9_ESt4lessIS5_ESaIS9_EED1Ev, symObjAddr: 0x576C, symBinAddr: 0x1000167F4, symSize: 0x34 }
  - { offsetInCU: 0x1ED34, offset: 0x6E81D, size: 0x8, addend: 0x0, symName: __ZNKSt16initializer_listISt4pairIKNSt7__cxx1112basic_stringIcSt11char_traitsIcESaIcEEE8CommandsEE5beginEv, symObjAddr: 0x57A0, symBinAddr: 0x100016828, symSize: 0x18 }
  - { offsetInCU: 0x1ED9E, offset: 0x6E887, size: 0x8, addend: 0x0, symName: __ZNSt8_Rb_treeINSt7__cxx1112basic_stringIcSt11char_traitsIcESaIcEEESt4pairIKS5_8CommandsESt10_Select1stIS9_ESt4lessIS5_ESaIS9_EEC1ERKSD_RKSE_, symObjAddr: 0x5704, symBinAddr: 0x10001678C, symSize: 0x68 }
  - { offsetInCU: 0x1EDA6, offset: 0x6E88F, size: 0x8, addend: 0x0, symName: __ZNSt8_Rb_treeINSt7__cxx1112basic_stringIcSt11char_traitsIcESaIcEEESt4pairIKS5_8CommandsESt10_Select1stIS9_ESt4lessIS5_ESaIS9_EED1Ev, symObjAddr: 0x576C, symBinAddr: 0x1000167F4, symSize: 0x34 }
  - { offsetInCU: 0x1EE1E, offset: 0x6E907, size: 0x8, addend: 0x0, symName: __ZNSt8_Rb_treeINSt7__cxx1112basic_stringIcSt11char_traitsIcESaIcEEESt4pairIKS5_8CommandsESt10_Select1stIS9_ESt4lessIS5_ESaIS9_EE13_Rb_tree_implISD_Lb1EED1Ev, symObjAddr: 0x56E4, symBinAddr: 0x10001676C, symSize: 0x20 }
  - { offsetInCU: 0x1EE26, offset: 0x6E90F, size: 0x8, addend: 0x0, symName: __ZNSt8_Rb_treeINSt7__cxx1112basic_stringIcSt11char_traitsIcESaIcEEESt4pairIKS5_8CommandsESt10_Select1stIS9_ESt4lessIS5_ESaIS9_EEC1ERKSD_RKSE_, symObjAddr: 0x5704, symBinAddr: 0x10001678C, symSize: 0x68 }
  - { offsetInCU: 0x1EE2F, offset: 0x6E918, size: 0x8, addend: 0x0, symName: __ZNSaISt4pairIKNSt7__cxx1112basic_stringIcSt11char_traitsIcESaIcEEE8CommandsEEC1ERKS9_, symObjAddr: 0x56BC, symBinAddr: 0x100016744, symSize: 0x28 }
  - { offsetInCU: 0x1EE37, offset: 0x6E920, size: 0x8, addend: 0x0, symName: __ZNSt8_Rb_treeINSt7__cxx1112basic_stringIcSt11char_traitsIcESaIcEEESt4pairIKS5_8CommandsESt10_Select1stIS9_ESt4lessIS5_ESaIS9_EE13_Rb_tree_implISD_Lb1EED1Ev, symObjAddr: 0x56E4, symBinAddr: 0x10001676C, symSize: 0x20 }
  - { offsetInCU: 0x1EEA3, offset: 0x6E98C, size: 0x8, addend: 0x0, symName: __ZN9__gnu_cxx13new_allocatorISt4pairIKNSt7__cxx1112basic_stringIcSt11char_traitsIcESaIcEEE8CommandsEED2Ev, symObjAddr: 0x56A8, symBinAddr: 0x100016730, symSize: 0x14 }
  - { offsetInCU: 0x1EEAB, offset: 0x6E994, size: 0x8, addend: 0x0, symName: __ZNSaISt4pairIKNSt7__cxx1112basic_stringIcSt11char_traitsIcESaIcEEE8CommandsEEC1ERKS9_, symObjAddr: 0x56BC, symBinAddr: 0x100016744, symSize: 0x28 }
  - { offsetInCU: 0x1EEEA, offset: 0x6E9D3, size: 0x8, addend: 0x0, symName: __ZN9__gnu_cxx13new_allocatorISt4pairIKNSt7__cxx1112basic_stringIcSt11char_traitsIcESaIcEEE8CommandsEEC2Ev, symObjAddr: 0x5694, symBinAddr: 0x10001671C, symSize: 0x14 }
  - { offsetInCU: 0x1EEF2, offset: 0x6E9DB, size: 0x8, addend: 0x0, symName: __ZN9__gnu_cxx13new_allocatorISt4pairIKNSt7__cxx1112basic_stringIcSt11char_traitsIcESaIcEEE8CommandsEED2Ev, symObjAddr: 0x56A8, symBinAddr: 0x100016730, symSize: 0x14 }
  - { offsetInCU: 0x1EEAE, offset: 0x6E997, size: 0x8, addend: 0x0, symName: __ZNSt3mapINSt7__cxx1112basic_stringIcSt11char_traitsIcESaIcEEE5TypesSt4lessIS5_ESaISt4pairIKS5_S6_EEEixEOS5_, symObjAddr: 0x4CEC, symBinAddr: 0x100016624, symSize: 0xF8 }
  - { offsetInCU: 0x1EFEB, offset: 0x6EAD4, size: 0x8, addend: 0x0, symName: __ZNKSt10unique_ptrINSt7__cxx1112basic_stringIcSt11char_traitsIcESaIcEEESt14default_deleteIS5_EEcvbEv, symObjAddr: 0x4CA0, symBinAddr: 0x1000165FC, symSize: 0x28 }
  - { offsetInCU: 0x1F4F1, offset: 0x6EFDA, size: 0x8, addend: 0x0, symName: __ZSt11make_uniqueI6ThesisJRNSt7__cxx1112basic_stringIcSt11char_traitsIcESaIcEEESt10unique_ptrISt6vectorIS6_SaIS6_EESt14default_deleteISB_EERiS7_SE_EENSt9_MakeUniqIT_E15__single_objectEDpOT0_, symObjAddr: 0x4B84, symBinAddr: 0x1000164E0, symSize: 0x11C }
  - { offsetInCU: 0x1F4F9, offset: 0x6EFE2, size: 0x8, addend: 0x0, symName: __ZNKSt10unique_ptrINSt7__cxx1112basic_stringIcSt11char_traitsIcESaIcEEESt14default_deleteIS5_EEcvbEv, symObjAddr: 0x4CA0, symBinAddr: 0x1000165FC, symSize: 0x28 }
  - { offsetInCU: 0x1F405, offset: 0x6EEEE, size: 0x8, addend: 0x0, symName: __ZSt11make_uniqueI7JournalJRNSt7__cxx1112basic_stringIcSt11char_traitsIcESaIcEEESt10unique_ptrISt6vectorIS6_SaIS6_EESt14default_deleteISB_EERiRfS7_SF_EENSt9_MakeUniqIT_E15__single_objectEDpOT0_, symObjAddr: 0x4A44, symBinAddr: 0x1000163A0, symSize: 0x140 }
  - { offsetInCU: 0x1F40D, offset: 0x6EEF6, size: 0x8, addend: 0x0, symName: __ZSt11make_uniqueI6ThesisJRNSt7__cxx1112basic_stringIcSt11char_traitsIcESaIcEEESt10unique_ptrISt6vectorIS6_SaIS6_EESt14default_deleteISB_EERiS7_SE_EENSt9_MakeUniqIT_E15__single_objectEDpOT0_, symObjAddr: 0x4B84, symBinAddr: 0x1000164E0, symSize: 0x11C }
  - { offsetInCU: 0x1F511, offset: 0x6EFFA, size: 0x8, addend: 0x0, symName: __ZSt11make_uniqueI4BookJRNSt7__cxx1112basic_stringIcSt11char_traitsIcESaIcEEESt10unique_ptrISt6vectorIS6_SaIS6_EESt14default_deleteISB_EERiS7_S7_RfEENSt9_MakeUniqIT_E15__single_objectEDpOT0_, symObjAddr: 0x4928, symBinAddr: 0x100016284, symSize: 0x11C }
  - { offsetInCU: 0x1F519, offset: 0x6F002, size: 0x8, addend: 0x0, symName: __ZSt11make_uniqueI7JournalJRNSt7__cxx1112basic_stringIcSt11char_traitsIcESaIcEEESt10unique_ptrISt6vectorIS6_SaIS6_EESt14default_deleteISB_EERiRfS7_SF_EENSt9_MakeUniqIT_E15__single_objectEDpOT0_, symObjAddr: 0x4A44, symBinAddr: 0x1000163A0, symSize: 0x140 }
  - { offsetInCU: 0x1F300, offset: 0x6EDE9, size: 0x8, addend: 0x0, symName: __ZSt4moveIRSt6vectorINSt7__cxx1112basic_stringIcSt11char_traitsIcESaIcEEESaIS6_EEEONSt16remove_referenceIT_E4typeEOSB_, symObjAddr: 0x4854, symBinAddr: 0x100016270, symSize: 0x14 }
  - { offsetInCU: 0x1F407, offset: 0x6EEF0, size: 0x8, addend: 0x0, symName: __ZStneIcSt11char_traitsIcESaIcEEbRKNSt7__cxx1112basic_stringIT_T0_T1_EEPKS5_, symObjAddr: 0x460C, symBinAddr: 0x100016240, symSize: 0x30 }
  - { offsetInCU: 0x1F3EF, offset: 0x6EED8, size: 0x8, addend: 0x0, symName: __ZNSt3mapINSt7__cxx1112basic_stringIcSt11char_traitsIcESaIcEEE6FieldsSt4lessIS5_ESaISt4pairIKS5_S6_EEEixERSA_, symObjAddr: 0x4524, symBinAddr: 0x100016158, symSize: 0xE8 }
  - { offsetInCU: 0x1F3F7, offset: 0x6EEE0, size: 0x8, addend: 0x0, symName: __ZStneIcSt11char_traitsIcESaIcEEbRKNSt7__cxx1112basic_stringIT_T0_T1_EEPKS5_, symObjAddr: 0x460C, symBinAddr: 0x100016240, symSize: 0x30 }
  - { offsetInCU: 0x1F446, offset: 0x6EF2F, size: 0x8, addend: 0x0, symName: __ZNSt3mapINSt7__cxx1112basic_stringIcSt11char_traitsIcESaIcEEE5TypesSt4lessIS5_ESaISt4pairIKS5_S6_EEEixERSA_, symObjAddr: 0x443C, symBinAddr: 0x100016070, symSize: 0xE8 }
  - { offsetInCU: 0x1F44E, offset: 0x6EF37, size: 0x8, addend: 0x0, symName: __ZNSt3mapINSt7__cxx1112basic_stringIcSt11char_traitsIcESaIcEEE6FieldsSt4lessIS5_ESaISt4pairIKS5_S6_EEEixERSA_, symObjAddr: 0x4524, symBinAddr: 0x100016158, symSize: 0xE8 }
  - { offsetInCU: 0x1F49D, offset: 0x6EF86, size: 0x8, addend: 0x0, symName: __ZNSt3mapINSt7__cxx1112basic_stringIcSt11char_traitsIcESaIcEEE8CommandsSt4lessIS5_ESaISt4pairIKS5_S6_EEEixERSA_, symObjAddr: 0x4354, symBinAddr: 0x100015F88, symSize: 0xE8 }
  - { offsetInCU: 0x1F4A5, offset: 0x6EF8E, size: 0x8, addend: 0x0, symName: __ZNSt3mapINSt7__cxx1112basic_stringIcSt11char_traitsIcESaIcEEE5TypesSt4lessIS5_ESaISt4pairIKS5_S6_EEEixERSA_, symObjAddr: 0x443C, symBinAddr: 0x100016070, symSize: 0xE8 }
  - { offsetInCU: 0x1F592, offset: 0x6F07B, size: 0x8, addend: 0x0, symName: __ZNSt8_Rb_treeINSt7__cxx1112basic_stringIcSt11char_traitsIcESaIcEEES5_St9_IdentityIS5_ESt4lessIS5_ESaIS5_EEC1ERKSB_, symObjAddr: 0x42A0, symBinAddr: 0x100015F08, symSize: 0x80 }
  - { offsetInCU: 0x1F5C5, offset: 0x6F0AE, size: 0x8, addend: 0x0, symName: __ZStneRKSt23_Rb_tree_const_iteratorINSt7__cxx1112basic_stringIcSt11char_traitsIcESaIcEEEES8_, symObjAddr: 0x4250, symBinAddr: 0x100015ED8, symSize: 0x30 }
  - { offsetInCU: 0x1F5B5, offset: 0x6F09E, size: 0x8, addend: 0x0, symName: __ZNKSt3setINSt7__cxx1112basic_stringIcSt11char_traitsIcESaIcEEESt4lessIS5_ESaIS5_EE3endEv, symObjAddr: 0x4234, symBinAddr: 0x100015EBC, symSize: 0x1C }
  - { offsetInCU: 0x1F5BD, offset: 0x6F0A6, size: 0x8, addend: 0x0, symName: __ZStneRKSt23_Rb_tree_const_iteratorINSt7__cxx1112basic_stringIcSt11char_traitsIcESaIcEEEES8_, symObjAddr: 0x4250, symBinAddr: 0x100015ED8, symSize: 0x30 }
  - { offsetInCU: 0x1F5E4, offset: 0x6F0CD, size: 0x8, addend: 0x0, symName: __ZNSt3setINSt7__cxx1112basic_stringIcSt11char_traitsIcESaIcEEESt4lessIS5_ESaIS5_EE4findERKS5_, symObjAddr: 0x41FC, symBinAddr: 0x100015E84, symSize: 0x38 }
  - { offsetInCU: 0x1F5EC, offset: 0x6F0D5, size: 0x8, addend: 0x0, symName: __ZNKSt3setINSt7__cxx1112basic_stringIcSt11char_traitsIcESaIcEEESt4lessIS5_ESaIS5_EE3endEv, symObjAddr: 0x4234, symBinAddr: 0x100015EBC, symSize: 0x1C }
  - { offsetInCU: 0x1F6FC, offset: 0x6F1E5, size: 0x8, addend: 0x0, symName: __ZNSt3mapINSt7__cxx1112basic_stringIcSt11char_traitsIcESaIcEEE5TypesSt4lessIS5_ESaISt4pairIKS5_S6_EEEC1ESt16initializer_listISB_ERKS8_RKSC_, symObjAddr: 0x4154, symBinAddr: 0x100015DDC, symSize: 0xA8 }
  - { offsetInCU: 0x1F704, offset: 0x6F1ED, size: 0x8, addend: 0x0, symName: __ZNSt3setINSt7__cxx1112basic_stringIcSt11char_traitsIcESaIcEEESt4lessIS5_ESaIS5_EE4findERKS5_, symObjAddr: 0x41FC, symBinAddr: 0x100015E84, symSize: 0x38 }
  - { offsetInCU: 0x1F739, offset: 0x6F222, size: 0x8, addend: 0x0, symName: __ZNSaISt4pairIKNSt7__cxx1112basic_stringIcSt11char_traitsIcESaIcEEE5TypesEED1Ev, symObjAddr: 0x4134, symBinAddr: 0x100015DBC, symSize: 0x20 }
  - { offsetInCU: 0x1F741, offset: 0x6F22A, size: 0x8, addend: 0x0, symName: __ZNSt3mapINSt7__cxx1112basic_stringIcSt11char_traitsIcESaIcEEE5TypesSt4lessIS5_ESaISt4pairIKS5_S6_EEEC1ESt16initializer_listISB_ERKS8_RKSC_, symObjAddr: 0x4154, symBinAddr: 0x100015DDC, symSize: 0xA8 }
  - { offsetInCU: 0x1F780, offset: 0x6F269, size: 0x8, addend: 0x0, symName: __ZNSaISt4pairIKNSt7__cxx1112basic_stringIcSt11char_traitsIcESaIcEEE5TypesEEC1Ev, symObjAddr: 0x4114, symBinAddr: 0x100015D9C, symSize: 0x20 }
  - { offsetInCU: 0x1F788, offset: 0x6F271, size: 0x8, addend: 0x0, symName: __ZNSaISt4pairIKNSt7__cxx1112basic_stringIcSt11char_traitsIcESaIcEEE5TypesEED1Ev, symObjAddr: 0x4134, symBinAddr: 0x100015DBC, symSize: 0x20 }
  - { offsetInCU: 0x1F7B6, offset: 0x6F29F, size: 0x8, addend: 0x0, symName: __ZSt7forwardIRA8_KcEOT_RNSt16remove_referenceIS3_E4typeE, symObjAddr: 0x4100, symBinAddr: 0x100015D88, symSize: 0x14 }
  - { offsetInCU: 0x1F7BE, offset: 0x6F2A7, size: 0x8, addend: 0x0, symName: __ZNSaISt4pairIKNSt7__cxx1112basic_stringIcSt11char_traitsIcESaIcEEE5TypesEEC1Ev, symObjAddr: 0x4114, symBinAddr: 0x100015D9C, symSize: 0x20 }
  - { offsetInCU: 0x1F7FE, offset: 0x6F2E7, size: 0x8, addend: 0x0, symName: __ZSt7forwardI5TypesEOT_RNSt16remove_referenceIS1_E4typeE, symObjAddr: 0x40EC, symBinAddr: 0x100015D74, symSize: 0x14 }
  - { offsetInCU: 0x1F806, offset: 0x6F2EF, size: 0x8, addend: 0x0, symName: __ZSt7forwardIRA8_KcEOT_RNSt16remove_referenceIS3_E4typeE, symObjAddr: 0x4100, symBinAddr: 0x100015D88, symSize: 0x14 }
  - { offsetInCU: 0x1F8DC, offset: 0x6F3C5, size: 0x8, addend: 0x0, symName: __ZNSt3mapINSt7__cxx1112basic_stringIcSt11char_traitsIcESaIcEEE6FieldsSt4lessIS5_ESaISt4pairIKS5_S6_EEEC1ESt16initializer_listISB_ERKS8_RKSC_, symObjAddr: 0x4044, symBinAddr: 0x100015CCC, symSize: 0xA8 }
  - { offsetInCU: 0x1F8E4, offset: 0x6F3CD, size: 0x8, addend: 0x0, symName: __ZSt7forwardI5TypesEOT_RNSt16remove_referenceIS1_E4typeE, symObjAddr: 0x40EC, symBinAddr: 0x100015D74, symSize: 0x14 }
  - { offsetInCU: 0x1F919, offset: 0x6F402, size: 0x8, addend: 0x0, symName: __ZNSaISt4pairIKNSt7__cxx1112basic_stringIcSt11char_traitsIcESaIcEEE6FieldsEED1Ev, symObjAddr: 0x4024, symBinAddr: 0x100015CAC, symSize: 0x20 }
  - { offsetInCU: 0x1F921, offset: 0x6F40A, size: 0x8, addend: 0x0, symName: __ZNSt3mapINSt7__cxx1112basic_stringIcSt11char_traitsIcESaIcEEE6FieldsSt4lessIS5_ESaISt4pairIKS5_S6_EEEC1ESt16initializer_listISB_ERKS8_RKSC_, symObjAddr: 0x4044, symBinAddr: 0x100015CCC, symSize: 0xA8 }
  - { offsetInCU: 0x1F960, offset: 0x6F449, size: 0x8, addend: 0x0, symName: __ZNSaISt4pairIKNSt7__cxx1112basic_stringIcSt11char_traitsIcESaIcEEE6FieldsEEC1Ev, symObjAddr: 0x4004, symBinAddr: 0x100015C8C, symSize: 0x20 }
  - { offsetInCU: 0x1F968, offset: 0x6F451, size: 0x8, addend: 0x0, symName: __ZNSaISt4pairIKNSt7__cxx1112basic_stringIcSt11char_traitsIcESaIcEEE6FieldsEED1Ev, symObjAddr: 0x4024, symBinAddr: 0x100015CAC, symSize: 0x20 }
  - { offsetInCU: 0x1F98B, offset: 0x6F474, size: 0x8, addend: 0x0, symName: __ZSt7forwardI6FieldsEOT_RNSt16remove_referenceIS1_E4typeE, symObjAddr: 0x3FF0, symBinAddr: 0x100015C78, symSize: 0x14 }
  - { offsetInCU: 0x1F993, offset: 0x6F47C, size: 0x8, addend: 0x0, symName: __ZNSaISt4pairIKNSt7__cxx1112basic_stringIcSt11char_traitsIcESaIcEEE6FieldsEEC1Ev, symObjAddr: 0x4004, symBinAddr: 0x100015C8C, symSize: 0x20 }
  - { offsetInCU: 0x1FA69, offset: 0x6F552, size: 0x8, addend: 0x0, symName: __ZNSt3mapINSt7__cxx1112basic_stringIcSt11char_traitsIcESaIcEEE8CommandsSt4lessIS5_ESaISt4pairIKS5_S6_EEEC1ESt16initializer_listISB_ERKS8_RKSC_, symObjAddr: 0x3F48, symBinAddr: 0x100015BD0, symSize: 0xA8 }
  - { offsetInCU: 0x1FA71, offset: 0x6F55A, size: 0x8, addend: 0x0, symName: __ZSt7forwardI6FieldsEOT_RNSt16remove_referenceIS1_E4typeE, symObjAddr: 0x3FF0, symBinAddr: 0x100015C78, symSize: 0x14 }
  - { offsetInCU: 0x1FAA6, offset: 0x6F58F, size: 0x8, addend: 0x0, symName: __ZNSaISt4pairIKNSt7__cxx1112basic_stringIcSt11char_traitsIcESaIcEEE8CommandsEED1Ev, symObjAddr: 0x3F28, symBinAddr: 0x100015BB0, symSize: 0x20 }
  - { offsetInCU: 0x1FAAE, offset: 0x6F597, size: 0x8, addend: 0x0, symName: __ZNSt3mapINSt7__cxx1112basic_stringIcSt11char_traitsIcESaIcEEE8CommandsSt4lessIS5_ESaISt4pairIKS5_S6_EEEC1ESt16initializer_listISB_ERKS8_RKSC_, symObjAddr: 0x3F48, symBinAddr: 0x100015BD0, symSize: 0xA8 }
  - { offsetInCU: 0x1FAED, offset: 0x6F5D6, size: 0x8, addend: 0x0, symName: __ZNSaISt4pairIKNSt7__cxx1112basic_stringIcSt11char_traitsIcESaIcEEE8CommandsEEC1Ev, symObjAddr: 0x3F08, symBinAddr: 0x100015B90, symSize: 0x20 }
  - { offsetInCU: 0x1FAF5, offset: 0x6F5DE, size: 0x8, addend: 0x0, symName: __ZNSaISt4pairIKNSt7__cxx1112basic_stringIcSt11char_traitsIcESaIcEEE8CommandsEED1Ev, symObjAddr: 0x3F28, symBinAddr: 0x100015BB0, symSize: 0x20 }
  - { offsetInCU: 0x1FB20, offset: 0x6F609, size: 0x8, addend: 0x0, symName: __ZSt7forwardIRA4_KcEOT_RNSt16remove_referenceIS3_E4typeE, symObjAddr: 0x3EF4, symBinAddr: 0x100015B7C, symSize: 0x14 }
  - { offsetInCU: 0x1FB28, offset: 0x6F611, size: 0x8, addend: 0x0, symName: __ZNSaISt4pairIKNSt7__cxx1112basic_stringIcSt11char_traitsIcESaIcEEE8CommandsEEC1Ev, symObjAddr: 0x3F08, symBinAddr: 0x100015B90, symSize: 0x20 }
  - { offsetInCU: 0x1FB74, offset: 0x6F65D, size: 0x8, addend: 0x0, symName: __ZSt7forwardIRA7_KcEOT_RNSt16remove_referenceIS3_E4typeE, symObjAddr: 0x3EE0, symBinAddr: 0x100015B68, symSize: 0x14 }
  - { offsetInCU: 0x1FB7C, offset: 0x6F665, size: 0x8, addend: 0x0, symName: __ZSt7forwardIRA4_KcEOT_RNSt16remove_referenceIS3_E4typeE, symObjAddr: 0x3EF4, symBinAddr: 0x100015B7C, symSize: 0x14 }
  - { offsetInCU: 0x1FBC8, offset: 0x6F6B1, size: 0x8, addend: 0x0, symName: __ZSt7forwardIRA6_KcEOT_RNSt16remove_referenceIS3_E4typeE, symObjAddr: 0x3ECC, symBinAddr: 0x100015B54, symSize: 0x14 }
  - { offsetInCU: 0x1FBD0, offset: 0x6F6B9, size: 0x8, addend: 0x0, symName: __ZSt7forwardIRA7_KcEOT_RNSt16remove_referenceIS3_E4typeE, symObjAddr: 0x3EE0, symBinAddr: 0x100015B68, symSize: 0x14 }
  - { offsetInCU: 0x1FC16, offset: 0x6F6FF, size: 0x8, addend: 0x0, symName: __ZSt7forwardI8CommandsEOT_RNSt16remove_referenceIS1_E4typeE, symObjAddr: 0x3EB8, symBinAddr: 0x100015B40, symSize: 0x14 }
  - { offsetInCU: 0x1FC1E, offset: 0x6F707, size: 0x8, addend: 0x0, symName: __ZSt7forwardIRA6_KcEOT_RNSt16remove_referenceIS3_E4typeE, symObjAddr: 0x3ECC, symBinAddr: 0x100015B54, symSize: 0x14 }
  - { offsetInCU: 0x1FC70, offset: 0x6F759, size: 0x8, addend: 0x0, symName: __ZSt7forwardIRA5_KcEOT_RNSt16remove_referenceIS3_E4typeE, symObjAddr: 0x3EA4, symBinAddr: 0x100015B2C, symSize: 0x14 }
  - { offsetInCU: 0x1FC78, offset: 0x6F761, size: 0x8, addend: 0x0, symName: __ZSt7forwardI8CommandsEOT_RNSt16remove_referenceIS1_E4typeE, symObjAddr: 0x3EB8, symBinAddr: 0x100015B40, symSize: 0x14 }
  - { offsetInCU: 0x1FCB3, offset: 0x6F79C, size: 0x8, addend: 0x0, symName: __Z15execute_commandR18LiteratureDatabase8Commands, symObjAddr: 0x3140, symBinAddr: 0x100015874, symSize: 0x2B8 }
  - { offsetInCU: 0x1FD04, offset: 0x6F7ED, size: 0x8, addend: 0x0, symName: __Z10edit_entryR18LiteratureDatabasei, symObjAddr: 0x2F94, symBinAddr: 0x1000156C8, symSize: 0x1AC }
  - { offsetInCU: 0x1FD0C, offset: 0x6F7F5, size: 0x8, addend: 0x0, symName: __Z15execute_commandR18LiteratureDatabase8Commands, symObjAddr: 0x3140, symBinAddr: 0x100015874, symSize: 0x2B8 }
  - { offsetInCU: 0x1FD53, offset: 0x6F83C, size: 0x8, addend: 0x0, symName: __Z12edit_journalR18LiteratureDatabasei, symObjAddr: 0x2E10, symBinAddr: 0x100015544, symSize: 0x184 }
  - { offsetInCU: 0x1FD5B, offset: 0x6F844, size: 0x8, addend: 0x0, symName: __Z10edit_entryR18LiteratureDatabasei, symObjAddr: 0x2F94, symBinAddr: 0x1000156C8, symSize: 0x1AC }
  - { offsetInCU: 0x1FDC4, offset: 0x6F8AD, size: 0x8, addend: 0x0, symName: __Z11edit_thesisR18LiteratureDatabasei, symObjAddr: 0x2BE4, symBinAddr: 0x100015318, symSize: 0x22C }
  - { offsetInCU: 0x1FDCC, offset: 0x6F8B5, size: 0x8, addend: 0x0, symName: __Z12edit_journalR18LiteratureDatabasei, symObjAddr: 0x2E10, symBinAddr: 0x100015544, symSize: 0x184 }
  - { offsetInCU: 0x1FE81, offset: 0x6F96A, size: 0x8, addend: 0x0, symName: __Z9edit_bookR18LiteratureDatabasei, symObjAddr: 0x2A18, symBinAddr: 0x10001514C, symSize: 0x1CC }
  - { offsetInCU: 0x1FE89, offset: 0x6F972, size: 0x8, addend: 0x0, symName: __Z11edit_thesisR18LiteratureDatabasei, symObjAddr: 0x2BE4, symBinAddr: 0x100015318, symSize: 0x22C }
  - { offsetInCU: 0x1FF35, offset: 0x6FA1E, size: 0x8, addend: 0x0, symName: __Z21edit_literature_entryR18LiteratureDatabasei, symObjAddr: 0x2798, symBinAddr: 0x100014ECC, symSize: 0x280 }
  - { offsetInCU: 0x1FF3D, offset: 0x6FA26, size: 0x8, addend: 0x0, symName: __Z9edit_bookR18LiteratureDatabasei, symObjAddr: 0x2A18, symBinAddr: 0x10001514C, symSize: 0x1CC }
  - { offsetInCU: 0x2003F, offset: 0x6FB28, size: 0x8, addend: 0x0, symName: __Z19save_string_to_fileRKSt10unique_ptrINSt7__cxx1112basic_stringIcSt11char_traitsIcESaIcEEESt14default_deleteIS5_EERKS5_, symObjAddr: 0x25D4, symBinAddr: 0x100014D08, symSize: 0x1C4 }
  - { offsetInCU: 0x20047, offset: 0x6FB30, size: 0x8, addend: 0x0, symName: __Z21edit_literature_entryR18LiteratureDatabasei, symObjAddr: 0x2798, symBinAddr: 0x100014ECC, symSize: 0x280 }
  - { offsetInCU: 0x2007A, offset: 0x6FB63, size: 0x8, addend: 0x0, symName: __Z17add_general_entryR18LiteratureDatabase5Types, symObjAddr: 0x2448, symBinAddr: 0x100014B7C, symSize: 0x18C }
  - { offsetInCU: 0x20082, offset: 0x6FB6B, size: 0x8, addend: 0x0, symName: __Z19save_string_to_fileRKSt10unique_ptrINSt7__cxx1112basic_stringIcSt11char_traitsIcESaIcEEESt14default_deleteIS5_EERKS5_, symObjAddr: 0x25D4, symBinAddr: 0x100014D08, symSize: 0x1C4 }
  - { offsetInCU: 0x200A1, offset: 0x6FB8A, size: 0x8, addend: 0x0, symName: __Z10add_thesisv, symObjAddr: 0x21E4, symBinAddr: 0x100014918, symSize: 0x264 }
  - { offsetInCU: 0x200A9, offset: 0x6FB92, size: 0x8, addend: 0x0, symName: __Z17add_general_entryR18LiteratureDatabase5Types, symObjAddr: 0x2448, symBinAddr: 0x100014B7C, symSize: 0x18C }
  - { offsetInCU: 0x2019D, offset: 0x6FC86, size: 0x8, addend: 0x0, symName: __Z11add_journalv, symObjAddr: 0x1FF0, symBinAddr: 0x100014724, symSize: 0x1F4 }
  - { offsetInCU: 0x201A5, offset: 0x6FC8E, size: 0x8, addend: 0x0, symName: __Z10add_thesisv, symObjAddr: 0x21E4, symBinAddr: 0x100014918, symSize: 0x264 }
  - { offsetInCU: 0x2027B, offset: 0x6FD64, size: 0x8, addend: 0x0, symName: __Z8add_bookv, symObjAddr: 0x1DD0, symBinAddr: 0x100014504, symSize: 0x220 }
  - { offsetInCU: 0x20283, offset: 0x6FD6C, size: 0x8, addend: 0x0, symName: __Z11add_journalv, symObjAddr: 0x1FF0, symBinAddr: 0x100014724, symSize: 0x1F4 }
  - { offsetInCU: 0x203A1, offset: 0x6FE8A, size: 0x8, addend: 0x0, symName: __Z13split_string_RKNSt7__cxx1112basic_stringIcSt11char_traitsIcESaIcEEEc, symObjAddr: 0x1D00, symBinAddr: 0x100014434, symSize: 0xD0 }
  - { offsetInCU: 0x203A9, offset: 0x6FE92, size: 0x8, addend: 0x0, symName: __Z8add_bookv, symObjAddr: 0x1DD0, symBinAddr: 0x100014504, symSize: 0x220 }
  - { offsetInCU: 0x20424, offset: 0x6FF0D, size: 0x8, addend: 0x0, symName: __Z13general_printR18LiteratureDatabase6Fields, symObjAddr: 0x1A04, symBinAddr: 0x1000141E8, symSize: 0x24C }
  - { offsetInCU: 0x2047A, offset: 0x6FF63, size: 0x8, addend: 0x0, symName: __Z10type_print18LiteratureDatabase5Types, symObjAddr: 0x17DC, symBinAddr: 0x100013FE0, symSize: 0x208 }
  - { offsetInCU: 0x204D2, offset: 0x6FFBB, size: 0x8, addend: 0x0, symName: __Z27collect_and_validate_y_or_nv, symObjAddr: 0x16D0, symBinAddr: 0x100013ED4, symSize: 0x10C }
  - { offsetInCU: 0x204DA, offset: 0x6FFC3, size: 0x8, addend: 0x0, symName: __Z10type_print18LiteratureDatabase5Types, symObjAddr: 0x17DC, symBinAddr: 0x100013FE0, symSize: 0x208 }
  - { offsetInCU: 0x20520, offset: 0x70009, size: 0x8, addend: 0x0, symName: __Z26collect_and_validate_floatv, symObjAddr: 0x156C, symBinAddr: 0x100013D70, symSize: 0x164 }
  - { offsetInCU: 0x20528, offset: 0x70011, size: 0x8, addend: 0x0, symName: __Z27collect_and_validate_y_or_nv, symObjAddr: 0x16D0, symBinAddr: 0x100013ED4, symSize: 0x10C }
  - { offsetInCU: 0x2060E, offset: 0x700F7, size: 0x8, addend: 0x0, symName: __Z24collect_and_validate_intv, symObjAddr: 0x1490, symBinAddr: 0x100013C94, symSize: 0xDC }
  - { offsetInCU: 0x20616, offset: 0x700FF, size: 0x8, addend: 0x0, symName: __Z26collect_and_validate_floatv, symObjAddr: 0x156C, symBinAddr: 0x100013D70, symSize: 0x164 }
  - { offsetInCU: 0x20676, offset: 0x7015F, size: 0x8, addend: 0x0, symName: __Z20validate_nonzero_intNSt7__cxx1112basic_stringIcSt11char_traitsIcESaIcEEE, symObjAddr: 0x13F8, symBinAddr: 0x100013BFC, symSize: 0x98 }
  - { offsetInCU: 0x2067E, offset: 0x70167, size: 0x8, addend: 0x0, symName: __Z24collect_and_validate_intv, symObjAddr: 0x1490, symBinAddr: 0x100013C94, symSize: 0xDC }
  - { offsetInCU: 0x206C5, offset: 0x701AE, size: 0x8, addend: 0x0, symName: __Z26collect_and_validate_fieldv, symObjAddr: 0x12D8, symBinAddr: 0x100013ADC, symSize: 0x120 }
  - { offsetInCU: 0x206CD, offset: 0x701B6, size: 0x8, addend: 0x0, symName: __Z20validate_nonzero_intNSt7__cxx1112basic_stringIcSt11char_traitsIcESaIcEEE, symObjAddr: 0x13F8, symBinAddr: 0x100013BFC, symSize: 0x98 }
  - { offsetInCU: 0x20701, offset: 0x701EA, size: 0x8, addend: 0x0, symName: __Z25collect_and_validate_typev, symObjAddr: 0x11B8, symBinAddr: 0x1000139BC, symSize: 0x120 }
  - { offsetInCU: 0x20709, offset: 0x701F2, size: 0x8, addend: 0x0, symName: __Z26collect_and_validate_fieldv, symObjAddr: 0x12D8, symBinAddr: 0x100013ADC, symSize: 0x120 }
  - { offsetInCU: 0x20745, offset: 0x7022E, size: 0x8, addend: 0x0, symName: __Z28collect_and_validate_commandv, symObjAddr: 0x1098, symBinAddr: 0x10001389C, symSize: 0x120 }
  - { offsetInCU: 0x2074D, offset: 0x70236, size: 0x8, addend: 0x0, symName: __Z25collect_and_validate_typev, symObjAddr: 0x11B8, symBinAddr: 0x1000139BC, symSize: 0x120 }
  - { offsetInCU: 0x207BD, offset: 0x702A6, size: 0x8, addend: 0x0, symName: __ZNSt3setINSt7__cxx1112basic_stringIcSt11char_traitsIcESaIcEEESt4lessIS5_ESaIS5_EEC1ERKS9_, symObjAddr: 0x1050, symBinAddr: 0x100013874, symSize: 0x28 }
