---
triple:          'arm64-apple-darwin'
binary-path:     './testing_classes'
relocations:
  - { offsetInCU: 0xDD, offset: 0xDD, size: 0x8, addend: 0x0, symName: __ZnwmPv, symObjAddr: 0x0, symBinAddr: 0x100001C1C, symSize: 0x18 }
  - { offsetInCU: 0xE5, offset: 0xE5, size: 0x8, addend: 0x0, symName: __ZN9__gnu_cxxL21__default_lock_policyE, symObjAddr: 0x19D4, symBinAddr: 0x100008388, symSize: 0x0 }
  - { offsetInCU: 0x6AC4, offset: 0x6AC4, size: 0x8, addend: 0x0, symName: __ZStL8__ioinit, symObjAddr: 0x32268, symBinAddr: 0x100010330, symSize: 0x0 }
  - { offsetInCU: 0x6D0A, offset: 0x6D0A, size: 0x8, addend: 0x0, symName: __ZN9__gnu_cxxL21__default_lock_policyE, symObjAddr: 0x19D4, symBinAddr: 0x100008388, symSize: 0x0 }
  - { offsetInCU: 0x6EA2, offset: 0x6EA2, size: 0x8, addend: 0x0, symName: __ZN6__pstl9execution2v1L3seqE, symObjAddr: 0x19D8, symBinAddr: 0x10000838C, symSize: 0x0 }
  - { offsetInCU: 0x6EBC, offset: 0x6EBC, size: 0x8, addend: 0x0, symName: __ZN6__pstl9execution2v1L3parE, symObjAddr: 0x19D9, symBinAddr: 0x10000838D, symSize: 0x0 }
  - { offsetInCU: 0x6EDC, offset: 0x6EDC, size: 0x8, addend: 0x0, symName: __ZN6__pstl9execution2v1L9par_unseqE, symObjAddr: 0x19DA, symBinAddr: 0x10000838E, symSize: 0x0 }
  - { offsetInCU: 0x6EF2, offset: 0x6EF2, size: 0x8, addend: 0x0, symName: __ZN6__pstl9execution2v1L5unseqE, symObjAddr: 0x19DB, symBinAddr: 0x10000838F, symSize: 0x0 }
  - { offsetInCU: 0xA353, offset: 0xA353, size: 0x8, addend: 0x0, symName: __GLOBAL__sub_I_testing_classes.cpp, symObjAddr: 0x19B8, symBinAddr: 0x1000035D4, symSize: 0x1C }
  - { offsetInCU: 0xA35B, offset: 0xA35B, size: 0x8, addend: 0x0, symName: __ZN9__gnu_cxxL21__default_lock_policyE, symObjAddr: 0x19D4, symBinAddr: 0x100008388, symSize: 0x0 }
  - { offsetInCU: 0xA374, offset: 0xA374, size: 0x8, addend: 0x0, symName: __Z41__static_initialization_and_destruction_0ii, symObjAddr: 0x1958, symBinAddr: 0x100003574, symSize: 0x60 }
  - { offsetInCU: 0xA37C, offset: 0xA37C, size: 0x8, addend: 0x0, symName: __GLOBAL__sub_I_testing_classes.cpp, symObjAddr: 0x19B8, symBinAddr: 0x1000035D4, symSize: 0x1C }
  - { offsetInCU: 0xA480, offset: 0xA480, size: 0x8, addend: 0x0, symName: __ZSt19__relocate_object_aINSt7__cxx1112basic_stringIcSt11char_traitsIcESaIcEEES5_SaIS5_EEvPT_PT0_RT1_, symObjAddr: 0x190C, symBinAddr: 0x100003528, symSize: 0x4C }
  - { offsetInCU: 0xA488, offset: 0xA488, size: 0x8, addend: 0x0, symName: __Z41__static_initialization_and_destruction_0ii, symObjAddr: 0x1958, symBinAddr: 0x100003574, symSize: 0x60 }
  - { offsetInCU: 0xA413, offset: 0xA413, size: 0x8, addend: 0x0, symName: __ZNK9__gnu_cxx13new_allocatorINSt7__cxx1112basic_stringIcSt11char_traitsIcESaIcEEEE8max_sizeEv, symObjAddr: 0x18F0, symBinAddr: 0x10000350C, symSize: 0x1C }
  - { offsetInCU: 0xA41B, offset: 0xA41B, size: 0x8, addend: 0x0, symName: __ZSt19__relocate_object_aINSt7__cxx1112basic_stringIcSt11char_traitsIcESaIcEEES5_SaIS5_EEvPT_PT0_RT1_, symObjAddr: 0x190C, symBinAddr: 0x100003528, symSize: 0x4C }
  - { offsetInCU: 0xA535, offset: 0xA535, size: 0x8, addend: 0x0, symName: __ZSt14__relocate_a_1IPNSt7__cxx1112basic_stringIcSt11char_traitsIcESaIcEEES6_SaIS5_EET0_T_S9_S8_RT1_, symObjAddr: 0x186C, symBinAddr: 0x100003488, symSize: 0x84 }
  - { offsetInCU: 0xA53D, offset: 0xA53D, size: 0x8, addend: 0x0, symName: __ZNK9__gnu_cxx13new_allocatorINSt7__cxx1112basic_stringIcSt11char_traitsIcESaIcEEEE8max_sizeEv, symObjAddr: 0x18F0, symBinAddr: 0x10000350C, symSize: 0x1C }
  - { offsetInCU: 0xA57C, offset: 0xA57C, size: 0x8, addend: 0x0, symName: __ZSt12__niter_baseIPNSt7__cxx1112basic_stringIcSt11char_traitsIcESaIcEEEET_S7_, symObjAddr: 0x1858, symBinAddr: 0x100003474, symSize: 0x14 }
  - { offsetInCU: 0xA584, offset: 0xA584, size: 0x8, addend: 0x0, symName: __ZSt14__relocate_a_1IPNSt7__cxx1112basic_stringIcSt11char_traitsIcESaIcEEES6_SaIS5_EET0_T_S9_S8_RT1_, symObjAddr: 0x186C, symBinAddr: 0x100003488, symSize: 0x84 }
  - { offsetInCU: 0xA544, offset: 0xA544, size: 0x8, addend: 0x0, symName: __ZNSt16allocator_traitsISaINSt7__cxx1112basic_stringIcSt11char_traitsIcESaIcEEEEE8max_sizeERKS6_, symObjAddr: 0x183C, symBinAddr: 0x100003458, symSize: 0x1C }
  - { offsetInCU: 0xA54C, offset: 0xA54C, size: 0x8, addend: 0x0, symName: __ZSt12__niter_baseIPNSt7__cxx1112basic_stringIcSt11char_traitsIcESaIcEEEET_S7_, symObjAddr: 0x1858, symBinAddr: 0x100003474, symSize: 0x14 }
  - { offsetInCU: 0xA576, offset: 0xA576, size: 0x8, addend: 0x0, symName: __ZNSt10_Head_baseILm0EPSt6vectorINSt7__cxx1112basic_stringIcSt11char_traitsIcESaIcEEESaIS6_EELb0EE7_M_headERKSA_, symObjAddr: 0x1828, symBinAddr: 0x100003444, symSize: 0x14 }
  - { offsetInCU: 0xA57E, offset: 0xA57E, size: 0x8, addend: 0x0, symName: __ZNSt16allocator_traitsISaINSt7__cxx1112basic_stringIcSt11char_traitsIcESaIcEEEEE8max_sizeERKS6_, symObjAddr: 0x183C, symBinAddr: 0x100003458, symSize: 0x1C }
  - { offsetInCU: 0xA61B, offset: 0xA61B, size: 0x8, addend: 0x0, symName: __ZSt8_DestroyINSt7__cxx1112basic_stringIcSt11char_traitsIcESaIcEEEEvPT_, symObjAddr: 0x1808, symBinAddr: 0x100003424, symSize: 0x20 }
  - { offsetInCU: 0xA623, offset: 0xA623, size: 0x8, addend: 0x0, symName: __ZNSt10_Head_baseILm0EPSt6vectorINSt7__cxx1112basic_stringIcSt11char_traitsIcESaIcEEESaIS6_EELb0EE7_M_headERKSA_, symObjAddr: 0x1828, symBinAddr: 0x100003444, symSize: 0x14 }
  - { offsetInCU: 0xA66B, offset: 0xA66B, size: 0x8, addend: 0x0, symName: __ZSt11__addressofINSt7__cxx1112basic_stringIcSt11char_traitsIcESaIcEEEEPT_RS6_, symObjAddr: 0x17F4, symBinAddr: 0x100003410, symSize: 0x14 }
  - { offsetInCU: 0xA673, offset: 0xA673, size: 0x8, addend: 0x0, symName: __ZSt8_DestroyINSt7__cxx1112basic_stringIcSt11char_traitsIcESaIcEEEEvPT_, symObjAddr: 0x1808, symBinAddr: 0x100003424, symSize: 0x20 }
  - { offsetInCU: 0xA633, offset: 0xA633, size: 0x8, addend: 0x0, symName: __ZNSt10_Head_baseILm1ESt14default_deleteISt6vectorINSt7__cxx1112basic_stringIcSt11char_traitsIcESaIcEEESaIS7_EEELb1EE7_M_headERSB_, symObjAddr: 0x17E0, symBinAddr: 0x1000033FC, symSize: 0x14 }
  - { offsetInCU: 0xA63B, offset: 0xA63B, size: 0x8, addend: 0x0, symName: __ZSt11__addressofINSt7__cxx1112basic_stringIcSt11char_traitsIcESaIcEEEEPT_RS6_, symObjAddr: 0x17F4, symBinAddr: 0x100003410, symSize: 0x14 }
  - { offsetInCU: 0xA753, offset: 0xA753, size: 0x8, addend: 0x0, symName: __ZSt12__relocate_aIPNSt7__cxx1112basic_stringIcSt11char_traitsIcESaIcEEES6_SaIS5_EET0_T_S9_S8_RT1_, symObjAddr: 0x1784, symBinAddr: 0x1000033A0, symSize: 0x5C }
  - { offsetInCU: 0xA75B, offset: 0xA75B, size: 0x8, addend: 0x0, symName: __ZNSt10_Head_baseILm1ESt14default_deleteISt6vectorINSt7__cxx1112basic_stringIcSt11char_traitsIcESaIcEEESaIS7_EEELb1EE7_M_headERSB_, symObjAddr: 0x17E0, symBinAddr: 0x1000033FC, symSize: 0x14 }
  - { offsetInCU: 0xA706, offset: 0xA706, size: 0x8, addend: 0x0, symName: __ZN9__gnu_cxx13new_allocatorINSt7__cxx1112basic_stringIcSt11char_traitsIcESaIcEEEE8allocateEmPKv, symObjAddr: 0x170C, symBinAddr: 0x100003328, symSize: 0x78 }
  - { offsetInCU: 0xA70E, offset: 0xA70E, size: 0x8, addend: 0x0, symName: __ZSt12__relocate_aIPNSt7__cxx1112basic_stringIcSt11char_traitsIcESaIcEEES6_SaIS5_EET0_T_S9_S8_RT1_, symObjAddr: 0x1784, symBinAddr: 0x1000033A0, symSize: 0x5C }
  - { offsetInCU: 0xA766, offset: 0xA766, size: 0x8, addend: 0x0, symName: __ZNK9__gnu_cxx13new_allocatorINSt7__cxx1112basic_stringIcSt11char_traitsIcESaIcEEEE11_M_max_sizeEv, symObjAddr: 0x16F8, symBinAddr: 0x100003314, symSize: 0x14 }
  - { offsetInCU: 0xA76E, offset: 0xA76E, size: 0x8, addend: 0x0, symName: __ZN9__gnu_cxx13new_allocatorINSt7__cxx1112basic_stringIcSt11char_traitsIcESaIcEEEE8allocateEmPKv, symObjAddr: 0x170C, symBinAddr: 0x100003328, symSize: 0x78 }
  - { offsetInCU: 0xA795, offset: 0xA795, size: 0x8, addend: 0x0, symName: __ZNKSt12_Vector_baseINSt7__cxx1112basic_stringIcSt11char_traitsIcESaIcEEESaIS5_EE19_M_get_Tp_allocatorEv, symObjAddr: 0x16E4, symBinAddr: 0x100003300, symSize: 0x14 }
  - { offsetInCU: 0xA79D, offset: 0xA79D, size: 0x8, addend: 0x0, symName: __ZNK9__gnu_cxx13new_allocatorINSt7__cxx1112basic_stringIcSt11char_traitsIcESaIcEEEE11_M_max_sizeEv, symObjAddr: 0x16F8, symBinAddr: 0x100003314, symSize: 0x14 }
  - { offsetInCU: 0xA7C4, offset: 0xA7C4, size: 0x8, addend: 0x0, symName: __ZNSt6vectorINSt7__cxx1112basic_stringIcSt11char_traitsIcESaIcEEESaIS5_EE11_S_max_sizeERKS6_, symObjAddr: 0x16AC, symBinAddr: 0x1000032C8, symSize: 0x38 }
  - { offsetInCU: 0xA7CC, offset: 0xA7CC, size: 0x8, addend: 0x0, symName: __ZNKSt12_Vector_baseINSt7__cxx1112basic_stringIcSt11char_traitsIcESaIcEEESaIS5_EE19_M_get_Tp_allocatorEv, symObjAddr: 0x16E4, symBinAddr: 0x100003300, symSize: 0x14 }
  - { offsetInCU: 0xA81E, offset: 0xA81E, size: 0x8, addend: 0x0, symName: __ZNSt11_Tuple_implILm0EJPSt6vectorINSt7__cxx1112basic_stringIcSt11char_traitsIcESaIcEEESaIS6_EESt14default_deleteIS8_EEE7_M_headERKSC_, symObjAddr: 0x1690, symBinAddr: 0x1000032AC, symSize: 0x1C }
  - { offsetInCU: 0xA826, offset: 0xA826, size: 0x8, addend: 0x0, symName: __ZNSt6vectorINSt7__cxx1112basic_stringIcSt11char_traitsIcESaIcEEESaIS5_EE11_S_max_sizeERKS6_, symObjAddr: 0x16AC, symBinAddr: 0x1000032C8, symSize: 0x38 }
  - { offsetInCU: 0xA850, offset: 0xA850, size: 0x8, addend: 0x0, symName: __ZNSt12_Destroy_auxILb0EE9__destroyIPNSt7__cxx1112basic_stringIcSt11char_traitsIcESaIcEEEEEvT_S9_, symObjAddr: 0x1644, symBinAddr: 0x100003260, symSize: 0x4C }
  - { offsetInCU: 0xA858, offset: 0xA858, size: 0x8, addend: 0x0, symName: __ZNSt11_Tuple_implILm0EJPSt6vectorINSt7__cxx1112basic_stringIcSt11char_traitsIcESaIcEEESaIS6_EESt14default_deleteIS8_EEE7_M_headERKSC_, symObjAddr: 0x1690, symBinAddr: 0x1000032AC, symSize: 0x1C }
  - { offsetInCU: 0xA8A1, offset: 0xA8A1, size: 0x8, addend: 0x0, symName: __ZNSt11_Tuple_implILm1EJSt14default_deleteISt6vectorINSt7__cxx1112basic_stringIcSt11char_traitsIcESaIcEEESaIS7_EEEEE7_M_headERSB_, symObjAddr: 0x1628, symBinAddr: 0x100003244, symSize: 0x1C }
  - { offsetInCU: 0xA8A9, offset: 0xA8A9, size: 0x8, addend: 0x0, symName: __ZNSt12_Destroy_auxILb0EE9__destroyIPNSt7__cxx1112basic_stringIcSt11char_traitsIcESaIcEEEEEvT_S9_, symObjAddr: 0x1644, symBinAddr: 0x100003260, symSize: 0x4C }
  - { offsetInCU: 0xA8D3, offset: 0xA8D3, size: 0x8, addend: 0x0, symName: __ZNSt10_Head_baseILm0EPSt6vectorINSt7__cxx1112basic_stringIcSt11char_traitsIcESaIcEEESaIS6_EELb0EE7_M_headERSA_, symObjAddr: 0x1614, symBinAddr: 0x100003230, symSize: 0x14 }
  - { offsetInCU: 0xA8DB, offset: 0xA8DB, size: 0x8, addend: 0x0, symName: __ZNSt11_Tuple_implILm1EJSt14default_deleteISt6vectorINSt7__cxx1112basic_stringIcSt11char_traitsIcESaIcEEESaIS7_EEEEE7_M_headERSB_, symObjAddr: 0x1628, symBinAddr: 0x100003244, symSize: 0x1C }
  - { offsetInCU: 0xA904, offset: 0xA904, size: 0x8, addend: 0x0, symName: __ZN9__gnu_cxx13new_allocatorINSt7__cxx1112basic_stringIcSt11char_traitsIcESaIcEEEE7destroyIS6_EEvPT_, symObjAddr: 0x15F0, symBinAddr: 0x10000320C, symSize: 0x24 }
  - { offsetInCU: 0xA90C, offset: 0xA90C, size: 0x8, addend: 0x0, symName: __ZNSt10_Head_baseILm0EPSt6vectorINSt7__cxx1112basic_stringIcSt11char_traitsIcESaIcEEESaIS6_EELb0EE7_M_headERSA_, symObjAddr: 0x1614, symBinAddr: 0x100003230, symSize: 0x14 }
  - { offsetInCU: 0xA953, offset: 0xA953, size: 0x8, addend: 0x0, symName: __ZNSt6vectorINSt7__cxx1112basic_stringIcSt11char_traitsIcESaIcEEESaIS5_EE14_S_do_relocateEPS5_S8_S8_RS6_St17integral_constantIbLb1EE, symObjAddr: 0x15B8, symBinAddr: 0x1000031D4, symSize: 0x38 }
  - { offsetInCU: 0xA95B, offset: 0xA95B, size: 0x8, addend: 0x0, symName: __ZN9__gnu_cxx13new_allocatorINSt7__cxx1112basic_stringIcSt11char_traitsIcESaIcEEEE7destroyIS6_EEvPT_, symObjAddr: 0x15F0, symBinAddr: 0x10000320C, symSize: 0x24 }
  - { offsetInCU: 0xA9CD, offset: 0xA9CD, size: 0x8, addend: 0x0, symName: __ZNSt16allocator_traitsISaINSt7__cxx1112basic_stringIcSt11char_traitsIcESaIcEEEEE8allocateERS6_m, symObjAddr: 0x1590, symBinAddr: 0x1000031AC, symSize: 0x28 }
  - { offsetInCU: 0xA9D5, offset: 0xA9D5, size: 0x8, addend: 0x0, symName: __ZNSt6vectorINSt7__cxx1112basic_stringIcSt11char_traitsIcESaIcEEESaIS5_EE14_S_do_relocateEPS5_S8_S8_RS6_St17integral_constantIbLb1EE, symObjAddr: 0x15B8, symBinAddr: 0x1000031D4, symSize: 0x38 }
  - { offsetInCU: 0xAA13, offset: 0xAA13, size: 0x8, addend: 0x0, symName: __ZNKSt6vectorINSt7__cxx1112basic_stringIcSt11char_traitsIcESaIcEEESaIS5_EE4sizeEv, symObjAddr: 0x1568, symBinAddr: 0x100003184, symSize: 0x28 }
  - { offsetInCU: 0xAA1B, offset: 0xAA1B, size: 0x8, addend: 0x0, symName: __ZNSt16allocator_traitsISaINSt7__cxx1112basic_stringIcSt11char_traitsIcESaIcEEEEE8allocateERS6_m, symObjAddr: 0x1590, symBinAddr: 0x1000031AC, symSize: 0x28 }
  - { offsetInCU: 0xAA42, offset: 0xAA42, size: 0x8, addend: 0x0, symName: __ZNKSt6vectorINSt7__cxx1112basic_stringIcSt11char_traitsIcESaIcEEESaIS5_EE8max_sizeEv, symObjAddr: 0x1548, symBinAddr: 0x100003164, symSize: 0x20 }
  - { offsetInCU: 0xAA4A, offset: 0xAA4A, size: 0x8, addend: 0x0, symName: __ZNKSt6vectorINSt7__cxx1112basic_stringIcSt11char_traitsIcESaIcEEESaIS5_EE4sizeEv, symObjAddr: 0x1568, symBinAddr: 0x100003184, symSize: 0x28 }
  - { offsetInCU: 0xAB19, offset: 0xAB19, size: 0x8, addend: 0x0, symName: __ZSt12__get_helperILm0EPSt6vectorINSt7__cxx1112basic_stringIcSt11char_traitsIcESaIcEEESaIS6_EEJSt14default_deleteIS8_EEERKT0_RKSt11_Tuple_implIXT_EJSC_DpT1_EE, symObjAddr: 0x152C, symBinAddr: 0x100003148, symSize: 0x1C }
  - { offsetInCU: 0xAB21, offset: 0xAB21, size: 0x8, addend: 0x0, symName: __ZNKSt6vectorINSt7__cxx1112basic_stringIcSt11char_traitsIcESaIcEEESaIS5_EE8max_sizeEv, symObjAddr: 0x1548, symBinAddr: 0x100003164, symSize: 0x20 }
  - { offsetInCU: 0xAADA, offset: 0xAADA, size: 0x8, addend: 0x0, symName: __ZN9__gnu_cxx13new_allocatorINSt7__cxx1112basic_stringIcSt11char_traitsIcESaIcEEEE10deallocateEPS6_m, symObjAddr: 0x14FC, symBinAddr: 0x100003118, symSize: 0x30 }
  - { offsetInCU: 0xAAE2, offset: 0xAAE2, size: 0x8, addend: 0x0, symName: __ZSt12__get_helperILm0EPSt6vectorINSt7__cxx1112basic_stringIcSt11char_traitsIcESaIcEEESaIS6_EEJSt14default_deleteIS8_EEERKT0_RKSt11_Tuple_implIXT_EJSC_DpT1_EE, symObjAddr: 0x152C, symBinAddr: 0x100003148, symSize: 0x1C }
  - { offsetInCU: 0xABA6, offset: 0xABA6, size: 0x8, addend: 0x0, symName: __ZSt8_DestroyIPNSt7__cxx1112basic_stringIcSt11char_traitsIcESaIcEEEEvT_S7_, symObjAddr: 0x14D4, symBinAddr: 0x1000030F0, symSize: 0x28 }
  - { offsetInCU: 0xABAE, offset: 0xABAE, size: 0x8, addend: 0x0, symName: __ZN9__gnu_cxx13new_allocatorINSt7__cxx1112basic_stringIcSt11char_traitsIcESaIcEEEE10deallocateEPS6_m, symObjAddr: 0x14FC, symBinAddr: 0x100003118, symSize: 0x30 }
  - { offsetInCU: 0xAC79, offset: 0xAC79, size: 0x8, addend: 0x0, symName: __ZSt12__get_helperILm1ESt14default_deleteISt6vectorINSt7__cxx1112basic_stringIcSt11char_traitsIcESaIcEEESaIS7_EEEJEERT0_RSt11_Tuple_implIXT_EJSB_DpT1_EE, symObjAddr: 0x14B8, symBinAddr: 0x1000030D4, symSize: 0x1C }
  - { offsetInCU: 0xAC81, offset: 0xAC81, size: 0x8, addend: 0x0, symName: __ZSt8_DestroyIPNSt7__cxx1112basic_stringIcSt11char_traitsIcESaIcEEEEvT_S7_, symObjAddr: 0x14D4, symBinAddr: 0x1000030F0, symSize: 0x28 }
  - { offsetInCU: 0xABE3, offset: 0xABE3, size: 0x8, addend: 0x0, symName: __ZNSt11_Tuple_implILm0EJPSt6vectorINSt7__cxx1112basic_stringIcSt11char_traitsIcESaIcEEESaIS6_EESt14default_deleteIS8_EEE7_M_headERSC_, symObjAddr: 0x149C, symBinAddr: 0x1000030B8, symSize: 0x1C }
  - { offsetInCU: 0xABEB, offset: 0xABEB, size: 0x8, addend: 0x0, symName: __ZSt12__get_helperILm1ESt14default_deleteISt6vectorINSt7__cxx1112basic_stringIcSt11char_traitsIcESaIcEEESaIS7_EEEJEERT0_RSt11_Tuple_implIXT_EJSB_DpT1_EE, symObjAddr: 0x14B8, symBinAddr: 0x1000030D4, symSize: 0x1C }
  - { offsetInCU: 0xAC15, offset: 0xAC15, size: 0x8, addend: 0x0, symName: __ZNK9__gnu_cxx17__normal_iteratorIPNSt7__cxx1112basic_stringIcSt11char_traitsIcESaIcEEESt6vectorIS6_SaIS6_EEEdeEv, symObjAddr: 0x1484, symBinAddr: 0x1000030A0, symSize: 0x18 }
  - { offsetInCU: 0xAC1D, offset: 0xAC1D, size: 0x8, addend: 0x0, symName: __ZNSt11_Tuple_implILm0EJPSt6vectorINSt7__cxx1112basic_stringIcSt11char_traitsIcESaIcEEESaIS6_EESt14default_deleteIS8_EEE7_M_headERSC_, symObjAddr: 0x149C, symBinAddr: 0x1000030B8, symSize: 0x1C }
  - { offsetInCU: 0xAC44, offset: 0xAC44, size: 0x8, addend: 0x0, symName: __ZNK9__gnu_cxx17__normal_iteratorIPNSt7__cxx1112basic_stringIcSt11char_traitsIcESaIcEEESt6vectorIS6_SaIS6_EEEmiEl, symObjAddr: 0x1440, symBinAddr: 0x10000305C, symSize: 0x44 }
  - { offsetInCU: 0xAC4C, offset: 0xAC4C, size: 0x8, addend: 0x0, symName: __ZNK9__gnu_cxx17__normal_iteratorIPNSt7__cxx1112basic_stringIcSt11char_traitsIcESaIcEEESt6vectorIS6_SaIS6_EEEdeEv, symObjAddr: 0x1484, symBinAddr: 0x1000030A0, symSize: 0x18 }
  - { offsetInCU: 0xAC87, offset: 0xAC87, size: 0x8, addend: 0x0, symName: __ZNSt16allocator_traitsISaINSt7__cxx1112basic_stringIcSt11char_traitsIcESaIcEEEEE7destroyIS5_EEvRS6_PT_, symObjAddr: 0x1418, symBinAddr: 0x100003034, symSize: 0x28 }
  - { offsetInCU: 0xAC8F, offset: 0xAC8F, size: 0x8, addend: 0x0, symName: __ZNK9__gnu_cxx17__normal_iteratorIPNSt7__cxx1112basic_stringIcSt11char_traitsIcESaIcEEESt6vectorIS6_SaIS6_EEEmiEl, symObjAddr: 0x1440, symBinAddr: 0x10000305C, symSize: 0x44 }
  - { offsetInCU: 0xACDA, offset: 0xACDA, size: 0x8, addend: 0x0, symName: __ZNK9__gnu_cxx17__normal_iteratorIPNSt7__cxx1112basic_stringIcSt11char_traitsIcESaIcEEESt6vectorIS6_SaIS6_EEE4baseEv, symObjAddr: 0x1404, symBinAddr: 0x100003020, symSize: 0x14 }
  - { offsetInCU: 0xACE2, offset: 0xACE2, size: 0x8, addend: 0x0, symName: __ZNSt16allocator_traitsISaINSt7__cxx1112basic_stringIcSt11char_traitsIcESaIcEEEEE7destroyIS5_EEvRS6_PT_, symObjAddr: 0x1418, symBinAddr: 0x100003034, symSize: 0x28 }
  - { offsetInCU: 0xAD09, offset: 0xAD09, size: 0x8, addend: 0x0, symName: __ZNSt6vectorINSt7__cxx1112basic_stringIcSt11char_traitsIcESaIcEEESaIS5_EE11_S_relocateEPS5_S8_S8_RS6_, symObjAddr: 0x13D0, symBinAddr: 0x100002FEC, symSize: 0x34 }
  - { offsetInCU: 0xAD11, offset: 0xAD11, size: 0x8, addend: 0x0, symName: __ZNK9__gnu_cxx17__normal_iteratorIPNSt7__cxx1112basic_stringIcSt11char_traitsIcESaIcEEESt6vectorIS6_SaIS6_EEE4baseEv, symObjAddr: 0x1404, symBinAddr: 0x100003020, symSize: 0x14 }
  - { offsetInCU: 0xAD77, offset: 0xAD77, size: 0x8, addend: 0x0, symName: __ZNSt12_Vector_baseINSt7__cxx1112basic_stringIcSt11char_traitsIcESaIcEEESaIS5_EE11_M_allocateEm, symObjAddr: 0x1398, symBinAddr: 0x100002FB4, symSize: 0x38 }
  - { offsetInCU: 0xAD7F, offset: 0xAD7F, size: 0x8, addend: 0x0, symName: __ZNSt6vectorINSt7__cxx1112basic_stringIcSt11char_traitsIcESaIcEEESaIS5_EE11_S_relocateEPS5_S8_S8_RS6_, symObjAddr: 0x13D0, symBinAddr: 0x100002FEC, symSize: 0x34 }
  - { offsetInCU: 0xAEB1, offset: 0xAEB1, size: 0x8, addend: 0x0, symName: __ZN9__gnu_cxxmiIPNSt7__cxx1112basic_stringIcSt11char_traitsIcESaIcEEESt6vectorIS6_SaIS6_EEEENS_17__normal_iteratorIT_T0_E15difference_typeERKSE_SH_, symObjAddr: 0x1358, symBinAddr: 0x100002F74, symSize: 0x40 }
  - { offsetInCU: 0xAEB9, offset: 0xAEB9, size: 0x8, addend: 0x0, symName: __ZNSt12_Vector_baseINSt7__cxx1112basic_stringIcSt11char_traitsIcESaIcEEESaIS5_EE11_M_allocateEm, symObjAddr: 0x1398, symBinAddr: 0x100002FB4, symSize: 0x38 }
  - { offsetInCU: 0xAE31, offset: 0xAE31, size: 0x8, addend: 0x0, symName: __ZNSt6vectorINSt7__cxx1112basic_stringIcSt11char_traitsIcESaIcEEESaIS5_EE5beginEv, symObjAddr: 0x1334, symBinAddr: 0x100002F50, symSize: 0x24 }
  - { offsetInCU: 0xAE39, offset: 0xAE39, size: 0x8, addend: 0x0, symName: __ZN9__gnu_cxxmiIPNSt7__cxx1112basic_stringIcSt11char_traitsIcESaIcEEESt6vectorIS6_SaIS6_EEEENS_17__normal_iteratorIT_T0_E15difference_typeERKSE_SH_, symObjAddr: 0x1358, symBinAddr: 0x100002F74, symSize: 0x40 }
  - { offsetInCU: 0xAE60, offset: 0xAE60, size: 0x8, addend: 0x0, symName: __ZNKSt6vectorINSt7__cxx1112basic_stringIcSt11char_traitsIcESaIcEEESaIS5_EE12_M_check_lenEmPKc, symObjAddr: 0x1268, symBinAddr: 0x100002E84, symSize: 0xCC }
  - { offsetInCU: 0xAE68, offset: 0xAE68, size: 0x8, addend: 0x0, symName: __ZNSt6vectorINSt7__cxx1112basic_stringIcSt11char_traitsIcESaIcEEESaIS5_EE5beginEv, symObjAddr: 0x1334, symBinAddr: 0x100002F50, symSize: 0x24 }
  - { offsetInCU: 0xAF6A, offset: 0xAF6A, size: 0x8, addend: 0x0, symName: __ZN9__gnu_cxx17__normal_iteratorIPNSt7__cxx1112basic_stringIcSt11char_traitsIcESaIcEEESt6vectorIS6_SaIS6_EEEC1ERKS7_, symObjAddr: 0x1240, symBinAddr: 0x100002E5C, symSize: 0x28 }
  - { offsetInCU: 0xAF72, offset: 0xAF72, size: 0x8, addend: 0x0, symName: __ZNKSt6vectorINSt7__cxx1112basic_stringIcSt11char_traitsIcESaIcEEESaIS5_EE12_M_check_lenEmPKc, symObjAddr: 0x1268, symBinAddr: 0x100002E84, symSize: 0xCC }
  - { offsetInCU: 0xAF2F, offset: 0xAF2F, size: 0x8, addend: 0x0, symName: __ZN9__gnu_cxx13new_allocatorINSt7__cxx1112basic_stringIcSt11char_traitsIcESaIcEEEE9constructIS6_JS6_EEEvPT_DpOT0_, symObjAddr: 0x11F4, symBinAddr: 0x100002E10, symSize: 0x4C }
  - { offsetInCU: 0xAF37, offset: 0xAF37, size: 0x8, addend: 0x0, symName: __ZN9__gnu_cxx17__normal_iteratorIPNSt7__cxx1112basic_stringIcSt11char_traitsIcESaIcEEESt6vectorIS6_SaIS6_EEEC1ERKS7_, symObjAddr: 0x1240, symBinAddr: 0x100002E5C, symSize: 0x28 }
  - { offsetInCU: 0xB065, offset: 0xB065, size: 0x8, addend: 0x0, symName: __ZSt3getILm0EJPSt6vectorINSt7__cxx1112basic_stringIcSt11char_traitsIcESaIcEEESaIS6_EESt14default_deleteIS8_EEERKNSt13tuple_elementIXT_ESt5tupleIJDpT0_EEE4typeERKSG_, symObjAddr: 0x11D8, symBinAddr: 0x100002DF4, symSize: 0x1C }
  - { offsetInCU: 0xB06D, offset: 0xB06D, size: 0x8, addend: 0x0, symName: __ZN9__gnu_cxx13new_allocatorINSt7__cxx1112basic_stringIcSt11char_traitsIcESaIcEEEE9constructIS6_JS6_EEEvPT_DpOT0_, symObjAddr: 0x11F4, symBinAddr: 0x100002E10, symSize: 0x4C }
  - { offsetInCU: 0xB026, offset: 0xB026, size: 0x8, addend: 0x0, symName: __ZNSt16allocator_traitsISaINSt7__cxx1112basic_stringIcSt11char_traitsIcESaIcEEEEE10deallocateERS6_PS5_m, symObjAddr: 0x11A8, symBinAddr: 0x100002DC4, symSize: 0x30 }
  - { offsetInCU: 0xB02E, offset: 0xB02E, size: 0x8, addend: 0x0, symName: __ZSt3getILm0EJPSt6vectorINSt7__cxx1112basic_stringIcSt11char_traitsIcESaIcEEESaIS6_EESt14default_deleteIS8_EEERKNSt13tuple_elementIXT_ESt5tupleIJDpT0_EEE4typeERKSG_, symObjAddr: 0x11D8, symBinAddr: 0x100002DF4, symSize: 0x1C }
  - { offsetInCU: 0xB0F0, offset: 0xB0F0, size: 0x8, addend: 0x0, symName: __ZN9__gnu_cxx13new_allocatorINSt7__cxx1112basic_stringIcSt11char_traitsIcESaIcEEEEC2Ev, symObjAddr: 0x1194, symBinAddr: 0x100002DB0, symSize: 0x14 }
  - { offsetInCU: 0xB0F8, offset: 0xB0F8, size: 0x8, addend: 0x0, symName: __ZNSt16allocator_traitsISaINSt7__cxx1112basic_stringIcSt11char_traitsIcESaIcEEEEE10deallocateERS6_PS5_m, symObjAddr: 0x11A8, symBinAddr: 0x100002DC4, symSize: 0x30 }
  - { offsetInCU: 0xB16D, offset: 0xB16D, size: 0x8, addend: 0x0, symName: __ZSt8_DestroyIPNSt7__cxx1112basic_stringIcSt11char_traitsIcESaIcEEES5_EvT_S7_RSaIT0_E, symObjAddr: 0x1168, symBinAddr: 0x100002D84, symSize: 0x2C }
  - { offsetInCU: 0xB175, offset: 0xB175, size: 0x8, addend: 0x0, symName: __ZN9__gnu_cxx13new_allocatorINSt7__cxx1112basic_stringIcSt11char_traitsIcESaIcEEEEC2Ev, symObjAddr: 0x1194, symBinAddr: 0x100002DB0, symSize: 0x14 }
  - { offsetInCU: 0xB138, offset: 0xB138, size: 0x8, addend: 0x0, symName: __ZNSt12_Vector_baseINSt7__cxx1112basic_stringIcSt11char_traitsIcESaIcEEESaIS5_EE19_M_get_Tp_allocatorEv, symObjAddr: 0x1154, symBinAddr: 0x100002D70, symSize: 0x14 }
  - { offsetInCU: 0xB140, offset: 0xB140, size: 0x8, addend: 0x0, symName: __ZSt8_DestroyIPNSt7__cxx1112basic_stringIcSt11char_traitsIcESaIcEEES5_EvT_S7_RSaIT0_E, symObjAddr: 0x1168, symBinAddr: 0x100002D84, symSize: 0x2C }
  - { offsetInCU: 0xB3C0, offset: 0xB3C0, size: 0x8, addend: 0x0, symName: __ZSt3getILm1EJPSt6vectorINSt7__cxx1112basic_stringIcSt11char_traitsIcESaIcEEESaIS6_EESt14default_deleteIS8_EEERNSt13tuple_elementIXT_ESt5tupleIJDpT0_EEE4typeERSG_, symObjAddr: 0x1138, symBinAddr: 0x100002D54, symSize: 0x1C }
  - { offsetInCU: 0xB3C8, offset: 0xB3C8, size: 0x8, addend: 0x0, symName: __ZNSt12_Vector_baseINSt7__cxx1112basic_stringIcSt11char_traitsIcESaIcEEESaIS5_EE19_M_get_Tp_allocatorEv, symObjAddr: 0x1154, symBinAddr: 0x100002D70, symSize: 0x14 }
  - { offsetInCU: 0xB28C, offset: 0xB28C, size: 0x8, addend: 0x0, symName: __ZSt12__get_helperILm0EPSt6vectorINSt7__cxx1112basic_stringIcSt11char_traitsIcESaIcEEESaIS6_EEJSt14default_deleteIS8_EEERT0_RSt11_Tuple_implIXT_EJSC_DpT1_EE, symObjAddr: 0x111C, symBinAddr: 0x100002D38, symSize: 0x1C }
  - { offsetInCU: 0xB294, offset: 0xB294, size: 0x8, addend: 0x0, symName: __ZSt3getILm1EJPSt6vectorINSt7__cxx1112basic_stringIcSt11char_traitsIcESaIcEEESaIS6_EESt14default_deleteIS8_EEERNSt13tuple_elementIXT_ESt5tupleIJDpT0_EEE4typeERSG_, symObjAddr: 0x1138, symBinAddr: 0x100002D54, symSize: 0x1C }
  - { offsetInCU: 0xB2E2, offset: 0xB2E2, size: 0x8, addend: 0x0, symName: __ZNSt10_Head_baseILm1ESt14default_deleteISt6vectorINSt7__cxx1112basic_stringIcSt11char_traitsIcESaIcEEESaIS7_EEELb1EEC2Ev, symObjAddr: 0x1108, symBinAddr: 0x100002D24, symSize: 0x14 }
  - { offsetInCU: 0xB2EA, offset: 0xB2EA, size: 0x8, addend: 0x0, symName: __ZSt12__get_helperILm0EPSt6vectorINSt7__cxx1112basic_stringIcSt11char_traitsIcESaIcEEESaIS6_EEJSt14default_deleteIS8_EEERT0_RSt11_Tuple_implIXT_EJSC_DpT1_EE, symObjAddr: 0x111C, symBinAddr: 0x100002D38, symSize: 0x1C }
  - { offsetInCU: 0xB296, offset: 0xB296, size: 0x8, addend: 0x0, symName: __ZNSt6vectorINSt7__cxx1112basic_stringIcSt11char_traitsIcESaIcEEESaIS5_EE4backEv, symObjAddr: 0x10D0, symBinAddr: 0x100002CEC, symSize: 0x38 }
  - { offsetInCU: 0xB29E, offset: 0xB29E, size: 0x8, addend: 0x0, symName: __ZNSt10_Head_baseILm1ESt14default_deleteISt6vectorINSt7__cxx1112basic_stringIcSt11char_traitsIcESaIcEEESaIS7_EEELb1EEC2Ev, symObjAddr: 0x1108, symBinAddr: 0x100002D24, symSize: 0x14 }
  - { offsetInCU: 0xB2C5, offset: 0xB2C5, size: 0x8, addend: 0x0, symName: __ZNSt6vectorINSt7__cxx1112basic_stringIcSt11char_traitsIcESaIcEEESaIS5_EE17_M_realloc_insertIJS5_EEEvN9__gnu_cxx17__normal_iteratorIPS5_S7_EEDpOT_, symObjAddr: 0xF58, symBinAddr: 0x100002B74, symSize: 0x178 }
  - { offsetInCU: 0xB2CD, offset: 0xB2CD, size: 0x8, addend: 0x0, symName: __ZNSt6vectorINSt7__cxx1112basic_stringIcSt11char_traitsIcESaIcEEESaIS5_EE4backEv, symObjAddr: 0x10D0, symBinAddr: 0x100002CEC, symSize: 0x38 }
  - { offsetInCU: 0xB3A4, offset: 0xB3A4, size: 0x8, addend: 0x0, symName: __ZNSt6vectorINSt7__cxx1112basic_stringIcSt11char_traitsIcESaIcEEESaIS5_EE3endEv, symObjAddr: 0xF30, symBinAddr: 0x100002B4C, symSize: 0x28 }
  - { offsetInCU: 0xB3AC, offset: 0xB3AC, size: 0x8, addend: 0x0, symName: __ZNSt6vectorINSt7__cxx1112basic_stringIcSt11char_traitsIcESaIcEEESaIS5_EE17_M_realloc_insertIJS5_EEEvN9__gnu_cxx17__normal_iteratorIPS5_S7_EEDpOT_, symObjAddr: 0xF58, symBinAddr: 0x100002B74, symSize: 0x178 }
  - { offsetInCU: 0xB3D3, offset: 0xB3D3, size: 0x8, addend: 0x0, symName: __ZNSt16allocator_traitsISaINSt7__cxx1112basic_stringIcSt11char_traitsIcESaIcEEEEE9constructIS5_JS5_EEEvRS6_PT_DpOT0_, symObjAddr: 0xEF8, symBinAddr: 0x100002B14, symSize: 0x38 }
  - { offsetInCU: 0xB3DB, offset: 0xB3DB, size: 0x8, addend: 0x0, symName: __ZNSt6vectorINSt7__cxx1112basic_stringIcSt11char_traitsIcESaIcEEESaIS5_EE3endEv, symObjAddr: 0xF30, symBinAddr: 0x100002B4C, symSize: 0x28 }
  - { offsetInCU: 0xB4DD, offset: 0xB4DD, size: 0x8, addend: 0x0, symName: __ZSt7forwardINSt7__cxx1112basic_stringIcSt11char_traitsIcESaIcEEEEOT_RNSt16remove_referenceIS6_E4typeE, symObjAddr: 0xEE4, symBinAddr: 0x100002B00, symSize: 0x14 }
  - { offsetInCU: 0xB4E5, offset: 0xB4E5, size: 0x8, addend: 0x0, symName: __ZNSt16allocator_traitsISaINSt7__cxx1112basic_stringIcSt11char_traitsIcESaIcEEEEE9constructIS5_JS5_EEEvRS6_PT_DpOT0_, symObjAddr: 0xEF8, symBinAddr: 0x100002B14, symSize: 0x38 }
  - { offsetInCU: 0xB49B, offset: 0xB49B, size: 0x8, addend: 0x0, symName: __ZNKSt15__uniq_ptr_implISt6vectorINSt7__cxx1112basic_stringIcSt11char_traitsIcESaIcEEESaIS6_EESt14default_deleteIS8_EE6_M_ptrEv, symObjAddr: 0xEC4, symBinAddr: 0x100002AE0, symSize: 0x20 }
  - { offsetInCU: 0xB4A3, offset: 0xB4A3, size: 0x8, addend: 0x0, symName: __ZSt7forwardINSt7__cxx1112basic_stringIcSt11char_traitsIcESaIcEEEEOT_RNSt16remove_referenceIS6_E4typeE, symObjAddr: 0xEE4, symBinAddr: 0x100002B00, symSize: 0x14 }
  - { offsetInCU: 0xB570, offset: 0xB570, size: 0x8, addend: 0x0, symName: __ZNSt15__uniq_ptr_implISt6vectorINSt7__cxx1112basic_stringIcSt11char_traitsIcESaIcEEESaIS6_EESt14default_deleteIS8_EEC2EPS8_, symObjAddr: 0xE88, symBinAddr: 0x100002AA4, symSize: 0x3C }
  - { offsetInCU: 0xB578, offset: 0xB578, size: 0x8, addend: 0x0, symName: __ZNKSt15__uniq_ptr_implISt6vectorINSt7__cxx1112basic_stringIcSt11char_traitsIcESaIcEEESaIS6_EESt14default_deleteIS8_EE6_M_ptrEv, symObjAddr: 0xEC4, symBinAddr: 0x100002AE0, symSize: 0x20 }
  - { offsetInCU: 0xB52D, offset: 0xB52D, size: 0x8, addend: 0x0, symName: __ZNSt12_Vector_baseINSt7__cxx1112basic_stringIcSt11char_traitsIcESaIcEEESaIS5_EE13_M_deallocateEPS5_m, symObjAddr: 0xE4C, symBinAddr: 0x100002A68, symSize: 0x3C }
  - { offsetInCU: 0xB535, offset: 0xB535, size: 0x8, addend: 0x0, symName: __ZNSt15__uniq_ptr_implISt6vectorINSt7__cxx1112basic_stringIcSt11char_traitsIcESaIcEEESaIS6_EESt14default_deleteIS8_EEC2EPS8_, symObjAddr: 0xE88, symBinAddr: 0x100002AA4, symSize: 0x3C }
  - { offsetInCU: 0xB602, offset: 0xB602, size: 0x8, addend: 0x0, symName: __ZN9__gnu_cxx13new_allocatorINSt7__cxx1112basic_stringIcSt11char_traitsIcESaIcEEEED2Ev, symObjAddr: 0xE38, symBinAddr: 0x100002A54, symSize: 0x14 }
  - { offsetInCU: 0xB60A, offset: 0xB60A, size: 0x8, addend: 0x0, symName: __ZNSt12_Vector_baseINSt7__cxx1112basic_stringIcSt11char_traitsIcESaIcEEESaIS5_EE13_M_deallocateEPS5_m, symObjAddr: 0xE4C, symBinAddr: 0x100002A68, symSize: 0x3C }
  - { offsetInCU: 0xB65A, offset: 0xB65A, size: 0x8, addend: 0x0, symName: __ZNSt12_Vector_baseINSt7__cxx1112basic_stringIcSt11char_traitsIcESaIcEEESaIS5_EE17_Vector_impl_dataC2Ev, symObjAddr: 0xE0C, symBinAddr: 0x100002A28, symSize: 0x2C }
  - { offsetInCU: 0xB662, offset: 0xB662, size: 0x8, addend: 0x0, symName: __ZN9__gnu_cxx13new_allocatorINSt7__cxx1112basic_stringIcSt11char_traitsIcESaIcEEEED2Ev, symObjAddr: 0xE38, symBinAddr: 0x100002A54, symSize: 0x14 }
  - { offsetInCU: 0xB679, offset: 0xB679, size: 0x8, addend: 0x0, symName: __ZNSaINSt7__cxx1112basic_stringIcSt11char_traitsIcESaIcEEEEC2Ev, symObjAddr: 0xDEC, symBinAddr: 0x100002A08, symSize: 0x20 }
  - { offsetInCU: 0xB681, offset: 0xB681, size: 0x8, addend: 0x0, symName: __ZNSt12_Vector_baseINSt7__cxx1112basic_stringIcSt11char_traitsIcESaIcEEESaIS5_EE17_Vector_impl_dataC2Ev, symObjAddr: 0xE0C, symBinAddr: 0x100002A28, symSize: 0x2C }
  - { offsetInCU: 0xB6DC, offset: 0xB6DC, size: 0x8, addend: 0x0, symName: __ZNSt6vectorINSt7__cxx1112basic_stringIcSt11char_traitsIcESaIcEEESaIS5_EED1Ev, symObjAddr: 0xD9C, symBinAddr: 0x1000029B8, symSize: 0x50 }
  - { offsetInCU: 0xB6E4, offset: 0xB6E4, size: 0x8, addend: 0x0, symName: __ZNSaINSt7__cxx1112basic_stringIcSt11char_traitsIcESaIcEEEEC2Ev, symObjAddr: 0xDEC, symBinAddr: 0x100002A08, symSize: 0x20 }
  - { offsetInCU: 0xB6BC, offset: 0xB6BC, size: 0x8, addend: 0x0, symName: __ZNSt15__uniq_ptr_implISt6vectorINSt7__cxx1112basic_stringIcSt11char_traitsIcESaIcEEESaIS6_EESt14default_deleteIS8_EE10_M_deleterEv, symObjAddr: 0xD80, symBinAddr: 0x10000299C, symSize: 0x1C }
  - { offsetInCU: 0xB6C4, offset: 0xB6C4, size: 0x8, addend: 0x0, symName: __ZNSt6vectorINSt7__cxx1112basic_stringIcSt11char_traitsIcESaIcEEESaIS5_EED1Ev, symObjAddr: 0xD9C, symBinAddr: 0x1000029B8, symSize: 0x50 }
  - { offsetInCU: 0xB797, offset: 0xB797, size: 0x8, addend: 0x0, symName: __ZSt3getILm0EJPSt6vectorINSt7__cxx1112basic_stringIcSt11char_traitsIcESaIcEEESaIS6_EESt14default_deleteIS8_EEERNSt13tuple_elementIXT_ESt5tupleIJDpT0_EEE4typeERSG_, symObjAddr: 0xD64, symBinAddr: 0x100002980, symSize: 0x1C }
  - { offsetInCU: 0xB79F, offset: 0xB79F, size: 0x8, addend: 0x0, symName: __ZNSt15__uniq_ptr_implISt6vectorINSt7__cxx1112basic_stringIcSt11char_traitsIcESaIcEEESaIS6_EESt14default_deleteIS8_EE10_M_deleterEv, symObjAddr: 0xD80, symBinAddr: 0x10000299C, symSize: 0x1C }
  - { offsetInCU: 0xB7DA, offset: 0xB7DA, size: 0x8, addend: 0x0, symName: __ZNSt10_Head_baseILm0EPSt6vectorINSt7__cxx1112basic_stringIcSt11char_traitsIcESaIcEEESaIS6_EELb0EEC2Ev, symObjAddr: 0xD48, symBinAddr: 0x100002964, symSize: 0x1C }
  - { offsetInCU: 0xB7E2, offset: 0xB7E2, size: 0x8, addend: 0x0, symName: __ZSt3getILm0EJPSt6vectorINSt7__cxx1112basic_stringIcSt11char_traitsIcESaIcEEESaIS6_EESt14default_deleteIS8_EEERNSt13tuple_elementIXT_ESt5tupleIJDpT0_EEE4typeERSG_, symObjAddr: 0xD64, symBinAddr: 0x100002980, symSize: 0x1C }
  - { offsetInCU: 0xB833, offset: 0xB833, size: 0x8, addend: 0x0, symName: __ZNSt11_Tuple_implILm1EJSt14default_deleteISt6vectorINSt7__cxx1112basic_stringIcSt11char_traitsIcESaIcEEESaIS7_EEEEEC2Ev, symObjAddr: 0xD28, symBinAddr: 0x100002944, symSize: 0x20 }
  - { offsetInCU: 0xB83B, offset: 0xB83B, size: 0x8, addend: 0x0, symName: __ZNSt10_Head_baseILm0EPSt6vectorINSt7__cxx1112basic_stringIcSt11char_traitsIcESaIcEEESaIS6_EELb0EEC2Ev, symObjAddr: 0xD48, symBinAddr: 0x100002964, symSize: 0x1C }
  - { offsetInCU: 0xB868, offset: 0xB868, size: 0x8, addend: 0x0, symName: __ZSt10__distanceIPKcENSt15iterator_traitsIT_E15difference_typeES3_S3_St26random_access_iterator_tag, symObjAddr: 0xD04, symBinAddr: 0x100002920, symSize: 0x24 }
  - { offsetInCU: 0xB870, offset: 0xB870, size: 0x8, addend: 0x0, symName: __ZNSt11_Tuple_implILm1EJSt14default_deleteISt6vectorINSt7__cxx1112basic_stringIcSt11char_traitsIcESaIcEEESaIS7_EEEEEC2Ev, symObjAddr: 0xD28, symBinAddr: 0x100002944, symSize: 0x20 }
  - { offsetInCU: 0xB8C6, offset: 0xB8C6, size: 0x8, addend: 0x0, symName: __ZSt19__iterator_categoryIPKcENSt15iterator_traitsIT_E17iterator_categoryERKS3_, symObjAddr: 0xCF0, symBinAddr: 0x10000290C, symSize: 0x14 }
  - { offsetInCU: 0xB8CE, offset: 0xB8CE, size: 0x8, addend: 0x0, symName: __ZSt10__distanceIPKcENSt15iterator_traitsIT_E15difference_typeES3_S3_St26random_access_iterator_tag, symObjAddr: 0xD04, symBinAddr: 0x100002920, symSize: 0x24 }
  - { offsetInCU: 0xB8E0, offset: 0xB8E0, size: 0x8, addend: 0x0, symName: __ZN9__gnu_cxx17__is_null_pointerIKcEEbPT_, symObjAddr: 0xCD0, symBinAddr: 0x1000028EC, symSize: 0x20 }
  - { offsetInCU: 0xB8E8, offset: 0xB8E8, size: 0x8, addend: 0x0, symName: __ZSt19__iterator_categoryIPKcENSt15iterator_traitsIT_E17iterator_categoryERKS3_, symObjAddr: 0xCF0, symBinAddr: 0x10000290C, symSize: 0x14 }
  - { offsetInCU: 0xB984, offset: 0xB984, size: 0x8, addend: 0x0, symName: __ZNSt11_Tuple_implILm1EJSt14default_deleteISt6vectorINSt7__cxx1112basic_stringIcSt11char_traitsIcESaIcEEESaIS7_EEEEEC2EOSB_, symObjAddr: 0xCB8, symBinAddr: 0x1000028D4, symSize: 0x18 }
  - { offsetInCU: 0xB98C, offset: 0xB98C, size: 0x8, addend: 0x0, symName: __ZN9__gnu_cxx17__is_null_pointerIKcEEbPT_, symObjAddr: 0xCD0, symBinAddr: 0x1000028EC, symSize: 0x20 }
  - { offsetInCU: 0xBB8D, offset: 0xBB8D, size: 0x8, addend: 0x0, symName: __ZSt4moveIRSt5tupleIJPSt6vectorINSt7__cxx1112basic_stringIcSt11char_traitsIcESaIcEEESaIS7_EESt14default_deleteIS9_EEEEONSt16remove_referenceIT_E4typeEOSG_, symObjAddr: 0xCA4, symBinAddr: 0x1000028C0, symSize: 0x14 }
  - { offsetInCU: 0xBB95, offset: 0xBB95, size: 0x8, addend: 0x0, symName: __ZNSt11_Tuple_implILm1EJSt14default_deleteISt6vectorINSt7__cxx1112basic_stringIcSt11char_traitsIcESaIcEEESaIS7_EEEEEC2EOSB_, symObjAddr: 0xCB8, symBinAddr: 0x1000028D4, symSize: 0x18 }
  - { offsetInCU: 0xB996, offset: 0xB996, size: 0x8, addend: 0x0, symName: __ZNSt6vectorINSt7__cxx1112basic_stringIcSt11char_traitsIcESaIcEEESaIS5_EE12emplace_backIJS5_EEERS5_DpOT_, symObjAddr: 0xC04, symBinAddr: 0x100002820, symSize: 0xA0 }
  - { offsetInCU: 0xB99E, offset: 0xB99E, size: 0x8, addend: 0x0, symName: __ZSt4moveIRSt5tupleIJPSt6vectorINSt7__cxx1112basic_stringIcSt11char_traitsIcESaIcEEESaIS7_EESt14default_deleteIS9_EEEEONSt16remove_referenceIT_E4typeEOSG_, symObjAddr: 0xCA4, symBinAddr: 0x1000028C0, symSize: 0x14 }
  - { offsetInCU: 0xB9E5, offset: 0xB9E5, size: 0x8, addend: 0x0, symName: __ZNKSt10unique_ptrISt6vectorINSt7__cxx1112basic_stringIcSt11char_traitsIcESaIcEEESaIS6_EESt14default_deleteIS8_EE3getEv, symObjAddr: 0xBE8, symBinAddr: 0x100002804, symSize: 0x1C }
  - { offsetInCU: 0xB9ED, offset: 0xB9ED, size: 0x8, addend: 0x0, symName: __ZNSt6vectorINSt7__cxx1112basic_stringIcSt11char_traitsIcESaIcEEESaIS5_EE12emplace_backIJS5_EEERS5_DpOT_, symObjAddr: 0xC04, symBinAddr: 0x100002820, symSize: 0xA0 }
  - { offsetInCU: 0xBACA, offset: 0xBACA, size: 0x8, addend: 0x0, symName: __ZNSt10unique_ptrISt6vectorINSt7__cxx1112basic_stringIcSt11char_traitsIcESaIcEEESaIS6_EESt14default_deleteIS8_EEC1ISA_vEEPS8_, symObjAddr: 0xBC0, symBinAddr: 0x1000027DC, symSize: 0x28 }
  - { offsetInCU: 0xBAD2, offset: 0xBAD2, size: 0x8, addend: 0x0, symName: __ZNKSt10unique_ptrISt6vectorINSt7__cxx1112basic_stringIcSt11char_traitsIcESaIcEEESaIS6_EESt14default_deleteIS8_EE3getEv, symObjAddr: 0xBE8, symBinAddr: 0x100002804, symSize: 0x1C }
  - { offsetInCU: 0xBB5A, offset: 0xBB5A, size: 0x8, addend: 0x0, symName: __ZNSt15__uniq_ptr_dataISt6vectorINSt7__cxx1112basic_stringIcSt11char_traitsIcESaIcEEESaIS6_EESt14default_deleteIS8_ELb1ELb1EECI1St15__uniq_ptr_implIS8_SA_EEPS8_, symObjAddr: 0xB98, symBinAddr: 0x1000027B4, symSize: 0x28 }
  - { offsetInCU: 0xBB62, offset: 0xBB62, size: 0x8, addend: 0x0, symName: __ZNSt10unique_ptrISt6vectorINSt7__cxx1112basic_stringIcSt11char_traitsIcESaIcEEESaIS6_EESt14default_deleteIS8_EEC1ISA_vEEPS8_, symObjAddr: 0xBC0, symBinAddr: 0x1000027DC, symSize: 0x28 }
  - { offsetInCU: 0xBB6F, offset: 0xBB6F, size: 0x8, addend: 0x0, symName: __ZNSt12_Vector_baseINSt7__cxx1112basic_stringIcSt11char_traitsIcESaIcEEESaIS5_EED2Ev, symObjAddr: 0xB48, symBinAddr: 0x100002764, symSize: 0x50 }
  - { offsetInCU: 0xBB77, offset: 0xBB77, size: 0x8, addend: 0x0, symName: __ZNSt15__uniq_ptr_dataISt6vectorINSt7__cxx1112basic_stringIcSt11char_traitsIcESaIcEEESaIS6_EESt14default_deleteIS8_ELb1ELb1EECI1St15__uniq_ptr_implIS8_SA_EEPS8_, symObjAddr: 0xB98, symBinAddr: 0x1000027B4, symSize: 0x28 }
  - { offsetInCU: 0xBBAF, offset: 0xBBAF, size: 0x8, addend: 0x0, symName: __ZNSaINSt7__cxx1112basic_stringIcSt11char_traitsIcESaIcEEEED2Ev, symObjAddr: 0xB28, symBinAddr: 0x100002744, symSize: 0x20 }
  - { offsetInCU: 0xBBB7, offset: 0xBBB7, size: 0x8, addend: 0x0, symName: __ZNSt12_Vector_baseINSt7__cxx1112basic_stringIcSt11char_traitsIcESaIcEEESaIS5_EED2Ev, symObjAddr: 0xB48, symBinAddr: 0x100002764, symSize: 0x50 }
  - { offsetInCU: 0xBC19, offset: 0xBC19, size: 0x8, addend: 0x0, symName: __ZNSt12_Vector_baseINSt7__cxx1112basic_stringIcSt11char_traitsIcESaIcEEESaIS5_EE12_Vector_implC1Ev, symObjAddr: 0xB00, symBinAddr: 0x10000271C, symSize: 0x28 }
  - { offsetInCU: 0xBC21, offset: 0xBC21, size: 0x8, addend: 0x0, symName: __ZNSaINSt7__cxx1112basic_stringIcSt11char_traitsIcESaIcEEEED2Ev, symObjAddr: 0xB28, symBinAddr: 0x100002744, symSize: 0x20 }
  - { offsetInCU: 0xBBE4, offset: 0xBBE4, size: 0x8, addend: 0x0, symName: __ZNKSt14default_deleteISt6vectorINSt7__cxx1112basic_stringIcSt11char_traitsIcESaIcEEESaIS6_EEEclEPS8_, symObjAddr: 0xABC, symBinAddr: 0x1000026D8, symSize: 0x44 }
  - { offsetInCU: 0xBBEC, offset: 0xBBEC, size: 0x8, addend: 0x0, symName: __ZNSt12_Vector_baseINSt7__cxx1112basic_stringIcSt11char_traitsIcESaIcEEESaIS5_EE12_Vector_implC1Ev, symObjAddr: 0xB00, symBinAddr: 0x10000271C, symSize: 0x28 }
  - { offsetInCU: 0xBCD9, offset: 0xBCD9, size: 0x8, addend: 0x0, symName: __ZSt4moveIRPSt6vectorINSt7__cxx1112basic_stringIcSt11char_traitsIcESaIcEEESaIS6_EEEONSt16remove_referenceIT_E4typeEOSC_, symObjAddr: 0xAA8, symBinAddr: 0x1000026C4, symSize: 0x14 }
  - { offsetInCU: 0xBCE1, offset: 0xBCE1, size: 0x8, addend: 0x0, symName: __ZNKSt14default_deleteISt6vectorINSt7__cxx1112basic_stringIcSt11char_traitsIcESaIcEEESaIS6_EEEclEPS8_, symObjAddr: 0xABC, symBinAddr: 0x1000026D8, symSize: 0x44 }
  - { offsetInCU: 0xBC7A, offset: 0xBC7A, size: 0x8, addend: 0x0, symName: __ZNSt10unique_ptrISt6vectorINSt7__cxx1112basic_stringIcSt11char_traitsIcESaIcEEESaIS6_EESt14default_deleteIS8_EE11get_deleterEv, symObjAddr: 0xA8C, symBinAddr: 0x1000026A8, symSize: 0x1C }
  - { offsetInCU: 0xBC82, offset: 0xBC82, size: 0x8, addend: 0x0, symName: __ZSt4moveIRPSt6vectorINSt7__cxx1112basic_stringIcSt11char_traitsIcESaIcEEESaIS6_EEEONSt16remove_referenceIT_E4typeEOSC_, symObjAddr: 0xAA8, symBinAddr: 0x1000026C4, symSize: 0x14 }
  - { offsetInCU: 0xBCA9, offset: 0xBCA9, size: 0x8, addend: 0x0, symName: __ZNSt15__uniq_ptr_implISt6vectorINSt7__cxx1112basic_stringIcSt11char_traitsIcESaIcEEESaIS6_EESt14default_deleteIS8_EE6_M_ptrEv, symObjAddr: 0xA70, symBinAddr: 0x10000268C, symSize: 0x1C }
  - { offsetInCU: 0xBCB1, offset: 0xBCB1, size: 0x8, addend: 0x0, symName: __ZNSt10unique_ptrISt6vectorINSt7__cxx1112basic_stringIcSt11char_traitsIcESaIcEEESaIS6_EESt14default_deleteIS8_EE11get_deleterEv, symObjAddr: 0xA8C, symBinAddr: 0x1000026A8, symSize: 0x1C }
  - { offsetInCU: 0xBD6E, offset: 0xBD6E, size: 0x8, addend: 0x0, symName: __ZNSt11_Tuple_implILm0EJPSt6vectorINSt7__cxx1112basic_stringIcSt11char_traitsIcESaIcEEESaIS6_EESt14default_deleteIS8_EEEC2Ev, symObjAddr: 0xA48, symBinAddr: 0x100002664, symSize: 0x28 }
  - { offsetInCU: 0xBD76, offset: 0xBD76, size: 0x8, addend: 0x0, symName: __ZNSt15__uniq_ptr_implISt6vectorINSt7__cxx1112basic_stringIcSt11char_traitsIcESaIcEEESaIS6_EESt14default_deleteIS8_EE6_M_ptrEv, symObjAddr: 0xA70, symBinAddr: 0x10000268C, symSize: 0x1C }
  - { offsetInCU: 0xBD1F, offset: 0xBD1F, size: 0x8, addend: 0x0, symName: __ZNSt7__cxx1112basic_stringIcSt11char_traitsIcESaIcEE12_M_constructIPKcEEvT_S8_St20forward_iterator_tag, symObjAddr: 0x948, symBinAddr: 0x100002564, symSize: 0x100 }
  - { offsetInCU: 0xBD27, offset: 0xBD27, size: 0x8, addend: 0x0, symName: __ZNSt11_Tuple_implILm0EJPSt6vectorINSt7__cxx1112basic_stringIcSt11char_traitsIcESaIcEEESaIS6_EESt14default_deleteIS8_EEEC2Ev, symObjAddr: 0xA48, symBinAddr: 0x100002664, symSize: 0x28 }
  - { offsetInCU: 0xBDFD, offset: 0xBDFD, size: 0x8, addend: 0x0, symName: __ZSt8distanceIPKcENSt15iterator_traitsIT_E15difference_typeES3_S3_, symObjAddr: 0x90C, symBinAddr: 0x100002528, symSize: 0x3C }
  - { offsetInCU: 0xBE05, offset: 0xBE05, size: 0x8, addend: 0x0, symName: __ZNSt7__cxx1112basic_stringIcSt11char_traitsIcESaIcEE12_M_constructIPKcEEvT_S8_St20forward_iterator_tag, symObjAddr: 0x948, symBinAddr: 0x100002564, symSize: 0x100 }
  - { offsetInCU: 0xBE8E, offset: 0xBE8E, size: 0x8, addend: 0x0, symName: __ZSt4moveIRNSt7__cxx1112basic_stringIcSt11char_traitsIcESaIcEEEEONSt16remove_referenceIT_E4typeEOS8_, symObjAddr: 0x8F8, symBinAddr: 0x100002514, symSize: 0x14 }
  - { offsetInCU: 0xBE96, offset: 0xBE96, size: 0x8, addend: 0x0, symName: __ZSt8distanceIPKcENSt15iterator_traitsIT_E15difference_typeES3_S3_, symObjAddr: 0x90C, symBinAddr: 0x100002528, symSize: 0x3C }
  - { offsetInCU: 0xBE9B, offset: 0xBE9B, size: 0x8, addend: 0x0, symName: __ZSt4moveIR6ThesisEONSt16remove_referenceIT_E4typeEOS3_, symObjAddr: 0x8E4, symBinAddr: 0x100002500, symSize: 0x14 }
  - { offsetInCU: 0xBEA3, offset: 0xBEA3, size: 0x8, addend: 0x0, symName: __ZSt4moveIRNSt7__cxx1112basic_stringIcSt11char_traitsIcESaIcEEEEONSt16remove_referenceIT_E4typeEOS8_, symObjAddr: 0x8F8, symBinAddr: 0x100002514, symSize: 0x14 }
  - { offsetInCU: 0xBF55, offset: 0xBF55, size: 0x8, addend: 0x0, symName: __ZNSt15__uniq_ptr_implISt6vectorINSt7__cxx1112basic_stringIcSt11char_traitsIcESaIcEEESaIS6_EESt14default_deleteIS8_EEC2EOSB_, symObjAddr: 0x89C, symBinAddr: 0x1000024B8, symSize: 0x48 }
  - { offsetInCU: 0xBF5D, offset: 0xBF5D, size: 0x8, addend: 0x0, symName: __ZSt4moveIR6ThesisEONSt16remove_referenceIT_E4typeEOS3_, symObjAddr: 0x8E4, symBinAddr: 0x100002500, symSize: 0x14 }
  - { offsetInCU: 0xBFA9, offset: 0xBFA9, size: 0x8, addend: 0x0, symName: __ZNSt5tupleIJPSt6vectorINSt7__cxx1112basic_stringIcSt11char_traitsIcESaIcEEESaIS6_EESt14default_deleteIS8_EEEC1EOSC_, symObjAddr: 0x874, symBinAddr: 0x100002490, symSize: 0x28 }
  - { offsetInCU: 0xBFB1, offset: 0xBFB1, size: 0x8, addend: 0x0, symName: __ZNSt15__uniq_ptr_implISt6vectorINSt7__cxx1112basic_stringIcSt11char_traitsIcESaIcEEESaIS6_EESt14default_deleteIS8_EEC2EOSB_, symObjAddr: 0x89C, symBinAddr: 0x1000024B8, symSize: 0x48 }
  - { offsetInCU: 0xC010, offset: 0xC010, size: 0x8, addend: 0x0, symName: __ZNSt11_Tuple_implILm0EJPSt6vectorINSt7__cxx1112basic_stringIcSt11char_traitsIcESaIcEEESaIS6_EESt14default_deleteIS8_EEEC2EOSC_, symObjAddr: 0x83C, symBinAddr: 0x100002458, symSize: 0x38 }
  - { offsetInCU: 0xC018, offset: 0xC018, size: 0x8, addend: 0x0, symName: __ZNSt5tupleIJPSt6vectorINSt7__cxx1112basic_stringIcSt11char_traitsIcESaIcEEESaIS6_EESt14default_deleteIS8_EEEC1EOSC_, symObjAddr: 0x874, symBinAddr: 0x100002490, symSize: 0x28 }
  - { offsetInCU: 0xC0B4, offset: 0xC0B4, size: 0x8, addend: 0x0, symName: __ZSt4moveIRSt10unique_ptrISt6vectorINSt7__cxx1112basic_stringIcSt11char_traitsIcESaIcEEESaIS7_EESt14default_deleteIS9_EEEONSt16remove_referenceIT_E4typeEOSF_, symObjAddr: 0x828, symBinAddr: 0x100002444, symSize: 0x14 }
  - { offsetInCU: 0xC0BC, offset: 0xC0BC, size: 0x8, addend: 0x0, symName: __ZNSt11_Tuple_implILm0EJPSt6vectorINSt7__cxx1112basic_stringIcSt11char_traitsIcESaIcEEESaIS6_EESt14default_deleteIS8_EEEC2EOSC_, symObjAddr: 0x83C, symBinAddr: 0x100002458, symSize: 0x38 }
  - { offsetInCU: 0xC01E, offset: 0xC01E, size: 0x8, addend: 0x0, symName: __ZNSt6vectorINSt7__cxx1112basic_stringIcSt11char_traitsIcESaIcEEESaIS5_EE9push_backEOS5_, symObjAddr: 0x7F8, symBinAddr: 0x100002414, symSize: 0x30 }
  - { offsetInCU: 0xC026, offset: 0xC026, size: 0x8, addend: 0x0, symName: __ZSt4moveIRSt10unique_ptrISt6vectorINSt7__cxx1112basic_stringIcSt11char_traitsIcESaIcEEESaIS7_EESt14default_deleteIS9_EEEONSt16remove_referenceIT_E4typeEOSF_, symObjAddr: 0x828, symBinAddr: 0x100002444, symSize: 0x14 }
  - { offsetInCU: 0xC061, offset: 0xC061, size: 0x8, addend: 0x0, symName: __ZNKSt10unique_ptrISt6vectorINSt7__cxx1112basic_stringIcSt11char_traitsIcESaIcEEESaIS6_EESt14default_deleteIS8_EEptEv, symObjAddr: 0x7DC, symBinAddr: 0x1000023F8, symSize: 0x1C }
  - { offsetInCU: 0xC069, offset: 0xC069, size: 0x8, addend: 0x0, symName: __ZNSt6vectorINSt7__cxx1112basic_stringIcSt11char_traitsIcESaIcEEESaIS5_EE9push_backEOS5_, symObjAddr: 0x7F8, symBinAddr: 0x100002414, symSize: 0x30 }
  - { offsetInCU: 0xC157, offset: 0xC157, size: 0x8, addend: 0x0, symName: __ZSt11make_uniqueISt6vectorINSt7__cxx1112basic_stringIcSt11char_traitsIcESaIcEEESaIS6_EEJEENSt9_MakeUniqIT_E15__single_objectEDpOT0_, symObjAddr: 0x794, symBinAddr: 0x1000023B0, symSize: 0x48 }
  - { offsetInCU: 0xC15F, offset: 0xC15F, size: 0x8, addend: 0x0, symName: __ZNKSt10unique_ptrISt6vectorINSt7__cxx1112basic_stringIcSt11char_traitsIcESaIcEEESaIS6_EESt14default_deleteIS8_EEptEv, symObjAddr: 0x7DC, symBinAddr: 0x1000023F8, symSize: 0x1C }
  - { offsetInCU: 0xC139, offset: 0xC139, size: 0x8, addend: 0x0, symName: __ZNSt6vectorINSt7__cxx1112basic_stringIcSt11char_traitsIcESaIcEEESaIS5_EEC1Ev, symObjAddr: 0x774, symBinAddr: 0x100002390, symSize: 0x20 }
  - { offsetInCU: 0xC141, offset: 0xC141, size: 0x8, addend: 0x0, symName: __ZSt11make_uniqueISt6vectorINSt7__cxx1112basic_stringIcSt11char_traitsIcESaIcEEESaIS6_EEJEENSt9_MakeUniqIT_E15__single_objectEDpOT0_, symObjAddr: 0x794, symBinAddr: 0x1000023B0, symSize: 0x48 }
  - { offsetInCU: 0xC187, offset: 0xC187, size: 0x8, addend: 0x0, symName: __ZNSt12_Vector_baseINSt7__cxx1112basic_stringIcSt11char_traitsIcESaIcEEESaIS5_EEC2Ev, symObjAddr: 0x754, symBinAddr: 0x100002370, symSize: 0x20 }
  - { offsetInCU: 0xC18F, offset: 0xC18F, size: 0x8, addend: 0x0, symName: __ZNSt6vectorINSt7__cxx1112basic_stringIcSt11char_traitsIcESaIcEEESaIS5_EEC1Ev, symObjAddr: 0x774, symBinAddr: 0x100002390, symSize: 0x20 }
  - { offsetInCU: 0xC1ED, offset: 0xC1ED, size: 0x8, addend: 0x0, symName: __ZNSt12_Vector_baseINSt7__cxx1112basic_stringIcSt11char_traitsIcESaIcEEESaIS5_EE12_Vector_implD1Ev, symObjAddr: 0x734, symBinAddr: 0x100002350, symSize: 0x20 }
  - { offsetInCU: 0xC1F5, offset: 0xC1F5, size: 0x8, addend: 0x0, symName: __ZNSt12_Vector_baseINSt7__cxx1112basic_stringIcSt11char_traitsIcESaIcEEESaIS5_EEC2Ev, symObjAddr: 0x754, symBinAddr: 0x100002370, symSize: 0x20 }
  - { offsetInCU: 0xC267, offset: 0xC267, size: 0x8, addend: 0x0, symName: __ZNSt10unique_ptrISt6vectorINSt7__cxx1112basic_stringIcSt11char_traitsIcESaIcEEESaIS6_EESt14default_deleteIS8_EED1Ev, symObjAddr: 0x6CC, symBinAddr: 0x1000022E8, symSize: 0x68 }
  - { offsetInCU: 0xC26F, offset: 0xC26F, size: 0x8, addend: 0x0, symName: __ZNSt12_Vector_baseINSt7__cxx1112basic_stringIcSt11char_traitsIcESaIcEEESaIS5_EE12_Vector_implD1Ev, symObjAddr: 0x734, symBinAddr: 0x100002350, symSize: 0x20 }
  - { offsetInCU: 0xC2FD, offset: 0xC2FD, size: 0x8, addend: 0x0, symName: __ZNSt5tupleIJPSt6vectorINSt7__cxx1112basic_stringIcSt11char_traitsIcESaIcEEESaIS6_EESt14default_deleteIS8_EEEC1ILb1ELb1EEEv, symObjAddr: 0x6AC, symBinAddr: 0x1000022C8, symSize: 0x20 }
  - { offsetInCU: 0xC305, offset: 0xC305, size: 0x8, addend: 0x0, symName: __ZNSt10unique_ptrISt6vectorINSt7__cxx1112basic_stringIcSt11char_traitsIcESaIcEEESaIS6_EESt14default_deleteIS8_EED1Ev, symObjAddr: 0x6CC, symBinAddr: 0x1000022E8, symSize: 0x68 }
  - { offsetInCU: 0xC352, offset: 0xC352, size: 0x8, addend: 0x0, symName: __ZNSt7__cxx1112basic_stringIcSt11char_traitsIcESaIcEEC1IS3_EEPKcRKS3_, symObjAddr: 0x614, symBinAddr: 0x100002230, symSize: 0x98 }
  - { offsetInCU: 0xC35A, offset: 0xC35A, size: 0x8, addend: 0x0, symName: __ZNSt5tupleIJPSt6vectorINSt7__cxx1112basic_stringIcSt11char_traitsIcESaIcEEESaIS6_EESt14default_deleteIS8_EEEC1ILb1ELb1EEEv, symObjAddr: 0x6AC, symBinAddr: 0x1000022C8, symSize: 0x20 }
  - { offsetInCU: 0xC3BC, offset: 0xC3BC, size: 0x8, addend: 0x0, symName: __ZSt3maxImERKT_S2_S2_, symObjAddr: 0x5DC, symBinAddr: 0x1000021F8, symSize: 0x38 }
  - { offsetInCU: 0xC3C4, offset: 0xC3C4, size: 0x8, addend: 0x0, symName: __ZNSt7__cxx1112basic_stringIcSt11char_traitsIcESaIcEEC1IS3_EEPKcRKS3_, symObjAddr: 0x614, symBinAddr: 0x100002230, symSize: 0x98 }
  - { offsetInCU: 0xC45A, offset: 0xC45A, size: 0x8, addend: 0x0, symName: __ZNSt7__cxx1112basic_stringIcSt11char_traitsIcESaIcEE12_Alloc_hiderD1Ev, symObjAddr: 0x5BC, symBinAddr: 0x1000021D8, symSize: 0x20 }
  - { offsetInCU: 0xC462, offset: 0xC462, size: 0x8, addend: 0x0, symName: __ZSt3maxImERKT_S2_S2_, symObjAddr: 0x5DC, symBinAddr: 0x1000021F8, symSize: 0x38 }
  - { offsetInCU: 0xC440, offset: 0xC440, size: 0x8, addend: 0x0, symName: __ZN9__gnu_cxx11char_traitsIcE6lengthEPKc, symObjAddr: 0x564, symBinAddr: 0x100002180, symSize: 0x58 }
  - { offsetInCU: 0xC448, offset: 0xC448, size: 0x8, addend: 0x0, symName: __ZNSt7__cxx1112basic_stringIcSt11char_traitsIcESaIcEE12_Alloc_hiderD1Ev, symObjAddr: 0x5BC, symBinAddr: 0x1000021D8, symSize: 0x20 }
  - { offsetInCU: 0xC484, offset: 0xC484, size: 0x8, addend: 0x0, symName: __ZN9__gnu_cxx11char_traitsIcE2eqERKcS3_, symObjAddr: 0x534, symBinAddr: 0x100002150, symSize: 0x30 }
  - { offsetInCU: 0xC48C, offset: 0xC48C, size: 0x8, addend: 0x0, symName: __ZN9__gnu_cxx11char_traitsIcE6lengthEPKc, symObjAddr: 0x564, symBinAddr: 0x100002180, symSize: 0x58 }
  - { offsetInCU: 0xC4D2, offset: 0xC4D2, size: 0x8, addend: 0x0, symName: _main, symObjAddr: 0x170, symBinAddr: 0x100001D8C, symSize: 0x3C4 }
  - { offsetInCU: 0xC4DA, offset: 0xC4DA, size: 0x8, addend: 0x0, symName: __ZN9__gnu_cxx11char_traitsIcE2eqERKcS3_, symObjAddr: 0x534, symBinAddr: 0x100002150, symSize: 0x30 }
  - { offsetInCU: 0xC5EC, offset: 0xC5EC, size: 0x8, addend: 0x0, symName: __ZNSt10unique_ptrISt6vectorINSt7__cxx1112basic_stringIcSt11char_traitsIcESaIcEEESaIS6_EESt14default_deleteIS8_EEC1EOSB_, symObjAddr: 0x148, symBinAddr: 0x100001D64, symSize: 0x28 }
  - { offsetInCU: 0xC5F4, offset: 0xC5F4, size: 0x8, addend: 0x0, symName: _main, symObjAddr: 0x170, symBinAddr: 0x100001D8C, symSize: 0x3C4 }
  - { offsetInCU: 0xC655, offset: 0xC655, size: 0x8, addend: 0x0, symName: __ZNSt15__uniq_ptr_dataISt6vectorINSt7__cxx1112basic_stringIcSt11char_traitsIcESaIcEEESaIS6_EESt14default_deleteIS8_ELb1ELb1EEC1EOSB_, symObjAddr: 0x120, symBinAddr: 0x100001D3C, symSize: 0x28 }
  - { offsetInCU: 0xC65D, offset: 0xC65D, size: 0x8, addend: 0x0, symName: __ZNSt10unique_ptrISt6vectorINSt7__cxx1112basic_stringIcSt11char_traitsIcESaIcEEESaIS6_EESt14default_deleteIS8_EEC1EOSB_, symObjAddr: 0x148, symBinAddr: 0x100001D64, symSize: 0x28 }
  - { offsetInCU: 0xC640, offset: 0xC640, size: 0x8, addend: 0x0, symName: __ZN6ThesisD1Ev, symObjAddr: 0xD4, symBinAddr: 0x100001CF0, symSize: 0x4C }
  - { offsetInCU: 0xC648, offset: 0xC648, size: 0x8, addend: 0x0, symName: __ZNSt15__uniq_ptr_dataISt6vectorINSt7__cxx1112basic_stringIcSt11char_traitsIcESaIcEEESaIS6_EESt14default_deleteIS8_ELb1ELb1EEC1EOSB_, symObjAddr: 0x120, symBinAddr: 0x100001D3C, symSize: 0x28 }
  - { offsetInCU: 0xC69F, offset: 0xC69F, size: 0x8, addend: 0x0, symName: __ZN15LiteratureEntryD2Ev, symObjAddr: 0x90, symBinAddr: 0x100001CAC, symSize: 0x44 }
  - { offsetInCU: 0xC6A7, offset: 0xC6A7, size: 0x8, addend: 0x0, symName: __ZN6ThesisD1Ev, symObjAddr: 0xD4, symBinAddr: 0x100001CF0, symSize: 0x4C }
  - { offsetInCU: 0xC6E5, offset: 0xC6E5, size: 0x8, addend: 0x0, symName: __ZSt3minImERKT_S2_S2_, symObjAddr: 0x58, symBinAddr: 0x100001C74, symSize: 0x38 }
  - { offsetInCU: 0xC6ED, offset: 0xC6ED, size: 0x8, addend: 0x0, symName: __ZN15LiteratureEntryD2Ev, symObjAddr: 0x90, symBinAddr: 0x100001CAC, symSize: 0x44 }
  - { offsetInCU: 0xC711, offset: 0xC711, size: 0x8, addend: 0x0, symName: __ZNSt11char_traitsIcE6lengthEPKc, symObjAddr: 0x18, symBinAddr: 0x100001C34, symSize: 0x40 }
  - { offsetInCU: 0xC719, offset: 0xC719, size: 0x8, addend: 0x0, symName: __ZSt3minImERKT_S2_S2_, symObjAddr: 0x58, symBinAddr: 0x100001C74, symSize: 0x38 }
  - { offsetInCU: 0xC7B0, offset: 0xC7B0, size: 0x8, addend: 0x0, symName: __ZnwmPv, symObjAddr: 0x0, symBinAddr: 0x100001C1C, symSize: 0x18 }
  - { offsetInCU: 0xC7B8, offset: 0xC7B8, size: 0x8, addend: 0x0, symName: __ZNSt11char_traitsIcE6lengthEPKc, symObjAddr: 0x18, symBinAddr: 0x100001C34, symSize: 0x40 }
  - { offsetInCU: 0xE5, offset: 0xC8D6, size: 0x8, addend: 0x0, symName: __ZN9__gnu_cxxL21__default_lock_policyE, symObjAddr: 0x3500, symBinAddr: 0x100008390, symSize: 0x0 }
  - { offsetInCU: 0x5453, offset: 0x11C44, size: 0x8, addend: 0x0, symName: __ZStL8__ioinit, symObjAddr: 0x410E0, symBinAddr: 0x100010331, symSize: 0x0 }
  - { offsetInCU: 0x5501, offset: 0x11CF2, size: 0x8, addend: 0x0, symName: __ZN9__gnu_cxxL21__default_lock_policyE, symObjAddr: 0x3500, symBinAddr: 0x100008390, symSize: 0x0 }
  - { offsetInCU: 0x5569, offset: 0x11D5A, size: 0x8, addend: 0x0, symName: __ZN6__pstl9execution2v1L3seqE, symObjAddr: 0x3504, symBinAddr: 0x100008394, symSize: 0x0 }
  - { offsetInCU: 0x5583, offset: 0x11D74, size: 0x8, addend: 0x0, symName: __ZN6__pstl9execution2v1L3parE, symObjAddr: 0x3505, symBinAddr: 0x100008395, symSize: 0x0 }
  - { offsetInCU: 0x55A3, offset: 0x11D94, size: 0x8, addend: 0x0, symName: __ZN6__pstl9execution2v1L9par_unseqE, symObjAddr: 0x3506, symBinAddr: 0x100008396, symSize: 0x0 }
  - { offsetInCU: 0x55B9, offset: 0x11DAA, size: 0x8, addend: 0x0, symName: __ZN6__pstl9execution2v1L5unseqE, symObjAddr: 0x3507, symBinAddr: 0x100008397, symSize: 0x0 }
  - { offsetInCU: 0x8636, offset: 0x14E27, size: 0x8, addend: 0x0, symName: __GLOBAL__sub_I_LiteratureEntry.cpp, symObjAddr: 0x34E4, symBinAddr: 0x10000598C, symSize: 0x1C }
  - { offsetInCU: 0x863E, offset: 0x14E2F, size: 0x8, addend: 0x0, symName: __ZN9__gnu_cxxL21__default_lock_policyE, symObjAddr: 0x3500, symBinAddr: 0x100008390, symSize: 0x0 }
  - { offsetInCU: 0x8657, offset: 0x14E48, size: 0x8, addend: 0x0, symName: __Z41__static_initialization_and_destruction_0ii, symObjAddr: 0x3484, symBinAddr: 0x10000592C, symSize: 0x60 }
  - { offsetInCU: 0x865F, offset: 0x14E50, size: 0x8, addend: 0x0, symName: __GLOBAL__sub_I_LiteratureEntry.cpp, symObjAddr: 0x34E4, symBinAddr: 0x10000598C, symSize: 0x1C }
  - { offsetInCU: 0x8670, offset: 0x14E61, size: 0x8, addend: 0x0, symName: __ZNSt11__copy_moveILb1ELb0ESt26random_access_iterator_tagE8__copy_mIPNSt7__cxx1112basic_stringIcSt11char_traitsIcESaIcEEES9_EET0_T_SB_SA_, symObjAddr: 0x3370, symBinAddr: 0x1000058B0, symSize: 0x7C }
  - { offsetInCU: 0x87DB, offset: 0x14FCC, size: 0x8, addend: 0x0, symName: __ZSt14__copy_move_a2ILb1EPNSt7__cxx1112basic_stringIcSt11char_traitsIcESaIcEEES6_ET1_T0_S8_S7_, symObjAddr: 0x32DC, symBinAddr: 0x100005884, symSize: 0x2C }
  - { offsetInCU: 0x88DD, offset: 0x150CE, size: 0x8, addend: 0x0, symName: __ZSt12__niter_wrapIN9__gnu_cxx17__normal_iteratorIPNSt7__cxx1112basic_stringIcSt11char_traitsIcESaIcEEESt6vectorIS7_SaIS7_EEEES8_ET_SD_T0_, symObjAddr: 0x31B0, symBinAddr: 0x100005848, symSize: 0x3C }
  - { offsetInCU: 0x88D7, offset: 0x150C8, size: 0x8, addend: 0x0, symName: __ZSt14__copy_move_a1ILb1EPNSt7__cxx1112basic_stringIcSt11char_traitsIcESaIcEEES6_ET1_T0_S8_S7_, symObjAddr: 0x3184, symBinAddr: 0x10000581C, symSize: 0x2C }
  - { offsetInCU: 0x88DF, offset: 0x150D0, size: 0x8, addend: 0x0, symName: __ZSt12__niter_wrapIN9__gnu_cxx17__normal_iteratorIPNSt7__cxx1112basic_stringIcSt11char_traitsIcESaIcEEESt6vectorIS7_SaIS7_EEEES8_ET_SD_T0_, symObjAddr: 0x31B0, symBinAddr: 0x100005848, symSize: 0x3C }
  - { offsetInCU: 0x8995, offset: 0x15186, size: 0x8, addend: 0x0, symName: __ZSt12__niter_baseIPNSt7__cxx1112basic_stringIcSt11char_traitsIcESaIcEEESt6vectorIS5_SaIS5_EEET_N9__gnu_cxx17__normal_iteratorISA_T0_EE, symObjAddr: 0x3164, symBinAddr: 0x1000057FC, symSize: 0x20 }
  - { offsetInCU: 0x899D, offset: 0x1518E, size: 0x8, addend: 0x0, symName: __ZSt14__copy_move_a1ILb1EPNSt7__cxx1112basic_stringIcSt11char_traitsIcESaIcEEES6_ET1_T0_S8_S7_, symObjAddr: 0x3184, symBinAddr: 0x10000581C, symSize: 0x2C }
  - { offsetInCU: 0x89DD, offset: 0x151CE, size: 0x8, addend: 0x0, symName: __ZSt10_ConstructINSt7__cxx1112basic_stringIcSt11char_traitsIcESaIcEEEJRKS5_EEvPT_DpOT0_, symObjAddr: 0x2F98, symBinAddr: 0x10000578C, symSize: 0x70 }
  - { offsetInCU: 0x8962, offset: 0x15153, size: 0x8, addend: 0x0, symName: __ZNK9__gnu_cxx17__normal_iteratorIPKNSt7__cxx1112basic_stringIcSt11char_traitsIcESaIcEEESt6vectorIS6_SaIS6_EEEdeEv, symObjAddr: 0x2F80, symBinAddr: 0x100005774, symSize: 0x18 }
  - { offsetInCU: 0x896A, offset: 0x1515B, size: 0x8, addend: 0x0, symName: __ZSt10_ConstructINSt7__cxx1112basic_stringIcSt11char_traitsIcESaIcEEEJRKS5_EEvPT_DpOT0_, symObjAddr: 0x2F98, symBinAddr: 0x10000578C, symSize: 0x70 }
  - { offsetInCU: 0x8A0E, offset: 0x151FF, size: 0x8, addend: 0x0, symName: __ZN9__gnu_cxx13new_allocatorINSt7__cxx1112basic_stringIcSt11char_traitsIcESaIcEEEEC2ERKS7_, symObjAddr: 0x2F38, symBinAddr: 0x10000575C, symSize: 0x18 }
  - { offsetInCU: 0x8B7F, offset: 0x15370, size: 0x8, addend: 0x0, symName: __ZSt13__copy_move_aILb1EN9__gnu_cxx17__normal_iteratorIPNSt7__cxx1112basic_stringIcSt11char_traitsIcESaIcEEESt6vectorIS7_SaIS7_EEEESC_ET1_T0_SE_SD_, symObjAddr: 0x2EA0, symBinAddr: 0x1000056FC, symSize: 0x60 }
  - { offsetInCU: 0x8B86, offset: 0x15377, size: 0x8, addend: 0x0, symName: __ZSt12__miter_baseIN9__gnu_cxx17__normal_iteratorIPNSt7__cxx1112basic_stringIcSt11char_traitsIcESaIcEEESt6vectorIS7_SaIS7_EEEEET_SD_, symObjAddr: 0x2E8C, symBinAddr: 0x1000056E8, symSize: 0x14 }
  - { offsetInCU: 0x8B8E, offset: 0x1537F, size: 0x8, addend: 0x0, symName: __ZSt13__copy_move_aILb1EN9__gnu_cxx17__normal_iteratorIPNSt7__cxx1112basic_stringIcSt11char_traitsIcESaIcEEESt6vectorIS7_SaIS7_EEEESC_ET1_T0_SE_SD_, symObjAddr: 0x2EA0, symBinAddr: 0x1000056FC, symSize: 0x60 }
  - { offsetInCU: 0x8AD1, offset: 0x152C2, size: 0x8, addend: 0x0, symName: __ZSt9__find_ifIN9__gnu_cxx17__normal_iteratorIPNSt7__cxx1112basic_stringIcSt11char_traitsIcESaIcEEESt6vectorIS7_SaIS7_EEEENS0_5__ops10_Iter_predIZN15LiteratureEntry11remove_nameERKS7_EUlSH_E_EEET_SK_SK_T0_St26random_access_iterator_tag, symObjAddr: 0x2CF0, symBinAddr: 0x10000554C, symSize: 0x19C }
  - { offsetInCU: 0x8AD9, offset: 0x152CA, size: 0x8, addend: 0x0, symName: __ZSt12__miter_baseIN9__gnu_cxx17__normal_iteratorIPNSt7__cxx1112basic_stringIcSt11char_traitsIcESaIcEEESt6vectorIS7_SaIS7_EEEEET_SD_, symObjAddr: 0x2E8C, symBinAddr: 0x1000056E8, symSize: 0x14 }
  - { offsetInCU: 0x8CA8, offset: 0x15499, size: 0x8, addend: 0x0, symName: __ZSt19__iterator_categoryIN9__gnu_cxx17__normal_iteratorIPNSt7__cxx1112basic_stringIcSt11char_traitsIcESaIcEEESt6vectorIS7_SaIS7_EEEEENSt15iterator_traitsIT_E17iterator_categoryERKSE_, symObjAddr: 0x2CDC, symBinAddr: 0x100005538, symSize: 0x14 }
  - { offsetInCU: 0x8CB0, offset: 0x154A1, size: 0x8, addend: 0x0, symName: __ZSt9__find_ifIN9__gnu_cxx17__normal_iteratorIPNSt7__cxx1112basic_stringIcSt11char_traitsIcESaIcEEESt6vectorIS7_SaIS7_EEEENS0_5__ops10_Iter_predIZN15LiteratureEntry11remove_nameERKS7_EUlSH_E_EEET_SK_SK_T0_St26random_access_iterator_tag, symObjAddr: 0x2CF0, symBinAddr: 0x10000554C, symSize: 0x19C }
  - { offsetInCU: 0x8BB2, offset: 0x153A3, size: 0x8, addend: 0x0, symName: __ZN9__gnu_cxx17__normal_iteratorIPKNSt7__cxx1112basic_stringIcSt11char_traitsIcESaIcEEESt6vectorIS6_SaIS6_EEEppEv, symObjAddr: 0x2C10, symBinAddr: 0x100005510, symSize: 0x28 }
  - { offsetInCU: 0x8BE1, offset: 0x153D2, size: 0x8, addend: 0x0, symName: __ZN9__gnu_cxx5__ops16_Iter_equals_valIKNSt7__cxx1112basic_stringIcSt11char_traitsIcESaIcEEEEclINS_17__normal_iteratorIPS8_St6vectorIS7_SaIS7_EEEEEEbT_, symObjAddr: 0x2BD4, symBinAddr: 0x1000054D4, symSize: 0x3C }
  - { offsetInCU: 0x8BE9, offset: 0x153DA, size: 0x8, addend: 0x0, symName: __ZN9__gnu_cxx17__normal_iteratorIPKNSt7__cxx1112basic_stringIcSt11char_traitsIcESaIcEEESt6vectorIS6_SaIS6_EEEppEv, symObjAddr: 0x2C10, symBinAddr: 0x100005510, symSize: 0x28 }
  - { offsetInCU: 0x8C31, offset: 0x15422, size: 0x8, addend: 0x0, symName: __ZNSt20__uninitialized_copyILb0EE13__uninit_copyIN9__gnu_cxx17__normal_iteratorIPKNSt7__cxx1112basic_stringIcSt11char_traitsIcESaIcEEESt6vectorIS9_SaIS9_EEEEPS9_EET0_T_SI_SH_, symObjAddr: 0x2AC4, symBinAddr: 0x10000542C, symSize: 0xA8 }
  - { offsetInCU: 0x8D22, offset: 0x15513, size: 0x8, addend: 0x0, symName: __ZNSaINSt7__cxx1112basic_stringIcSt11char_traitsIcESaIcEEEEC1ERKS5_, symObjAddr: 0x2A40, symBinAddr: 0x100005404, symSize: 0x28 }
  - { offsetInCU: 0x8D5C, offset: 0x1554D, size: 0x8, addend: 0x0, symName: __ZNSaINSt7__cxx1112basic_stringIcSt11char_traitsIcESaIcEEEEC2ERKS5_, symObjAddr: 0x2A18, symBinAddr: 0x1000053DC, symSize: 0x28 }
  - { offsetInCU: 0x8D64, offset: 0x15555, size: 0x8, addend: 0x0, symName: __ZNSaINSt7__cxx1112basic_stringIcSt11char_traitsIcESaIcEEEEC1ERKS5_, symObjAddr: 0x2A40, symBinAddr: 0x100005404, symSize: 0x28 }
  - { offsetInCU: 0x8D52, offset: 0x15543, size: 0x8, addend: 0x0, symName: __ZNSt6vectorINSt7__cxx1112basic_stringIcSt11char_traitsIcESaIcEEESaIS5_EE15_M_erase_at_endEPS5_, symObjAddr: 0x2958, symBinAddr: 0x100005368, symSize: 0x74 }
  - { offsetInCU: 0x8F30, offset: 0x15721, size: 0x8, addend: 0x0, symName: __ZSt4moveIN9__gnu_cxx17__normal_iteratorIPNSt7__cxx1112basic_stringIcSt11char_traitsIcESaIcEEESt6vectorIS7_SaIS7_EEEESC_ET0_T_SE_SD_, symObjAddr: 0x2910, symBinAddr: 0x100005320, symSize: 0x48 }
  - { offsetInCU: 0x8F38, offset: 0x15729, size: 0x8, addend: 0x0, symName: __ZNSt6vectorINSt7__cxx1112basic_stringIcSt11char_traitsIcESaIcEEESaIS5_EE15_M_erase_at_endEPS5_, symObjAddr: 0x2958, symBinAddr: 0x100005368, symSize: 0x74 }
  - { offsetInCU: 0x8E3D, offset: 0x1562E, size: 0x8, addend: 0x0, symName: __ZN9__gnu_cxx5__ops10_Iter_predIZN15LiteratureEntry11remove_nameERKNSt7__cxx1112basic_stringIcSt11char_traitsIcESaIcEEEEUlSA_E_EclINS_17__normal_iteratorIPS8_St6vectorIS8_SaIS8_EEEEEEbT_, symObjAddr: 0x28D4, symBinAddr: 0x1000052E4, symSize: 0x3C }
  - { offsetInCU: 0x8E45, offset: 0x15636, size: 0x8, addend: 0x0, symName: __ZSt4moveIN9__gnu_cxx17__normal_iteratorIPNSt7__cxx1112basic_stringIcSt11char_traitsIcESaIcEEESt6vectorIS7_SaIS7_EEEESC_ET0_T_SE_SD_, symObjAddr: 0x2910, symBinAddr: 0x100005320, symSize: 0x48 }
  - { offsetInCU: 0x8F72, offset: 0x15763, size: 0x8, addend: 0x0, symName: __ZN9__gnu_cxxeqIPNSt7__cxx1112basic_stringIcSt11char_traitsIcESaIcEEESt6vectorIS6_SaIS6_EEEEbRKNS_17__normal_iteratorIT_T0_EESG_, symObjAddr: 0x2890, symBinAddr: 0x1000052A0, symSize: 0x44 }
  - { offsetInCU: 0x8F7A, offset: 0x1576B, size: 0x8, addend: 0x0, symName: __ZN9__gnu_cxx5__ops10_Iter_predIZN15LiteratureEntry11remove_nameERKNSt7__cxx1112basic_stringIcSt11char_traitsIcESaIcEEEEUlSA_E_EclINS_17__normal_iteratorIPS8_St6vectorIS8_SaIS8_EEEEEEbT_, symObjAddr: 0x28D4, symBinAddr: 0x1000052E4, symSize: 0x3C }
  - { offsetInCU: 0x8F03, offset: 0x156F4, size: 0x8, addend: 0x0, symName: __ZSt9__find_ifIN9__gnu_cxx17__normal_iteratorIPNSt7__cxx1112basic_stringIcSt11char_traitsIcESaIcEEESt6vectorIS7_SaIS7_EEEENS0_5__ops10_Iter_predIZN15LiteratureEntry11remove_nameERKS7_EUlSH_E_EEET_SK_SK_T0_, symObjAddr: 0x2850, symBinAddr: 0x100005260, symSize: 0x40 }
  - { offsetInCU: 0x8F0B, offset: 0x156FC, size: 0x8, addend: 0x0, symName: __ZN9__gnu_cxxeqIPNSt7__cxx1112basic_stringIcSt11char_traitsIcESaIcEEESt6vectorIS6_SaIS6_EEEEbRKNS_17__normal_iteratorIT_T0_EESG_, symObjAddr: 0x2890, symBinAddr: 0x1000052A0, symSize: 0x44 }
  - { offsetInCU: 0x8FA2, offset: 0x15793, size: 0x8, addend: 0x0, symName: __ZN9__gnu_cxx5__ops10_Iter_predIZN15LiteratureEntry11remove_nameERKNSt7__cxx1112basic_stringIcSt11char_traitsIcESaIcEEEEUlSA_E_EC1ESB_, symObjAddr: 0x281C, symBinAddr: 0x10000522C, symSize: 0x34 }
  - { offsetInCU: 0x8FAA, offset: 0x1579B, size: 0x8, addend: 0x0, symName: __ZSt9__find_ifIN9__gnu_cxx17__normal_iteratorIPNSt7__cxx1112basic_stringIcSt11char_traitsIcESaIcEEESt6vectorIS7_SaIS7_EEEENS0_5__ops10_Iter_predIZN15LiteratureEntry11remove_nameERKS7_EUlSH_E_EEET_SK_SK_T0_, symObjAddr: 0x2850, symBinAddr: 0x100005260, symSize: 0x40 }
  - { offsetInCU: 0x9028, offset: 0x15819, size: 0x8, addend: 0x0, symName: __ZSt4moveIRZN15LiteratureEntry11remove_nameERKNSt7__cxx1112basic_stringIcSt11char_traitsIcESaIcEEEEUlS8_E_EONSt16remove_referenceIT_E4typeEOSC_, symObjAddr: 0x2808, symBinAddr: 0x100005218, symSize: 0x14 }
  - { offsetInCU: 0x9030, offset: 0x15821, size: 0x8, addend: 0x0, symName: __ZN9__gnu_cxx5__ops10_Iter_predIZN15LiteratureEntry11remove_nameERKNSt7__cxx1112basic_stringIcSt11char_traitsIcESaIcEEEEUlSA_E_EC1ESB_, symObjAddr: 0x281C, symBinAddr: 0x10000522C, symSize: 0x34 }
  - { offsetInCU: 0x9032, offset: 0x15823, size: 0x8, addend: 0x0, symName: __ZN9__gnu_cxx13new_allocatorINSt7__cxx1112basic_stringIcSt11char_traitsIcESaIcEEEE9constructIS6_JRKS6_EEEvPT_DpOT0_, symObjAddr: 0x25F4, symBinAddr: 0x1000051A4, symSize: 0x74 }
  - { offsetInCU: 0x913F, offset: 0x15930, size: 0x8, addend: 0x0, symName: __ZSt7forwardIRKNSt7__cxx1112basic_stringIcSt11char_traitsIcESaIcEEEEOT_RNSt16remove_referenceIS8_E4typeE, symObjAddr: 0x25E0, symBinAddr: 0x100005190, symSize: 0x14 }
  - { offsetInCU: 0x9147, offset: 0x15938, size: 0x8, addend: 0x0, symName: __ZN9__gnu_cxx13new_allocatorINSt7__cxx1112basic_stringIcSt11char_traitsIcESaIcEEEE9constructIS6_JRKS6_EEEvPT_DpOT0_, symObjAddr: 0x25F4, symBinAddr: 0x1000051A4, symSize: 0x74 }
  - { offsetInCU: 0x91C6, offset: 0x159B7, size: 0x8, addend: 0x0, symName: __ZSt9__find_ifIN9__gnu_cxx17__normal_iteratorIPKNSt7__cxx1112basic_stringIcSt11char_traitsIcESaIcEEESt6vectorIS7_SaIS7_EEEENS0_5__ops16_Iter_equals_valIS8_EEET_SH_SH_T0_St26random_access_iterator_tag, symObjAddr: 0x2444, symBinAddr: 0x100004FF4, symSize: 0x19C }
  - { offsetInCU: 0x91CE, offset: 0x159BF, size: 0x8, addend: 0x0, symName: __ZSt7forwardIRKNSt7__cxx1112basic_stringIcSt11char_traitsIcESaIcEEEEOT_RNSt16remove_referenceIS8_E4typeE, symObjAddr: 0x25E0, symBinAddr: 0x100005190, symSize: 0x14 }
  - { offsetInCU: 0x92E0, offset: 0x15AD1, size: 0x8, addend: 0x0, symName: __ZSt19__iterator_categoryIN9__gnu_cxx17__normal_iteratorIPKNSt7__cxx1112basic_stringIcSt11char_traitsIcESaIcEEESt6vectorIS7_SaIS7_EEEEENSt15iterator_traitsIT_E17iterator_categoryERKSF_, symObjAddr: 0x2430, symBinAddr: 0x100004FE0, symSize: 0x14 }
  - { offsetInCU: 0x92E8, offset: 0x15AD9, size: 0x8, addend: 0x0, symName: __ZSt9__find_ifIN9__gnu_cxx17__normal_iteratorIPKNSt7__cxx1112basic_stringIcSt11char_traitsIcESaIcEEESt6vectorIS7_SaIS7_EEEENS0_5__ops16_Iter_equals_valIS8_EEET_SH_SH_T0_St26random_access_iterator_tag, symObjAddr: 0x2444, symBinAddr: 0x100004FF4, symSize: 0x19C }
  - { offsetInCU: 0x9271, offset: 0x15A62, size: 0x8, addend: 0x0, symName: __ZN9__gnu_cxx5__ops16_Iter_equals_valIKNSt7__cxx1112basic_stringIcSt11char_traitsIcESaIcEEEEC1ERS8_, symObjAddr: 0x240C, symBinAddr: 0x100004FBC, symSize: 0x24 }
  - { offsetInCU: 0x9279, offset: 0x15A6A, size: 0x8, addend: 0x0, symName: __ZSt19__iterator_categoryIN9__gnu_cxx17__normal_iteratorIPKNSt7__cxx1112basic_stringIcSt11char_traitsIcESaIcEEESt6vectorIS7_SaIS7_EEEEENSt15iterator_traitsIT_E17iterator_categoryERKSF_, symObjAddr: 0x2430, symBinAddr: 0x100004FE0, symSize: 0x14 }
  - { offsetInCU: 0x938F, offset: 0x15B80, size: 0x8, addend: 0x0, symName: __ZSt18uninitialized_copyIN9__gnu_cxx17__normal_iteratorIPKNSt7__cxx1112basic_stringIcSt11char_traitsIcESaIcEEESt6vectorIS7_SaIS7_EEEEPS7_ET0_T_SG_SF_, symObjAddr: 0x2394, symBinAddr: 0x100004F88, symSize: 0x34 }
  - { offsetInCU: 0x92D7, offset: 0x15AC8, size: 0x8, addend: 0x0, symName: __ZNSt12_Vector_baseINSt7__cxx1112basic_stringIcSt11char_traitsIcESaIcEEESaIS5_EE17_M_create_storageEm, symObjAddr: 0x22F8, symBinAddr: 0x100004F28, symSize: 0x60 }
  - { offsetInCU: 0x93AA, offset: 0x15B9B, size: 0x8, addend: 0x0, symName: __ZNSt12_Vector_baseINSt7__cxx1112basic_stringIcSt11char_traitsIcESaIcEEESaIS5_EE12_Vector_implC1ERKS6_, symObjAddr: 0x22C8, symBinAddr: 0x100004EF8, symSize: 0x30 }
  - { offsetInCU: 0x93B2, offset: 0x15BA3, size: 0x8, addend: 0x0, symName: __ZNSt12_Vector_baseINSt7__cxx1112basic_stringIcSt11char_traitsIcESaIcEEESaIS5_EE17_M_create_storageEm, symObjAddr: 0x22F8, symBinAddr: 0x100004F28, symSize: 0x60 }
  - { offsetInCU: 0x937D, offset: 0x15B6E, size: 0x8, addend: 0x0, symName: __ZNSt16allocator_traitsISaINSt7__cxx1112basic_stringIcSt11char_traitsIcESaIcEEEEE37select_on_container_copy_constructionERKS6_, symObjAddr: 0x2284, symBinAddr: 0x100004EC8, symSize: 0x30 }
  - { offsetInCU: 0x93AF, offset: 0x15BA0, size: 0x8, addend: 0x0, symName: __ZNSt6vectorINSt7__cxx1112basic_stringIcSt11char_traitsIcESaIcEEESaIS5_EE8_M_eraseEN9__gnu_cxx17__normal_iteratorIPS5_S7_EESB_, symObjAddr: 0x20C8, symBinAddr: 0x100004E14, symSize: 0xB4 }
  - { offsetInCU: 0x9404, offset: 0x15BF5, size: 0x8, addend: 0x0, symName: __ZNK9__gnu_cxx17__normal_iteratorIPNSt7__cxx1112basic_stringIcSt11char_traitsIcESaIcEEESt6vectorIS6_SaIS6_EEEplEl, symObjAddr: 0x2088, symBinAddr: 0x100004DD4, symSize: 0x40 }
  - { offsetInCU: 0x940C, offset: 0x15BFD, size: 0x8, addend: 0x0, symName: __ZNSt6vectorINSt7__cxx1112basic_stringIcSt11char_traitsIcESaIcEEESaIS5_EE8_M_eraseEN9__gnu_cxx17__normal_iteratorIPS5_S7_EESB_, symObjAddr: 0x20C8, symBinAddr: 0x100004E14, symSize: 0xB4 }
  - { offsetInCU: 0x9545, offset: 0x15D36, size: 0x8, addend: 0x0, symName: __ZN9__gnu_cxxmiIPKNSt7__cxx1112basic_stringIcSt11char_traitsIcESaIcEEESt6vectorIS6_SaIS6_EEEENS_17__normal_iteratorIT_T0_E15difference_typeERKSF_SI_, symObjAddr: 0x2048, symBinAddr: 0x100004D94, symSize: 0x40 }
  - { offsetInCU: 0x954D, offset: 0x15D3E, size: 0x8, addend: 0x0, symName: __ZNK9__gnu_cxx17__normal_iteratorIPNSt7__cxx1112basic_stringIcSt11char_traitsIcESaIcEEESt6vectorIS6_SaIS6_EEEplEl, symObjAddr: 0x2088, symBinAddr: 0x100004DD4, symSize: 0x40 }
  - { offsetInCU: 0x94B4, offset: 0x15CA5, size: 0x8, addend: 0x0, symName: __ZNKSt6vectorINSt7__cxx1112basic_stringIcSt11char_traitsIcESaIcEEESaIS5_EE6cbeginEv, symObjAddr: 0x2024, symBinAddr: 0x100004D70, symSize: 0x24 }
  - { offsetInCU: 0x94BC, offset: 0x15CAD, size: 0x8, addend: 0x0, symName: __ZN9__gnu_cxxmiIPKNSt7__cxx1112basic_stringIcSt11char_traitsIcESaIcEEESt6vectorIS6_SaIS6_EEEENS_17__normal_iteratorIT_T0_E15difference_typeERKSF_SI_, symObjAddr: 0x2048, symBinAddr: 0x100004D94, symSize: 0x40 }
  - { offsetInCU: 0x95CB, offset: 0x15DBC, size: 0x8, addend: 0x0, symName: __ZSt11__remove_ifIN9__gnu_cxx17__normal_iteratorIPNSt7__cxx1112basic_stringIcSt11char_traitsIcESaIcEEESt6vectorIS7_SaIS7_EEEENS0_5__ops10_Iter_predIZN15LiteratureEntry11remove_nameERKS7_EUlSH_E_EEET_SK_SK_T0_, symObjAddr: 0x1F38, symBinAddr: 0x100004C98, symSize: 0xD8 }
  - { offsetInCU: 0x95CB, offset: 0x15DBC, size: 0x8, addend: 0x0, symName: __ZN9__gnu_cxx5__ops11__pred_iterIZN15LiteratureEntry11remove_nameERKNSt7__cxx1112basic_stringIcSt11char_traitsIcESaIcEEEEUlSA_E_EENS0_10_Iter_predIT_EESD_, symObjAddr: 0x1F08, symBinAddr: 0x100004C68, symSize: 0x30 }
  - { offsetInCU: 0x95D3, offset: 0x15DC4, size: 0x8, addend: 0x0, symName: __ZSt11__remove_ifIN9__gnu_cxx17__normal_iteratorIPNSt7__cxx1112basic_stringIcSt11char_traitsIcESaIcEEESt6vectorIS7_SaIS7_EEEENS0_5__ops10_Iter_predIZN15LiteratureEntry11remove_nameERKS7_EUlSH_E_EEET_SK_SK_T0_, symObjAddr: 0x1F38, symBinAddr: 0x100004C98, symSize: 0xD8 }
  - { offsetInCU: 0x95BC, offset: 0x15DAD, size: 0x8, addend: 0x0, symName: __ZNSt6vectorINSt7__cxx1112basic_stringIcSt11char_traitsIcESaIcEEESaIS5_EE17_M_realloc_insertIJRKS5_EEEvN9__gnu_cxx17__normal_iteratorIPS5_S7_EEDpOT_, symObjAddr: 0x1CF8, symBinAddr: 0x100004A80, symSize: 0x1E8 }
  - { offsetInCU: 0x969B, offset: 0x15E8C, size: 0x8, addend: 0x0, symName: __ZNSt16allocator_traitsISaINSt7__cxx1112basic_stringIcSt11char_traitsIcESaIcEEEEE9constructIS5_JRKS5_EEEvRS6_PT_DpOT0_, symObjAddr: 0x1CC0, symBinAddr: 0x100004A48, symSize: 0x38 }
  - { offsetInCU: 0x96A3, offset: 0x15E94, size: 0x8, addend: 0x0, symName: __ZNSt6vectorINSt7__cxx1112basic_stringIcSt11char_traitsIcESaIcEEESaIS5_EE17_M_realloc_insertIJRKS5_EEEvN9__gnu_cxx17__normal_iteratorIPS5_S7_EEDpOT_, symObjAddr: 0x1CF8, symBinAddr: 0x100004A80, symSize: 0x1E8 }
  - { offsetInCU: 0x970F, offset: 0x15F00, size: 0x8, addend: 0x0, symName: __ZNK9__gnu_cxx17__normal_iteratorIPKNSt7__cxx1112basic_stringIcSt11char_traitsIcESaIcEEESt6vectorIS6_SaIS6_EEE4baseEv, symObjAddr: 0x1CAC, symBinAddr: 0x100004A34, symSize: 0x14 }
  - { offsetInCU: 0x9717, offset: 0x15F08, size: 0x8, addend: 0x0, symName: __ZNSt16allocator_traitsISaINSt7__cxx1112basic_stringIcSt11char_traitsIcESaIcEEEEE9constructIS5_JRKS5_EEEvRS6_PT_DpOT0_, symObjAddr: 0x1CC0, symBinAddr: 0x100004A48, symSize: 0x38 }
  - { offsetInCU: 0x97F1, offset: 0x15FE2, size: 0x8, addend: 0x0, symName: __ZSt9__find_ifIN9__gnu_cxx17__normal_iteratorIPKNSt7__cxx1112basic_stringIcSt11char_traitsIcESaIcEEESt6vectorIS7_SaIS7_EEEENS0_5__ops16_Iter_equals_valIS8_EEET_SH_SH_T0_, symObjAddr: 0x1C6C, symBinAddr: 0x1000049F4, symSize: 0x40 }
  - { offsetInCU: 0x97F9, offset: 0x15FEA, size: 0x8, addend: 0x0, symName: __ZNK9__gnu_cxx17__normal_iteratorIPKNSt7__cxx1112basic_stringIcSt11char_traitsIcESaIcEEESt6vectorIS6_SaIS6_EEE4baseEv, symObjAddr: 0x1CAC, symBinAddr: 0x100004A34, symSize: 0x14 }
  - { offsetInCU: 0x987D, offset: 0x1606E, size: 0x8, addend: 0x0, symName: __ZN9__gnu_cxx5__ops17__iter_equals_valIKNSt7__cxx1112basic_stringIcSt11char_traitsIcESaIcEEEEENS0_16_Iter_equals_valIT_EERSA_, symObjAddr: 0x1C48, symBinAddr: 0x1000049D0, symSize: 0x24 }
  - { offsetInCU: 0x9885, offset: 0x16076, size: 0x8, addend: 0x0, symName: __ZSt9__find_ifIN9__gnu_cxx17__normal_iteratorIPKNSt7__cxx1112basic_stringIcSt11char_traitsIcESaIcEEESt6vectorIS7_SaIS7_EEEENS0_5__ops16_Iter_equals_valIS8_EEET_SH_SH_T0_, symObjAddr: 0x1C6C, symBinAddr: 0x1000049F4, symSize: 0x40 }
  - { offsetInCU: 0x98AB, offset: 0x1609C, size: 0x8, addend: 0x0, symName: __ZN9__gnu_cxx17__normal_iteratorIPKNSt7__cxx1112basic_stringIcSt11char_traitsIcESaIcEEESt6vectorIS6_SaIS6_EEEC1ERKS8_, symObjAddr: 0x1C20, symBinAddr: 0x1000049A8, symSize: 0x28 }
  - { offsetInCU: 0x98B3, offset: 0x160A4, size: 0x8, addend: 0x0, symName: __ZN9__gnu_cxx5__ops17__iter_equals_valIKNSt7__cxx1112basic_stringIcSt11char_traitsIcESaIcEEEEENS0_16_Iter_equals_valIT_EERSA_, symObjAddr: 0x1C48, symBinAddr: 0x1000049D0, symSize: 0x24 }
  - { offsetInCU: 0x99EE, offset: 0x161DF, size: 0x8, addend: 0x0, symName: __ZSt22__uninitialized_copy_aIN9__gnu_cxx17__normal_iteratorIPKNSt7__cxx1112basic_stringIcSt11char_traitsIcESaIcEEESt6vectorIS7_SaIS7_EEEEPS7_S7_ET0_T_SG_SF_RSaIT1_E, symObjAddr: 0x1BA4, symBinAddr: 0x100004978, symSize: 0x30 }
  - { offsetInCU: 0x999E, offset: 0x1618F, size: 0x8, addend: 0x0, symName: __ZNSt12_Vector_baseINSt7__cxx1112basic_stringIcSt11char_traitsIcESaIcEEESaIS5_EEC2EmRKS6_, symObjAddr: 0x1AEC, symBinAddr: 0x100004924, symSize: 0x54 }
  - { offsetInCU: 0x99F1, offset: 0x161E2, size: 0x8, addend: 0x0, symName: __ZNSaINSt7__cxx1112basic_stringIcSt11char_traitsIcESaIcEEEED1Ev, symObjAddr: 0x1AAC, symBinAddr: 0x100004904, symSize: 0x20 }
  - { offsetInCU: 0x99DF, offset: 0x161D0, size: 0x8, addend: 0x0, symName: __ZN9__gnu_cxx14__alloc_traitsISaINSt7__cxx1112basic_stringIcSt11char_traitsIcESaIcEEEES6_E17_S_select_on_copyERKS7_, symObjAddr: 0x1A48, symBinAddr: 0x1000048D4, symSize: 0x30 }
  - { offsetInCU: 0x9AF0, offset: 0x162E1, size: 0x8, addend: 0x0, symName: __ZSt7forwardISt14default_deleteISt6vectorINSt7__cxx1112basic_stringIcSt11char_traitsIcESaIcEEESaIS7_EEEEOT_RNSt16remove_referenceISB_E4typeE, symObjAddr: 0x1A0C, symBinAddr: 0x1000048C0, symSize: 0x14 }
  - { offsetInCU: 0x9A6E, offset: 0x1625F, size: 0x8, addend: 0x0, symName: __ZNSt15__uniq_ptr_implISt6vectorINSt7__cxx1112basic_stringIcSt11char_traitsIcESaIcEEESaIS6_EESt14default_deleteIS8_EE7releaseEv, symObjAddr: 0x19BC, symBinAddr: 0x10000488C, symSize: 0x34 }
  - { offsetInCU: 0x9AB0, offset: 0x162A1, size: 0x8, addend: 0x0, symName: __ZNSt15__uniq_ptr_implISt6vectorINSt7__cxx1112basic_stringIcSt11char_traitsIcESaIcEEESaIS6_EESt14default_deleteIS8_EE5resetEPS8_, symObjAddr: 0x195C, symBinAddr: 0x10000482C, symSize: 0x60 }
  - { offsetInCU: 0x9AB8, offset: 0x162A9, size: 0x8, addend: 0x0, symName: __ZNSt15__uniq_ptr_implISt6vectorINSt7__cxx1112basic_stringIcSt11char_traitsIcESaIcEEESaIS6_EESt14default_deleteIS8_EE7releaseEv, symObjAddr: 0x19BC, symBinAddr: 0x10000488C, symSize: 0x34 }
  - { offsetInCU: 0x9B05, offset: 0x162F6, size: 0x8, addend: 0x0, symName: __ZNSt10unique_ptrISt6vectorINSt7__cxx1112basic_stringIcSt11char_traitsIcESaIcEEESaIS6_EESt14default_deleteIS8_EE5resetEPS8_, symObjAddr: 0x191C, symBinAddr: 0x1000047EC, symSize: 0x40 }
  - { offsetInCU: 0x9B0D, offset: 0x162FE, size: 0x8, addend: 0x0, symName: __ZNSt15__uniq_ptr_implISt6vectorINSt7__cxx1112basic_stringIcSt11char_traitsIcESaIcEEESaIS6_EESt14default_deleteIS8_EE5resetEPS8_, symObjAddr: 0x195C, symBinAddr: 0x10000482C, symSize: 0x60 }
  - { offsetInCU: 0x9BFF, offset: 0x163F0, size: 0x8, addend: 0x0, symName: __ZSt7forwardIRSt6vectorINSt7__cxx1112basic_stringIcSt11char_traitsIcESaIcEEESaIS6_EEEOT_RNSt16remove_referenceISA_E4typeE, symObjAddr: 0x18B8, symBinAddr: 0x1000047D8, symSize: 0x14 }
  - { offsetInCU: 0x9B9C, offset: 0x1638D, size: 0x8, addend: 0x0, symName: __ZN9__gnu_cxx17__normal_iteratorIPNSt7__cxx1112basic_stringIcSt11char_traitsIcESaIcEEESt6vectorIS6_SaIS6_EEEppEv, symObjAddr: 0x1658, symBinAddr: 0x1000047B0, symSize: 0x28 }
  - { offsetInCU: 0x9CB0, offset: 0x164A1, size: 0x8, addend: 0x0, symName: __ZN9__gnu_cxxneIPNSt7__cxx1112basic_stringIcSt11char_traitsIcESaIcEEESt6vectorIS6_SaIS6_EEEEbRKNS_17__normal_iteratorIT_T0_EESG_, symObjAddr: 0x1614, symBinAddr: 0x10000476C, symSize: 0x44 }
  - { offsetInCU: 0x9CB8, offset: 0x164A9, size: 0x8, addend: 0x0, symName: __ZN9__gnu_cxx17__normal_iteratorIPNSt7__cxx1112basic_stringIcSt11char_traitsIcESaIcEEESt6vectorIS6_SaIS6_EEEppEv, symObjAddr: 0x1658, symBinAddr: 0x1000047B0, symSize: 0x28 }
  - { offsetInCU: 0x9C38, offset: 0x16429, size: 0x8, addend: 0x0, symName: __ZNSt6vectorINSt7__cxx1112basic_stringIcSt11char_traitsIcESaIcEEESaIS5_EE5eraseEN9__gnu_cxx17__normal_iteratorIPKS5_S7_EESC_, symObjAddr: 0x1594, symBinAddr: 0x1000046EC, symSize: 0x80 }
  - { offsetInCU: 0x9C40, offset: 0x16431, size: 0x8, addend: 0x0, symName: __ZN9__gnu_cxxneIPNSt7__cxx1112basic_stringIcSt11char_traitsIcESaIcEEESt6vectorIS6_SaIS6_EEEEbRKNS_17__normal_iteratorIT_T0_EESG_, symObjAddr: 0x1614, symBinAddr: 0x10000476C, symSize: 0x44 }
  - { offsetInCU: 0x9DAF, offset: 0x165A0, size: 0x8, addend: 0x0, symName: __ZN9__gnu_cxx17__normal_iteratorIPKNSt7__cxx1112basic_stringIcSt11char_traitsIcESaIcEEESt6vectorIS6_SaIS6_EEEC1IPS6_EERKNS0_IT_NS_11__enable_ifIXsrSt10__are_sameISF_SE_E7__valueESB_E6__typeEEE, symObjAddr: 0x1564, symBinAddr: 0x1000046BC, symSize: 0x30 }
  - { offsetInCU: 0x9DB7, offset: 0x165A8, size: 0x8, addend: 0x0, symName: __ZNSt6vectorINSt7__cxx1112basic_stringIcSt11char_traitsIcESaIcEEESaIS5_EE5eraseEN9__gnu_cxx17__normal_iteratorIPKS5_S7_EESC_, symObjAddr: 0x1594, symBinAddr: 0x1000046EC, symSize: 0x80 }
  - { offsetInCU: 0x9DFC, offset: 0x165ED, size: 0x8, addend: 0x0, symName: __ZSt9remove_ifIN9__gnu_cxx17__normal_iteratorIPNSt7__cxx1112basic_stringIcSt11char_traitsIcESaIcEEESt6vectorIS7_SaIS7_EEEEZN15LiteratureEntry11remove_nameERKS7_EUlSF_E_ET_SH_SH_T0_, symObjAddr: 0x1530, symBinAddr: 0x100004688, symSize: 0x34 }
  - { offsetInCU: 0x9E04, offset: 0x165F5, size: 0x8, addend: 0x0, symName: __ZN9__gnu_cxx17__normal_iteratorIPKNSt7__cxx1112basic_stringIcSt11char_traitsIcESaIcEEESt6vectorIS6_SaIS6_EEEC1IPS6_EERKNS0_IT_NS_11__enable_ifIXsrSt10__are_sameISF_SE_E7__valueESB_E6__typeEEE, symObjAddr: 0x1564, symBinAddr: 0x1000046BC, symSize: 0x30 }
  - { offsetInCU: 0x9E50, offset: 0x16641, size: 0x8, addend: 0x0, symName: __ZSteqIcEN9__gnu_cxx11__enable_ifIXsrSt9__is_charIT_E7__valueEbE6__typeERKNSt7__cxx1112basic_stringIS3_St11char_traitsIS3_ESaIS3_EEESE_, symObjAddr: 0x14B0, symBinAddr: 0x100004608, symSize: 0x80 }
  - { offsetInCU: 0x9E58, offset: 0x16649, size: 0x8, addend: 0x0, symName: __ZSt9remove_ifIN9__gnu_cxx17__normal_iteratorIPNSt7__cxx1112basic_stringIcSt11char_traitsIcESaIcEEESt6vectorIS7_SaIS7_EEEEZN15LiteratureEntry11remove_nameERKS7_EUlSF_E_ET_SH_SH_T0_, symObjAddr: 0x1530, symBinAddr: 0x100004688, symSize: 0x34 }
  - { offsetInCU: 0x9E12, offset: 0x16603, size: 0x8, addend: 0x0, symName: __ZNSt6vectorINSt7__cxx1112basic_stringIcSt11char_traitsIcESaIcEEESaIS5_EE9push_backERKS5_, symObjAddr: 0x13E4, symBinAddr: 0x100004588, symSize: 0x80 }
  - { offsetInCU: 0x9F41, offset: 0x16732, size: 0x8, addend: 0x0, symName: __ZN9__gnu_cxxneIPKNSt7__cxx1112basic_stringIcSt11char_traitsIcESaIcEEESt6vectorIS6_SaIS6_EEEEbRKNS_17__normal_iteratorIT_T0_EESH_, symObjAddr: 0x1384, symBinAddr: 0x100004544, symSize: 0x44 }
  - { offsetInCU: 0x9FEF, offset: 0x167E0, size: 0x8, addend: 0x0, symName: __ZSt4findIN9__gnu_cxx17__normal_iteratorIPKNSt7__cxx1112basic_stringIcSt11char_traitsIcESaIcEEESt6vectorIS7_SaIS7_EEEES7_ET_SE_SE_RKT0_, symObjAddr: 0x1350, symBinAddr: 0x100004510, symSize: 0x34 }
  - { offsetInCU: 0x9FF7, offset: 0x167E8, size: 0x8, addend: 0x0, symName: __ZN9__gnu_cxxneIPKNSt7__cxx1112basic_stringIcSt11char_traitsIcESaIcEEESt6vectorIS6_SaIS6_EEEEbRKNS_17__normal_iteratorIT_T0_EESH_, symObjAddr: 0x1384, symBinAddr: 0x100004544, symSize: 0x44 }
  - { offsetInCU: 0x9F43, offset: 0x16734, size: 0x8, addend: 0x0, symName: __ZNKSt6vectorINSt7__cxx1112basic_stringIcSt11char_traitsIcESaIcEEESaIS5_EE3endEv, symObjAddr: 0x1328, symBinAddr: 0x1000044E8, symSize: 0x28 }
  - { offsetInCU: 0x9F4B, offset: 0x1673C, size: 0x8, addend: 0x0, symName: __ZSt4findIN9__gnu_cxx17__normal_iteratorIPKNSt7__cxx1112basic_stringIcSt11char_traitsIcESaIcEEESt6vectorIS7_SaIS7_EEEES7_ET_SE_SE_RKT0_, symObjAddr: 0x1350, symBinAddr: 0x100004510, symSize: 0x34 }
  - { offsetInCU: 0x9F72, offset: 0x16763, size: 0x8, addend: 0x0, symName: __ZNKSt6vectorINSt7__cxx1112basic_stringIcSt11char_traitsIcESaIcEEESaIS5_EE5beginEv, symObjAddr: 0x1304, symBinAddr: 0x1000044C4, symSize: 0x24 }
  - { offsetInCU: 0x9F7A, offset: 0x1676B, size: 0x8, addend: 0x0, symName: __ZNKSt6vectorINSt7__cxx1112basic_stringIcSt11char_traitsIcESaIcEEESaIS5_EE3endEv, symObjAddr: 0x1328, symBinAddr: 0x1000044E8, symSize: 0x28 }
  - { offsetInCU: 0x9FA1, offset: 0x16792, size: 0x8, addend: 0x0, symName: __ZNKSt10unique_ptrISt6vectorINSt7__cxx1112basic_stringIcSt11char_traitsIcESaIcEEESaIS6_EESt14default_deleteIS8_EEcvbEv, symObjAddr: 0x12C0, symBinAddr: 0x10000449C, symSize: 0x28 }
  - { offsetInCU: 0xA04C, offset: 0x1683D, size: 0x8, addend: 0x0, symName: __ZNSt6vectorINSt7__cxx1112basic_stringIcSt11char_traitsIcESaIcEEESaIS5_EEC1ERKS7_, symObjAddr: 0x118C, symBinAddr: 0x1000043B8, symSize: 0xE4 }
  - { offsetInCU: 0xA034, offset: 0x16825, size: 0x8, addend: 0x0, symName: __ZNSt15__uniq_ptr_implISt6vectorINSt7__cxx1112basic_stringIcSt11char_traitsIcESaIcEEESaIS6_EESt14default_deleteIS8_EEaSEOSB_, symObjAddr: 0x1134, symBinAddr: 0x100004374, symSize: 0x44 }
  - { offsetInCU: 0xA076, offset: 0x16867, size: 0x8, addend: 0x0, symName: __ZNSt10unique_ptrISt6vectorINSt7__cxx1112basic_stringIcSt11char_traitsIcESaIcEEESaIS6_EESt14default_deleteIS8_EEaSEDn, symObjAddr: 0x110C, symBinAddr: 0x10000434C, symSize: 0x28 }
  - { offsetInCU: 0xA07E, offset: 0x1686F, size: 0x8, addend: 0x0, symName: __ZNSt15__uniq_ptr_implISt6vectorINSt7__cxx1112basic_stringIcSt11char_traitsIcESaIcEEESaIS6_EESt14default_deleteIS8_EEaSEOSB_, symObjAddr: 0x1134, symBinAddr: 0x100004374, symSize: 0x44 }
  - { offsetInCU: 0xA0F2, offset: 0x168E3, size: 0x8, addend: 0x0, symName: __ZSt4moveIRiEONSt16remove_referenceIT_E4typeEOS2_, symObjAddr: 0x10F8, symBinAddr: 0x100004338, symSize: 0x14 }
  - { offsetInCU: 0xA0FA, offset: 0x168EB, size: 0x8, addend: 0x0, symName: __ZNSt10unique_ptrISt6vectorINSt7__cxx1112basic_stringIcSt11char_traitsIcESaIcEEESaIS6_EESt14default_deleteIS8_EEaSEDn, symObjAddr: 0x110C, symBinAddr: 0x10000434C, symSize: 0x28 }
  - { offsetInCU: 0xA29B, offset: 0x16A8C, size: 0x8, addend: 0x0, symName: __ZSt11make_uniqueISt6vectorINSt7__cxx1112basic_stringIcSt11char_traitsIcESaIcEEESaIS6_EEJRS8_EENSt9_MakeUniqIT_E15__single_objectEDpOT0_, symObjAddr: 0x106C, symBinAddr: 0x1000042C0, symSize: 0x78 }
  - { offsetInCU: 0xA168, offset: 0x16959, size: 0x8, addend: 0x0, symName: __ZNKSt10unique_ptrISt6vectorINSt7__cxx1112basic_stringIcSt11char_traitsIcESaIcEEESaIS6_EESt14default_deleteIS8_EEdeEv, symObjAddr: 0x1048, symBinAddr: 0x10000429C, symSize: 0x24 }
  - { offsetInCU: 0xA170, offset: 0x16961, size: 0x8, addend: 0x0, symName: __ZSt11make_uniqueISt6vectorINSt7__cxx1112basic_stringIcSt11char_traitsIcESaIcEEESaIS6_EEJRS8_EENSt9_MakeUniqIT_E15__single_objectEDpOT0_, symObjAddr: 0x106C, symBinAddr: 0x1000042C0, symSize: 0x78 }
  - { offsetInCU: 0xA206, offset: 0x169F7, size: 0x8, addend: 0x0, symName: __Z17check_nonnegativeIiET_S0_RKNSt7__cxx1112basic_stringIcSt11char_traitsIcESaIcEEE, symObjAddr: 0xF9C, symBinAddr: 0x1000041F0, symSize: 0xAC }
  - { offsetInCU: 0xA20E, offset: 0x169FF, size: 0x8, addend: 0x0, symName: __ZNKSt10unique_ptrISt6vectorINSt7__cxx1112basic_stringIcSt11char_traitsIcESaIcEEESaIS6_EESt14default_deleteIS8_EEdeEv, symObjAddr: 0x1048, symBinAddr: 0x10000429C, symSize: 0x24 }
  - { offsetInCU: 0xA287, offset: 0x16A78, size: 0x8, addend: 0x0, symName: __ZStplIcSt11char_traitsIcESaIcEENSt7__cxx1112basic_stringIT_T0_T1_EERKS8_PKS5_, symObjAddr: 0xD30, symBinAddr: 0x100004198, symSize: 0x58 }
  - { offsetInCU: 0xA282, offset: 0x16A73, size: 0x8, addend: 0x0, symName: __ZNK15LiteratureEntry10print_dataEv, symObjAddr: 0xB38, symBinAddr: 0x100004048, symSize: 0x150 }
  - { offsetInCU: 0xA30D, offset: 0x16AFE, size: 0x8, addend: 0x0, symName: __ZN15LiteratureEntry8set_yearEi, symObjAddr: 0xAA0, symBinAddr: 0x100003FB0, symSize: 0x98 }
  - { offsetInCU: 0xA315, offset: 0x16B06, size: 0x8, addend: 0x0, symName: __ZNK15LiteratureEntry10print_dataEv, symObjAddr: 0xB38, symBinAddr: 0x100004048, symSize: 0x150 }
  - { offsetInCU: 0xA34F, offset: 0x16B40, size: 0x8, addend: 0x0, symName: __ZN15LiteratureEntry11remove_nameERKNSt7__cxx1112basic_stringIcSt11char_traitsIcESaIcEEE, symObjAddr: 0x9F4, symBinAddr: 0x100003F04, symSize: 0xAC }
  - { offsetInCU: 0xA357, offset: 0x16B48, size: 0x8, addend: 0x0, symName: __ZN15LiteratureEntry8set_yearEi, symObjAddr: 0xAA0, symBinAddr: 0x100003FB0, symSize: 0x98 }
  - { offsetInCU: 0xA40D, offset: 0x16BFE, size: 0x8, addend: 0x0, symName: __ZZN15LiteratureEntry11remove_nameERKNSt7__cxx1112basic_stringIcSt11char_traitsIcESaIcEEEENKUlS7_E_clES7_, symObjAddr: 0x9C4, symBinAddr: 0x100003ED4, symSize: 0x30 }
  - { offsetInCU: 0xA415, offset: 0x16C06, size: 0x8, addend: 0x0, symName: __ZN15LiteratureEntry11remove_nameERKNSt7__cxx1112basic_stringIcSt11char_traitsIcESaIcEEE, symObjAddr: 0x9F4, symBinAddr: 0x100003F04, symSize: 0xAC }
  - { offsetInCU: 0xA480, offset: 0x16C71, size: 0x8, addend: 0x0, symName: __ZN15LiteratureEntry8add_nameERKNSt7__cxx1112basic_stringIcSt11char_traitsIcESaIcEEE, symObjAddr: 0x994, symBinAddr: 0x100003EA4, symSize: 0x30 }
  - { offsetInCU: 0xA488, offset: 0x16C79, size: 0x8, addend: 0x0, symName: __ZZN15LiteratureEntry11remove_nameERKNSt7__cxx1112basic_stringIcSt11char_traitsIcESaIcEEEENKUlS7_E_clES7_, symObjAddr: 0x9C4, symBinAddr: 0x100003ED4, symSize: 0x30 }
  - { offsetInCU: 0xA4C2, offset: 0x16CB3, size: 0x8, addend: 0x0, symName: __ZNK15LiteratureEntry7is_nameERKNSt7__cxx1112basic_stringIcSt11char_traitsIcESaIcEEE, symObjAddr: 0x8F4, symBinAddr: 0x100003E04, symSize: 0xA0 }
  - { offsetInCU: 0xA4CA, offset: 0x16CBB, size: 0x8, addend: 0x0, symName: __ZN15LiteratureEntry8add_nameERKNSt7__cxx1112basic_stringIcSt11char_traitsIcESaIcEEE, symObjAddr: 0x994, symBinAddr: 0x100003EA4, symSize: 0x30 }
  - { offsetInCU: 0xA52A, offset: 0x16D1B, size: 0x8, addend: 0x0, symName: __ZNK15LiteratureEntry9get_namesB5cxx11Ev, symObjAddr: 0x8B8, symBinAddr: 0x100003DC8, symSize: 0x3C }
  - { offsetInCU: 0xA532, offset: 0x16D23, size: 0x8, addend: 0x0, symName: __ZNK15LiteratureEntry7is_nameERKNSt7__cxx1112basic_stringIcSt11char_traitsIcESaIcEEE, symObjAddr: 0x8F4, symBinAddr: 0x100003E04, symSize: 0xA0 }
  - { offsetInCU: 0xA559, offset: 0x16D4A, size: 0x8, addend: 0x0, symName: __ZN15LiteratureEntryaSEOS_, symObjAddr: 0x814, symBinAddr: 0x100003D24, symSize: 0xA4 }
  - { offsetInCU: 0xA561, offset: 0x16D52, size: 0x8, addend: 0x0, symName: __ZNK15LiteratureEntry9get_namesB5cxx11Ev, symObjAddr: 0x8B8, symBinAddr: 0x100003DC8, symSize: 0x3C }
  - { offsetInCU: 0xA59B, offset: 0x16D8C, size: 0x8, addend: 0x0, symName: __ZN15LiteratureEntryaSERKS_, symObjAddr: 0x77C, symBinAddr: 0x100003C8C, symSize: 0x98 }
  - { offsetInCU: 0xA5A3, offset: 0x16D94, size: 0x8, addend: 0x0, symName: __ZN15LiteratureEntryaSEOS_, symObjAddr: 0x814, symBinAddr: 0x100003D24, symSize: 0xA4 }
  - { offsetInCU: 0xA5DD, offset: 0x16DCE, size: 0x8, addend: 0x0, symName: __ZNSt10unique_ptrISt6vectorINSt7__cxx1112basic_stringIcSt11char_traitsIcESaIcEEESaIS6_EESt14default_deleteIS8_EEaSEOSB_, symObjAddr: 0x754, symBinAddr: 0x100003C64, symSize: 0x28 }
  - { offsetInCU: 0xA5E5, offset: 0x16DD6, size: 0x8, addend: 0x0, symName: __ZN15LiteratureEntryaSERKS_, symObjAddr: 0x77C, symBinAddr: 0x100003C8C, symSize: 0x98 }
  - { offsetInCU: 0xA618, offset: 0x16E09, size: 0x8, addend: 0x0, symName: __ZNSt15__uniq_ptr_dataISt6vectorINSt7__cxx1112basic_stringIcSt11char_traitsIcESaIcEEESaIS6_EESt14default_deleteIS8_ELb1ELb1EEaSEOSB_, symObjAddr: 0x72C, symBinAddr: 0x100003C3C, symSize: 0x28 }
  - { offsetInCU: 0xA620, offset: 0x16E11, size: 0x8, addend: 0x0, symName: __ZNSt10unique_ptrISt6vectorINSt7__cxx1112basic_stringIcSt11char_traitsIcESaIcEEESaIS6_EESt14default_deleteIS8_EEaSEOSB_, symObjAddr: 0x754, symBinAddr: 0x100003C64, symSize: 0x28 }
  - { offsetInCU: 0xA697, offset: 0x16E88, size: 0x8, addend: 0x0, symName: __ZN15LiteratureEntryC1EOS_, symObjAddr: 0x670, symBinAddr: 0x100003B80, symSize: 0xBC }
  - { offsetInCU: 0xA69F, offset: 0x16E90, size: 0x8, addend: 0x0, symName: __ZNSt15__uniq_ptr_dataISt6vectorINSt7__cxx1112basic_stringIcSt11char_traitsIcESaIcEEESaIS6_EESt14default_deleteIS8_ELb1ELb1EEaSEOSB_, symObjAddr: 0x72C, symBinAddr: 0x100003C3C, symSize: 0x28 }
  - { offsetInCU: 0xA6D1, offset: 0x16EC2, size: 0x8, addend: 0x0, symName: __ZN15LiteratureEntryC2EOS_, symObjAddr: 0x5B4, symBinAddr: 0x100003AC4, symSize: 0xBC }
  - { offsetInCU: 0xA6D9, offset: 0x16ECA, size: 0x8, addend: 0x0, symName: __ZN15LiteratureEntryC1EOS_, symObjAddr: 0x670, symBinAddr: 0x100003B80, symSize: 0xBC }
  - { offsetInCU: 0xA735, offset: 0x16F26, size: 0x8, addend: 0x0, symName: __ZN15LiteratureEntryC1ERKS_, symObjAddr: 0x518, symBinAddr: 0x100003A28, symSize: 0x9C }
  - { offsetInCU: 0xA73D, offset: 0x16F2E, size: 0x8, addend: 0x0, symName: __ZN15LiteratureEntryC2EOS_, symObjAddr: 0x5B4, symBinAddr: 0x100003AC4, symSize: 0xBC }
  - { offsetInCU: 0xA76F, offset: 0x16F60, size: 0x8, addend: 0x0, symName: __ZN15LiteratureEntryC2ERKS_, symObjAddr: 0x47C, symBinAddr: 0x10000398C, symSize: 0x9C }
  - { offsetInCU: 0xA777, offset: 0x16F68, size: 0x8, addend: 0x0, symName: __ZN15LiteratureEntryC1ERKS_, symObjAddr: 0x518, symBinAddr: 0x100003A28, symSize: 0x9C }
  - { offsetInCU: 0xA861, offset: 0x17052, size: 0x8, addend: 0x0, symName: __ZN15LiteratureEntryC1ERKNSt7__cxx1112basic_stringIcSt11char_traitsIcESaIcEEESt10unique_ptrISt6vectorIS5_SaIS5_EESt14default_deleteISB_EEi, symObjAddr: 0x380, symBinAddr: 0x100003890, symSize: 0xFC }
  - { offsetInCU: 0xA869, offset: 0x1705A, size: 0x8, addend: 0x0, symName: __ZN15LiteratureEntryC2ERKS_, symObjAddr: 0x47C, symBinAddr: 0x10000398C, symSize: 0x9C }
  - { offsetInCU: 0xA8B6, offset: 0x170A7, size: 0x8, addend: 0x0, symName: __ZN15LiteratureEntryC2ERKNSt7__cxx1112basic_stringIcSt11char_traitsIcESaIcEEESt10unique_ptrISt6vectorIS5_SaIS5_EESt14default_deleteISB_EEi, symObjAddr: 0x284, symBinAddr: 0x100003794, symSize: 0xFC }
  - { offsetInCU: 0xA8BE, offset: 0x170AF, size: 0x8, addend: 0x0, symName: __ZN15LiteratureEntryC1ERKNSt7__cxx1112basic_stringIcSt11char_traitsIcESaIcEEESt10unique_ptrISt6vectorIS5_SaIS5_EESt14default_deleteISB_EEi, symObjAddr: 0x380, symBinAddr: 0x100003890, symSize: 0xFC }
  - { offsetInCU: 0xA8C0, offset: 0x170B1, size: 0x8, addend: 0x0, symName: __ZN15LiteratureEntryD0Ev, symObjAddr: 0x20C, symBinAddr: 0x10000376C, symSize: 0x28 }
  - { offsetInCU: 0xA8EE, offset: 0x170DF, size: 0x8, addend: 0x0, symName: __ZN15LiteratureEntryD1Ev, symObjAddr: 0x1CC, symBinAddr: 0x10000372C, symSize: 0x40 }
  - { offsetInCU: 0xA8F6, offset: 0x170E7, size: 0x8, addend: 0x0, symName: __ZN15LiteratureEntryD0Ev, symObjAddr: 0x20C, symBinAddr: 0x10000376C, symSize: 0x28 }
  - { offsetInCU: 0xA903, offset: 0x170F4, size: 0x8, addend: 0x0, symName: __ZNSt11char_traitsIcE7compareEPKcS2_m, symObjAddr: 0x68, symBinAddr: 0x100003640, symSize: 0xEC }
  - { offsetInCU: 0xA984, offset: 0x17175, size: 0x8, addend: 0x0, symName: __ZNSt11char_traitsIcE2ltERKcS2_, symObjAddr: 0x30, symBinAddr: 0x100003608, symSize: 0x38 }
  - { offsetInCU: 0xA98C, offset: 0x1717D, size: 0x8, addend: 0x0, symName: __ZNSt11char_traitsIcE7compareEPKcS2_m, symObjAddr: 0x68, symBinAddr: 0x100003640, symSize: 0xEC }
  - { offsetInCU: 0xA9D8, offset: 0x171C9, size: 0x8, addend: 0x0, symName: __ZdlPvS_, symObjAddr: 0x18, symBinAddr: 0x1000035F0, symSize: 0x18 }
  - { offsetInCU: 0xA9E0, offset: 0x171D1, size: 0x8, addend: 0x0, symName: __ZNSt11char_traitsIcE2ltERKcS2_, symObjAddr: 0x30, symBinAddr: 0x100003608, symSize: 0x38 }
  - { offsetInCU: 0x5111, offset: 0x1C309, size: 0x8, addend: 0x0, symName: __ZStL8__ioinit, symObjAddr: 0x2E320, symBinAddr: 0x100010332, symSize: 0x0 }
  - { offsetInCU: 0x51BF, offset: 0x1C3B7, size: 0x8, addend: 0x0, symName: __ZN9__gnu_cxxL21__default_lock_policyE, symObjAddr: 0x13F0, symBinAddr: 0x1000083B0, symSize: 0x0 }
  - { offsetInCU: 0x5227, offset: 0x1C41F, size: 0x8, addend: 0x0, symName: __ZN6__pstl9execution2v1L3seqE, symObjAddr: 0x13F4, symBinAddr: 0x1000083B4, symSize: 0x0 }
  - { offsetInCU: 0x5241, offset: 0x1C439, size: 0x8, addend: 0x0, symName: __ZN6__pstl9execution2v1L3parE, symObjAddr: 0x13F5, symBinAddr: 0x1000083B5, symSize: 0x0 }
  - { offsetInCU: 0x5261, offset: 0x1C459, size: 0x8, addend: 0x0, symName: __ZN6__pstl9execution2v1L9par_unseqE, symObjAddr: 0x13F6, symBinAddr: 0x1000083B6, symSize: 0x0 }
  - { offsetInCU: 0x5277, offset: 0x1C46F, size: 0x8, addend: 0x0, symName: __ZN6__pstl9execution2v1L5unseqE, symObjAddr: 0x13F7, symBinAddr: 0x1000083B7, symSize: 0x0 }
  - { offsetInCU: 0x75CA, offset: 0x1E7C2, size: 0x8, addend: 0x0, symName: __GLOBAL__sub_I_Book.cpp, symObjAddr: 0x13D0, symBinAddr: 0x100006254, symSize: 0x1C }
  - { offsetInCU: 0x75F6, offset: 0x1E7EE, size: 0x8, addend: 0x0, symName: __Z41__static_initialization_and_destruction_0ii, symObjAddr: 0x1370, symBinAddr: 0x1000061F4, symSize: 0x60 }
  - { offsetInCU: 0x75FE, offset: 0x1E7F6, size: 0x8, addend: 0x0, symName: __GLOBAL__sub_I_Book.cpp, symObjAddr: 0x13D0, symBinAddr: 0x100006254, symSize: 0x1C }
  - { offsetInCU: 0x760F, offset: 0x1E807, size: 0x8, addend: 0x0, symName: __ZN9__gnu_cxx17__normal_iteratorIPNSt7__cxx1112basic_stringIcSt11char_traitsIcESaIcEEESt6vectorIS6_SaIS6_EEEpLEl, symObjAddr: 0x10FC, symBinAddr: 0x1000061C0, symSize: 0x34 }
  - { offsetInCU: 0x777A, offset: 0x1E972, size: 0x8, addend: 0x0, symName: __ZSt9__advanceIN9__gnu_cxx17__normal_iteratorIPNSt7__cxx1112basic_stringIcSt11char_traitsIcESaIcEEESt6vectorIS7_SaIS7_EEEElEvRT_T0_St26random_access_iterator_tag, symObjAddr: 0xFCC, symBinAddr: 0x100006194, symSize: 0x2C }
  - { offsetInCU: 0x77C6, offset: 0x1E9BE, size: 0x8, addend: 0x0, symName: __ZSt7advanceIN9__gnu_cxx17__normal_iteratorIPNSt7__cxx1112basic_stringIcSt11char_traitsIcESaIcEEESt6vectorIS7_SaIS7_EEEElEvRT_T0_, symObjAddr: 0xE74, symBinAddr: 0x100006150, symSize: 0x44 }
  - { offsetInCU: 0x7858, offset: 0x1EA50, size: 0x8, addend: 0x0, symName: __ZSt4nextIN9__gnu_cxx17__normal_iteratorIPNSt7__cxx1112basic_stringIcSt11char_traitsIcESaIcEEESt6vectorIS7_SaIS7_EEEEET_SD_NSt15iterator_traitsISD_E15difference_typeE, symObjAddr: 0xBE4, symBinAddr: 0x100006128, symSize: 0x28 }
  - { offsetInCU: 0x7803, offset: 0x1E9FB, size: 0x8, addend: 0x0, symName: __Z17check_nonnegativeIfET_S0_RKNSt7__cxx1112basic_stringIcSt11char_traitsIcESaIcEEE, symObjAddr: 0x9A4, symBinAddr: 0x100006078, symSize: 0xB0 }
  - { offsetInCU: 0x77EF, offset: 0x1E9E7, size: 0x8, addend: 0x0, symName: __ZNK4Book12print_bibtexEv, symObjAddr: 0x534, symBinAddr: 0x100005E08, symSize: 0x270 }
  - { offsetInCU: 0x7844, offset: 0x1EA3C, size: 0x8, addend: 0x0, symName: __ZNK4Book10print_dataEv, symObjAddr: 0x3F4, symBinAddr: 0x100005CC8, symSize: 0x140 }
  - { offsetInCU: 0x784C, offset: 0x1EA44, size: 0x8, addend: 0x0, symName: __ZNK4Book12print_bibtexEv, symObjAddr: 0x534, symBinAddr: 0x100005E08, symSize: 0x270 }
  - { offsetInCU: 0x7972, offset: 0x1EB6A, size: 0x8, addend: 0x0, symName: __ZN4BookC1ERKNSt7__cxx1112basic_stringIcSt11char_traitsIcESaIcEEESt10unique_ptrISt6vectorIS5_SaIS5_EESt14default_deleteISB_EEiS7_S7_f, symObjAddr: 0x29C, symBinAddr: 0x100005B70, symSize: 0x158 }
  - { offsetInCU: 0x797A, offset: 0x1EB72, size: 0x8, addend: 0x0, symName: __ZNK4Book10print_dataEv, symObjAddr: 0x3F4, symBinAddr: 0x100005CC8, symSize: 0x140 }
  - { offsetInCU: 0x79EE, offset: 0x1EBE6, size: 0x8, addend: 0x0, symName: __ZN4BookC2ERKNSt7__cxx1112basic_stringIcSt11char_traitsIcESaIcEEESt10unique_ptrISt6vectorIS5_SaIS5_EESt14default_deleteISB_EEiS7_S7_f, symObjAddr: 0x144, symBinAddr: 0x100005A18, symSize: 0x158 }
  - { offsetInCU: 0x79F6, offset: 0x1EBEE, size: 0x8, addend: 0x0, symName: __ZN4BookC1ERKNSt7__cxx1112basic_stringIcSt11char_traitsIcESaIcEEESt10unique_ptrISt6vectorIS5_SaIS5_EESt14default_deleteISB_EEiS7_S7_f, symObjAddr: 0x29C, symBinAddr: 0x100005B70, symSize: 0x158 }
  - { offsetInCU: 0x7A18, offset: 0x1EC10, size: 0x8, addend: 0x0, symName: __ZN4BookD0Ev, symObjAddr: 0xCC, symBinAddr: 0x1000059F0, symSize: 0x28 }
  - { offsetInCU: 0x7A46, offset: 0x1EC3E, size: 0x8, addend: 0x0, symName: __ZN4BookD1Ev, symObjAddr: 0x84, symBinAddr: 0x1000059A8, symSize: 0x48 }
  - { offsetInCU: 0x7A4E, offset: 0x1EC46, size: 0x8, addend: 0x0, symName: __ZN4BookD0Ev, symObjAddr: 0xCC, symBinAddr: 0x1000059F0, symSize: 0x28 }
  - { offsetInCU: 0x5111, offset: 0x23D73, size: 0x8, addend: 0x0, symName: __ZStL8__ioinit, symObjAddr: 0x2D2F8, symBinAddr: 0x100010333, symSize: 0x0 }
  - { offsetInCU: 0x51BF, offset: 0x23E21, size: 0x8, addend: 0x0, symName: __ZN9__gnu_cxxL21__default_lock_policyE, symObjAddr: 0x1320, symBinAddr: 0x1000083C0, symSize: 0x0 }
  - { offsetInCU: 0x5227, offset: 0x23E89, size: 0x8, addend: 0x0, symName: __ZN6__pstl9execution2v1L3seqE, symObjAddr: 0x1324, symBinAddr: 0x1000083C4, symSize: 0x0 }
  - { offsetInCU: 0x5241, offset: 0x23EA3, size: 0x8, addend: 0x0, symName: __ZN6__pstl9execution2v1L3parE, symObjAddr: 0x1325, symBinAddr: 0x1000083C5, symSize: 0x0 }
  - { offsetInCU: 0x5261, offset: 0x23EC3, size: 0x8, addend: 0x0, symName: __ZN6__pstl9execution2v1L9par_unseqE, symObjAddr: 0x1326, symBinAddr: 0x1000083C6, symSize: 0x0 }
  - { offsetInCU: 0x5277, offset: 0x23ED9, size: 0x8, addend: 0x0, symName: __ZN6__pstl9execution2v1L5unseqE, symObjAddr: 0x1327, symBinAddr: 0x1000083C7, symSize: 0x0 }
  - { offsetInCU: 0x7270, offset: 0x25ED2, size: 0x8, addend: 0x0, symName: __GLOBAL__sub_I_Journal.cpp, symObjAddr: 0x1300, symBinAddr: 0x1000068FC, symSize: 0x1C }
  - { offsetInCU: 0x7299, offset: 0x25EFB, size: 0x8, addend: 0x0, symName: __Z41__static_initialization_and_destruction_0ii, symObjAddr: 0x12A0, symBinAddr: 0x10000689C, symSize: 0x60 }
  - { offsetInCU: 0x72A1, offset: 0x25F03, size: 0x8, addend: 0x0, symName: __GLOBAL__sub_I_Journal.cpp, symObjAddr: 0x1300, symBinAddr: 0x1000068FC, symSize: 0x1C }
  - { offsetInCU: 0x72B2, offset: 0x25F14, size: 0x8, addend: 0x0, symName: __ZNK7Journal10print_dataEv, symObjAddr: 0x490, symBinAddr: 0x10000662C, symSize: 0x270 }
  - { offsetInCU: 0x743D, offset: 0x2609F, size: 0x8, addend: 0x0, symName: __ZN7JournalC1ERKNSt7__cxx1112basic_stringIcSt11char_traitsIcESaIcEEESt10unique_ptrISt6vectorIS5_SaIS5_EESt14default_deleteISB_EEifS5_i, symObjAddr: 0x2E4, symBinAddr: 0x100006480, symSize: 0x1AC }
  - { offsetInCU: 0x7445, offset: 0x260A7, size: 0x8, addend: 0x0, symName: __ZNK7Journal10print_dataEv, symObjAddr: 0x490, symBinAddr: 0x10000662C, symSize: 0x270 }
  - { offsetInCU: 0x74BC, offset: 0x2611E, size: 0x8, addend: 0x0, symName: __ZN7JournalC2ERKNSt7__cxx1112basic_stringIcSt11char_traitsIcESaIcEEESt10unique_ptrISt6vectorIS5_SaIS5_EESt14default_deleteISB_EEifS5_i, symObjAddr: 0x138, symBinAddr: 0x1000062D4, symSize: 0x1AC }
  - { offsetInCU: 0x74C4, offset: 0x26126, size: 0x8, addend: 0x0, symName: __ZN7JournalC1ERKNSt7__cxx1112basic_stringIcSt11char_traitsIcESaIcEEESt10unique_ptrISt6vectorIS5_SaIS5_EESt14default_deleteISB_EEifS5_i, symObjAddr: 0x2E4, symBinAddr: 0x100006480, symSize: 0x1AC }
  - { offsetInCU: 0x74EB, offset: 0x2614D, size: 0x8, addend: 0x0, symName: __ZN7JournalD0Ev, symObjAddr: 0xC0, symBinAddr: 0x1000062AC, symSize: 0x28 }
  - { offsetInCU: 0x7519, offset: 0x2617B, size: 0x8, addend: 0x0, symName: __ZN7JournalD1Ev, symObjAddr: 0x84, symBinAddr: 0x100006270, symSize: 0x3C }
  - { offsetInCU: 0x7521, offset: 0x26183, size: 0x8, addend: 0x0, symName: __ZN7JournalD0Ev, symObjAddr: 0xC0, symBinAddr: 0x1000062AC, symSize: 0x28 }
  - { offsetInCU: 0xDC, offset: 0x26278, size: 0x8, addend: 0x0, symName: __ZN9__gnu_cxxL21__default_lock_policyE, symObjAddr: 0x30A0, symBinAddr: 0x1000083D8, symSize: 0x0 }
  - { offsetInCU: 0x5075, offset: 0x2B211, size: 0x8, addend: 0x0, symName: __ZStL8__ioinit, symObjAddr: 0x3E3F0, symBinAddr: 0x100010334, symSize: 0x0 }
  - { offsetInCU: 0x5123, offset: 0x2B2BF, size: 0x8, addend: 0x0, symName: __ZN9__gnu_cxxL21__default_lock_policyE, symObjAddr: 0x30A0, symBinAddr: 0x1000083D8, symSize: 0x0 }
  - { offsetInCU: 0x518B, offset: 0x2B327, size: 0x8, addend: 0x0, symName: __ZN6__pstl9execution2v1L3seqE, symObjAddr: 0x30A4, symBinAddr: 0x1000083DC, symSize: 0x0 }
  - { offsetInCU: 0x51A5, offset: 0x2B341, size: 0x8, addend: 0x0, symName: __ZN6__pstl9execution2v1L3parE, symObjAddr: 0x30A5, symBinAddr: 0x1000083DD, symSize: 0x0 }
  - { offsetInCU: 0x51C5, offset: 0x2B361, size: 0x8, addend: 0x0, symName: __ZN6__pstl9execution2v1L9par_unseqE, symObjAddr: 0x30A6, symBinAddr: 0x1000083DE, symSize: 0x0 }
  - { offsetInCU: 0x51DB, offset: 0x2B377, size: 0x8, addend: 0x0, symName: __ZN6__pstl9execution2v1L5unseqE, symObjAddr: 0x30A7, symBinAddr: 0x1000083DF, symSize: 0x0 }
  - { offsetInCU: 0x7899, offset: 0x2DA35, size: 0x8, addend: 0x0, symName: __GLOBAL__sub_I_Thesis.cpp, symObjAddr: 0x3084, symBinAddr: 0x100007860, symSize: 0x1C }
  - { offsetInCU: 0x78A1, offset: 0x2DA3D, size: 0x8, addend: 0x0, symName: __ZN9__gnu_cxxL21__default_lock_policyE, symObjAddr: 0x30A0, symBinAddr: 0x1000083D8, symSize: 0x0 }
  - { offsetInCU: 0x78C3, offset: 0x2DA5F, size: 0x8, addend: 0x0, symName: __Z41__static_initialization_and_destruction_0ii, symObjAddr: 0x3024, symBinAddr: 0x100007800, symSize: 0x60 }
  - { offsetInCU: 0x78CB, offset: 0x2DA67, size: 0x8, addend: 0x0, symName: __GLOBAL__sub_I_Thesis.cpp, symObjAddr: 0x3084, symBinAddr: 0x100007860, symSize: 0x1C }
  - { offsetInCU: 0x78E5, offset: 0x2DA81, size: 0x8, addend: 0x0, symName: __ZSt9__find_ifIN9__gnu_cxx17__normal_iteratorIPNSt7__cxx1112basic_stringIcSt11char_traitsIcESaIcEEESt6vectorIS7_SaIS7_EEEENS0_5__ops10_Iter_predIZN6Thesis17remove_supervisorERKS7_EUlSH_E_EEET_SK_SK_T0_St26random_access_iterator_tag, symObjAddr: 0x2664, symBinAddr: 0x100007664, symSize: 0x19C }
  - { offsetInCU: 0x7979, offset: 0x2DB15, size: 0x8, addend: 0x0, symName: __ZN9__gnu_cxx5__ops10_Iter_predIZN6Thesis17remove_supervisorERKNSt7__cxx1112basic_stringIcSt11char_traitsIcESaIcEEEEUlSA_E_EclINS_17__normal_iteratorIPS8_St6vectorIS8_SaIS8_EEEEEEbT_, symObjAddr: 0x2284, symBinAddr: 0x100007628, symSize: 0x3C }
  - { offsetInCU: 0x79D2, offset: 0x2DB6E, size: 0x8, addend: 0x0, symName: __ZSt9__find_ifIN9__gnu_cxx17__normal_iteratorIPNSt7__cxx1112basic_stringIcSt11char_traitsIcESaIcEEESt6vectorIS7_SaIS7_EEEENS0_5__ops10_Iter_predIZN6Thesis17remove_supervisorERKS7_EUlSH_E_EEET_SK_SK_T0_, symObjAddr: 0x2200, symBinAddr: 0x1000075E8, symSize: 0x40 }
  - { offsetInCU: 0x7A71, offset: 0x2DC0D, size: 0x8, addend: 0x0, symName: __ZN9__gnu_cxx5__ops10_Iter_predIZN6Thesis17remove_supervisorERKNSt7__cxx1112basic_stringIcSt11char_traitsIcESaIcEEEEUlSA_E_EC1ESB_, symObjAddr: 0x21CC, symBinAddr: 0x1000075B4, symSize: 0x34 }
  - { offsetInCU: 0x7A79, offset: 0x2DC15, size: 0x8, addend: 0x0, symName: __ZSt9__find_ifIN9__gnu_cxx17__normal_iteratorIPNSt7__cxx1112basic_stringIcSt11char_traitsIcESaIcEEESt6vectorIS7_SaIS7_EEEENS0_5__ops10_Iter_predIZN6Thesis17remove_supervisorERKS7_EUlSH_E_EEET_SK_SK_T0_, symObjAddr: 0x2200, symBinAddr: 0x1000075E8, symSize: 0x40 }
  - { offsetInCU: 0x7AF4, offset: 0x2DC90, size: 0x8, addend: 0x0, symName: __ZSt4moveIRZN6Thesis17remove_supervisorERKNSt7__cxx1112basic_stringIcSt11char_traitsIcESaIcEEEEUlS8_E_EONSt16remove_referenceIT_E4typeEOSC_, symObjAddr: 0x21B8, symBinAddr: 0x1000075A0, symSize: 0x14 }
  - { offsetInCU: 0x7AFC, offset: 0x2DC98, size: 0x8, addend: 0x0, symName: __ZN9__gnu_cxx5__ops10_Iter_predIZN6Thesis17remove_supervisorERKNSt7__cxx1112basic_stringIcSt11char_traitsIcESaIcEEEEUlSA_E_EC1ESB_, symObjAddr: 0x21CC, symBinAddr: 0x1000075B4, symSize: 0x34 }
  - { offsetInCU: 0x7BE6, offset: 0x2DD82, size: 0x8, addend: 0x0, symName: __ZSt11__remove_ifIN9__gnu_cxx17__normal_iteratorIPNSt7__cxx1112basic_stringIcSt11char_traitsIcESaIcEEESt6vectorIS7_SaIS7_EEEENS0_5__ops10_Iter_predIZN6Thesis17remove_supervisorERKS7_EUlSH_E_EEET_SK_SK_T0_, symObjAddr: 0x1980, symBinAddr: 0x1000074C8, symSize: 0xD8 }
  - { offsetInCU: 0x7BE6, offset: 0x2DD82, size: 0x8, addend: 0x0, symName: __ZN9__gnu_cxx5__ops11__pred_iterIZN6Thesis17remove_supervisorERKNSt7__cxx1112basic_stringIcSt11char_traitsIcESaIcEEEEUlSA_E_EENS0_10_Iter_predIT_EESD_, symObjAddr: 0x1950, symBinAddr: 0x100007498, symSize: 0x30 }
  - { offsetInCU: 0x7BEE, offset: 0x2DD8A, size: 0x8, addend: 0x0, symName: __ZSt11__remove_ifIN9__gnu_cxx17__normal_iteratorIPNSt7__cxx1112basic_stringIcSt11char_traitsIcESaIcEEESt6vectorIS7_SaIS7_EEEENS0_5__ops10_Iter_predIZN6Thesis17remove_supervisorERKS7_EUlSH_E_EEET_SK_SK_T0_, symObjAddr: 0x1980, symBinAddr: 0x1000074C8, symSize: 0xD8 }
  - { offsetInCU: 0x7C9E, offset: 0x2DE3A, size: 0x8, addend: 0x0, symName: __ZSt9remove_ifIN9__gnu_cxx17__normal_iteratorIPNSt7__cxx1112basic_stringIcSt11char_traitsIcESaIcEEESt6vectorIS7_SaIS7_EEEEZN6Thesis17remove_supervisorERKS7_EUlSF_E_ET_SH_SH_T0_, symObjAddr: 0x122C, symBinAddr: 0x100007464, symSize: 0x34 }
  - { offsetInCU: 0x7D03, offset: 0x2DE9F, size: 0x8, addend: 0x0, symName: __ZNSt10unique_ptrISt6vectorINSt7__cxx1112basic_stringIcSt11char_traitsIcESaIcEEESaIS6_EESt14default_deleteIS8_EEC1ISA_vEEDn, symObjAddr: 0xE30, symBinAddr: 0x100007438, symSize: 0x2C }
  - { offsetInCU: 0x7D89, offset: 0x2DF25, size: 0x8, addend: 0x0, symName: __ZNSt15__uniq_ptr_dataISt6vectorINSt7__cxx1112basic_stringIcSt11char_traitsIcESaIcEEESaIS6_EESt14default_deleteIS8_ELb1ELb1EECI1St15__uniq_ptr_implIS8_SA_EEv, symObjAddr: 0xE10, symBinAddr: 0x100007418, symSize: 0x20 }
  - { offsetInCU: 0x7D91, offset: 0x2DF2D, size: 0x8, addend: 0x0, symName: __ZNSt10unique_ptrISt6vectorINSt7__cxx1112basic_stringIcSt11char_traitsIcESaIcEEESaIS6_EESt14default_deleteIS8_EEC1ISA_vEEDn, symObjAddr: 0xE30, symBinAddr: 0x100007438, symSize: 0x2C }
  - { offsetInCU: 0x7DAC, offset: 0x2DF48, size: 0x8, addend: 0x0, symName: __ZNSt15__uniq_ptr_implISt6vectorINSt7__cxx1112basic_stringIcSt11char_traitsIcESaIcEEESaIS6_EESt14default_deleteIS8_EEC2Ev, symObjAddr: 0xDF0, symBinAddr: 0x1000073F8, symSize: 0x20 }
  - { offsetInCU: 0x7DB4, offset: 0x2DF50, size: 0x8, addend: 0x0, symName: __ZNSt15__uniq_ptr_dataISt6vectorINSt7__cxx1112basic_stringIcSt11char_traitsIcESaIcEEESaIS6_EESt14default_deleteIS8_ELb1ELb1EECI1St15__uniq_ptr_implIS8_SA_EEv, symObjAddr: 0xE10, symBinAddr: 0x100007418, symSize: 0x20 }
  - { offsetInCU: 0x7D60, offset: 0x2DEFC, size: 0x8, addend: 0x0, symName: __ZNK6Thesis12print_bibtexEv, symObjAddr: 0xB28, symBinAddr: 0x100007188, symSize: 0x270 }
  - { offsetInCU: 0x7DB5, offset: 0x2DF51, size: 0x8, addend: 0x0, symName: __ZNK6Thesis10print_dataEv, symObjAddr: 0x9E8, symBinAddr: 0x100007048, symSize: 0x140 }
  - { offsetInCU: 0x7DBD, offset: 0x2DF59, size: 0x8, addend: 0x0, symName: __ZNK6Thesis12print_bibtexEv, symObjAddr: 0xB28, symBinAddr: 0x100007188, symSize: 0x270 }
  - { offsetInCU: 0x7E40, offset: 0x2DFDC, size: 0x8, addend: 0x0, symName: __ZN6Thesis17remove_supervisorERKNSt7__cxx1112basic_stringIcSt11char_traitsIcESaIcEEE, symObjAddr: 0x93C, symBinAddr: 0x100006F9C, symSize: 0xAC }
  - { offsetInCU: 0x7E48, offset: 0x2DFE4, size: 0x8, addend: 0x0, symName: __ZNK6Thesis10print_dataEv, symObjAddr: 0x9E8, symBinAddr: 0x100007048, symSize: 0x140 }
  - { offsetInCU: 0x7EFE, offset: 0x2E09A, size: 0x8, addend: 0x0, symName: __ZZN6Thesis17remove_supervisorERKNSt7__cxx1112basic_stringIcSt11char_traitsIcESaIcEEEENKUlS7_E_clES7_, symObjAddr: 0x90C, symBinAddr: 0x100006F6C, symSize: 0x30 }
  - { offsetInCU: 0x7F06, offset: 0x2E0A2, size: 0x8, addend: 0x0, symName: __ZN6Thesis17remove_supervisorERKNSt7__cxx1112basic_stringIcSt11char_traitsIcESaIcEEE, symObjAddr: 0x93C, symBinAddr: 0x100006F9C, symSize: 0xAC }
  - { offsetInCU: 0x7F71, offset: 0x2E10D, size: 0x8, addend: 0x0, symName: __ZN6Thesis14add_supervisorERKNSt7__cxx1112basic_stringIcSt11char_traitsIcESaIcEEE, symObjAddr: 0x8DC, symBinAddr: 0x100006F3C, symSize: 0x30 }
  - { offsetInCU: 0x7F79, offset: 0x2E115, size: 0x8, addend: 0x0, symName: __ZZN6Thesis17remove_supervisorERKNSt7__cxx1112basic_stringIcSt11char_traitsIcESaIcEEEENKUlS7_E_clES7_, symObjAddr: 0x90C, symBinAddr: 0x100006F6C, symSize: 0x30 }
  - { offsetInCU: 0x7FB3, offset: 0x2E14F, size: 0x8, addend: 0x0, symName: __ZN6ThesisaSEOS_, symObjAddr: 0x84C, symBinAddr: 0x100006EAC, symSize: 0x90 }
  - { offsetInCU: 0x7FBB, offset: 0x2E157, size: 0x8, addend: 0x0, symName: __ZN6Thesis14add_supervisorERKNSt7__cxx1112basic_stringIcSt11char_traitsIcESaIcEEE, symObjAddr: 0x8DC, symBinAddr: 0x100006F3C, symSize: 0x30 }
  - { offsetInCU: 0x7FF5, offset: 0x2E191, size: 0x8, addend: 0x0, symName: __ZN6ThesisaSERKS_, symObjAddr: 0x7B8, symBinAddr: 0x100006E18, symSize: 0x94 }
  - { offsetInCU: 0x7FFD, offset: 0x2E199, size: 0x8, addend: 0x0, symName: __ZN6ThesisaSEOS_, symObjAddr: 0x84C, symBinAddr: 0x100006EAC, symSize: 0x90 }
  - { offsetInCU: 0x8071, offset: 0x2E20D, size: 0x8, addend: 0x0, symName: __ZN6ThesisC1EOS_, symObjAddr: 0x704, symBinAddr: 0x100006D64, symSize: 0xB4 }
  - { offsetInCU: 0x8079, offset: 0x2E215, size: 0x8, addend: 0x0, symName: __ZN6ThesisaSERKS_, symObjAddr: 0x7B8, symBinAddr: 0x100006E18, symSize: 0x94 }
  - { offsetInCU: 0x80AB, offset: 0x2E247, size: 0x8, addend: 0x0, symName: __ZN6ThesisC2EOS_, symObjAddr: 0x650, symBinAddr: 0x100006CB0, symSize: 0xB4 }
  - { offsetInCU: 0x80B3, offset: 0x2E24F, size: 0x8, addend: 0x0, symName: __ZN6ThesisC1EOS_, symObjAddr: 0x704, symBinAddr: 0x100006D64, symSize: 0xB4 }
  - { offsetInCU: 0x810F, offset: 0x2E2AB, size: 0x8, addend: 0x0, symName: __ZN6ThesisC1ERKS_, symObjAddr: 0x568, symBinAddr: 0x100006BC8, symSize: 0xE8 }
  - { offsetInCU: 0x8117, offset: 0x2E2B3, size: 0x8, addend: 0x0, symName: __ZN6ThesisC2EOS_, symObjAddr: 0x650, symBinAddr: 0x100006CB0, symSize: 0xB4 }
  - { offsetInCU: 0x8149, offset: 0x2E2E5, size: 0x8, addend: 0x0, symName: __ZN6ThesisC2ERKS_, symObjAddr: 0x480, symBinAddr: 0x100006AE0, symSize: 0xE8 }
  - { offsetInCU: 0x8151, offset: 0x2E2ED, size: 0x8, addend: 0x0, symName: __ZN6ThesisC1ERKS_, symObjAddr: 0x568, symBinAddr: 0x100006BC8, symSize: 0xE8 }
  - { offsetInCU: 0x8261, offset: 0x2E3FD, size: 0x8, addend: 0x0, symName: __ZN6ThesisC1ERKNSt7__cxx1112basic_stringIcSt11char_traitsIcESaIcEEESt10unique_ptrISt6vectorIS5_SaIS5_EESt14default_deleteISB_EEiS7_SE_, symObjAddr: 0x360, symBinAddr: 0x100006A10, symSize: 0xD0 }
  - { offsetInCU: 0x82CD, offset: 0x2E469, size: 0x8, addend: 0x0, symName: __ZN6ThesisC2ERKNSt7__cxx1112basic_stringIcSt11char_traitsIcESaIcEEESt10unique_ptrISt6vectorIS5_SaIS5_EESt14default_deleteISB_EEiS7_SE_, symObjAddr: 0x290, symBinAddr: 0x100006940, symSize: 0xD0 }
  - { offsetInCU: 0x82D5, offset: 0x2E471, size: 0x8, addend: 0x0, symName: __ZN6ThesisC1ERKNSt7__cxx1112basic_stringIcSt11char_traitsIcESaIcEEESt10unique_ptrISt6vectorIS5_SaIS5_EESt14default_deleteISB_EEiS7_SE_, symObjAddr: 0x360, symBinAddr: 0x100006A10, symSize: 0xD0 }
  - { offsetInCU: 0x82E8, offset: 0x2E484, size: 0x8, addend: 0x0, symName: __ZN6ThesisD0Ev, symObjAddr: 0x218, symBinAddr: 0x100006918, symSize: 0x28 }
...
