---
triple:          'arm64-apple-darwin'
binary-path:     './testing_lit_database'
relocations:
  - { offsetInCU: 0xE1, offset: 0xE1, size: 0x8, addend: 0x0, symName: __ZNSt11char_traitsIcE2ltERKcS2_, symObjAddr: 0x0, symBinAddr: 0x100002EFC, symSize: 0x38 }
  - { offsetInCU: 0xE9, offset: 0xE9, size: 0x8, addend: 0x0, symName: __ZN9__gnu_cxxL21__default_lock_policyE, symObjAddr: 0xC90, symBinAddr: 0x10000FD50, symSize: 0x0 }
  - { offsetInCU: 0x6ABB, offset: 0x6ABB, size: 0x8, addend: 0x0, symName: __ZStL8__ioinit, symObjAddr: 0x29FF0, symBinAddr: 0x10001C604, symSize: 0x0 }
  - { offsetInCU: 0x6D01, offset: 0x6D01, size: 0x8, addend: 0x0, symName: __ZN9__gnu_cxxL21__default_lock_policyE, symObjAddr: 0xC90, symBinAddr: 0x10000FD50, symSize: 0x0 }
  - { offsetInCU: 0x6E99, offset: 0x6E99, size: 0x8, addend: 0x0, symName: __ZN6__pstl9execution2v1L3seqE, symObjAddr: 0xC94, symBinAddr: 0x10000FD54, symSize: 0x0 }
  - { offsetInCU: 0x6EB3, offset: 0x6EB3, size: 0x8, addend: 0x0, symName: __ZN6__pstl9execution2v1L3parE, symObjAddr: 0xC95, symBinAddr: 0x10000FD55, symSize: 0x0 }
  - { offsetInCU: 0x6ED3, offset: 0x6ED3, size: 0x8, addend: 0x0, symName: __ZN6__pstl9execution2v1L9par_unseqE, symObjAddr: 0xC96, symBinAddr: 0x10000FD56, symSize: 0x0 }
  - { offsetInCU: 0x6EE9, offset: 0x6EE9, size: 0x8, addend: 0x0, symName: __ZN6__pstl9execution2v1L5unseqE, symObjAddr: 0xC97, symBinAddr: 0x10000FD57, symSize: 0x0 }
  - { offsetInCU: 0xAABB, offset: 0xAABB, size: 0x8, addend: 0x0, symName: __GLOBAL__sub_I_testing_lit_database.cpp, symObjAddr: 0xC74, symBinAddr: 0x100003B70, symSize: 0x1C }
  - { offsetInCU: 0xAAC3, offset: 0xAAC3, size: 0x8, addend: 0x0, symName: __ZN9__gnu_cxxL21__default_lock_policyE, symObjAddr: 0xC90, symBinAddr: 0x10000FD50, symSize: 0x0 }
  - { offsetInCU: 0xAAD7, offset: 0xAAD7, size: 0x8, addend: 0x0, symName: __Z41__static_initialization_and_destruction_0ii, symObjAddr: 0xC14, symBinAddr: 0x100003B10, symSize: 0x60 }
  - { offsetInCU: 0xAADF, offset: 0xAADF, size: 0x8, addend: 0x0, symName: __GLOBAL__sub_I_testing_lit_database.cpp, symObjAddr: 0xC74, symBinAddr: 0x100003B70, symSize: 0x1C }
  - { offsetInCU: 0xAAF0, offset: 0xAAF0, size: 0x8, addend: 0x0, symName: __ZNSt10_Head_baseILm1ESt14default_deleteI15LiteratureEntryELb1EE7_M_headERS3_, symObjAddr: 0xC00, symBinAddr: 0x100003AFC, symSize: 0x14 }
  - { offsetInCU: 0xAAF8, offset: 0xAAF8, size: 0x8, addend: 0x0, symName: __Z41__static_initialization_and_destruction_0ii, symObjAddr: 0xC14, symBinAddr: 0x100003B10, symSize: 0x60 }
  - { offsetInCU: 0xAB21, offset: 0xAB21, size: 0x8, addend: 0x0, symName: __ZNSt11_Tuple_implILm1EJSt14default_deleteI15LiteratureEntryEEE7_M_headERS3_, symObjAddr: 0xBE4, symBinAddr: 0x100003AE0, symSize: 0x1C }
  - { offsetInCU: 0xAB29, offset: 0xAB29, size: 0x8, addend: 0x0, symName: __ZNSt10_Head_baseILm1ESt14default_deleteI15LiteratureEntryELb1EE7_M_headERS3_, symObjAddr: 0xC00, symBinAddr: 0x100003AFC, symSize: 0x14 }
  - { offsetInCU: 0xAB53, offset: 0xAB53, size: 0x8, addend: 0x0, symName: __ZNSt10_Head_baseILm0EP15LiteratureEntryLb0EE7_M_headERS2_, symObjAddr: 0xBD0, symBinAddr: 0x100003ACC, symSize: 0x14 }
  - { offsetInCU: 0xAB5B, offset: 0xAB5B, size: 0x8, addend: 0x0, symName: __ZNSt11_Tuple_implILm1EJSt14default_deleteI15LiteratureEntryEEE7_M_headERS3_, symObjAddr: 0xBE4, symBinAddr: 0x100003AE0, symSize: 0x1C }
  - { offsetInCU: 0xABFC, offset: 0xABFC, size: 0x8, addend: 0x0, symName: __ZSt8_DestroyISt10unique_ptrI15LiteratureEntrySt14default_deleteIS1_EEEvPT_, symObjAddr: 0xBB0, symBinAddr: 0x100003AAC, symSize: 0x20 }
  - { offsetInCU: 0xAC04, offset: 0xAC04, size: 0x8, addend: 0x0, symName: __ZNSt10_Head_baseILm0EP15LiteratureEntryLb0EE7_M_headERS2_, symObjAddr: 0xBD0, symBinAddr: 0x100003ACC, symSize: 0x14 }
  - { offsetInCU: 0xAC4C, offset: 0xAC4C, size: 0x8, addend: 0x0, symName: __ZSt11__addressofISt10unique_ptrI15LiteratureEntrySt14default_deleteIS1_EEEPT_RS5_, symObjAddr: 0xB9C, symBinAddr: 0x100003A98, symSize: 0x14 }
  - { offsetInCU: 0xAC54, offset: 0xAC54, size: 0x8, addend: 0x0, symName: __ZSt8_DestroyISt10unique_ptrI15LiteratureEntrySt14default_deleteIS1_EEEvPT_, symObjAddr: 0xBB0, symBinAddr: 0x100003AAC, symSize: 0x20 }
  - { offsetInCU: 0xAC10, offset: 0xAC10, size: 0x8, addend: 0x0, symName: __ZN9__gnu_cxx13new_allocatorISt10unique_ptrI15LiteratureEntrySt14default_deleteIS2_EEE10deallocateEPS5_m, symObjAddr: 0xB6C, symBinAddr: 0x100003A68, symSize: 0x30 }
  - { offsetInCU: 0xAC18, offset: 0xAC18, size: 0x8, addend: 0x0, symName: __ZSt11__addressofISt10unique_ptrI15LiteratureEntrySt14default_deleteIS1_EEEPT_RS5_, symObjAddr: 0xB9C, symBinAddr: 0x100003A98, symSize: 0x14 }
  - { offsetInCU: 0xAD05, offset: 0xAD05, size: 0x8, addend: 0x0, symName: __ZSt12__get_helperILm1ESt14default_deleteI15LiteratureEntryEJEERT0_RSt11_Tuple_implIXT_EJS3_DpT1_EE, symObjAddr: 0xB50, symBinAddr: 0x100003A4C, symSize: 0x1C }
  - { offsetInCU: 0xAD0D, offset: 0xAD0D, size: 0x8, addend: 0x0, symName: __ZN9__gnu_cxx13new_allocatorISt10unique_ptrI15LiteratureEntrySt14default_deleteIS2_EEE10deallocateEPS5_m, symObjAddr: 0xB6C, symBinAddr: 0x100003A68, symSize: 0x30 }
  - { offsetInCU: 0xACC4, offset: 0xACC4, size: 0x8, addend: 0x0, symName: __ZNSt11_Tuple_implILm0EJP15LiteratureEntrySt14default_deleteIS0_EEE7_M_headERS4_, symObjAddr: 0xB34, symBinAddr: 0x100003A30, symSize: 0x1C }
  - { offsetInCU: 0xACCC, offset: 0xACCC, size: 0x8, addend: 0x0, symName: __ZSt12__get_helperILm1ESt14default_deleteI15LiteratureEntryEJEERT0_RSt11_Tuple_implIXT_EJS3_DpT1_EE, symObjAddr: 0xB50, symBinAddr: 0x100003A4C, symSize: 0x1C }
  - { offsetInCU: 0xACF6, offset: 0xACF6, size: 0x8, addend: 0x0, symName: __ZNSt12_Destroy_auxILb0EE9__destroyIPSt10unique_ptrI15LiteratureEntrySt14default_deleteIS3_EEEEvT_S8_, symObjAddr: 0xAE8, symBinAddr: 0x1000039E4, symSize: 0x4C }
  - { offsetInCU: 0xACFE, offset: 0xACFE, size: 0x8, addend: 0x0, symName: __ZNSt11_Tuple_implILm0EJP15LiteratureEntrySt14default_deleteIS0_EEE7_M_headERS4_, symObjAddr: 0xB34, symBinAddr: 0x100003A30, symSize: 0x1C }
  - { offsetInCU: 0xAD47, offset: 0xAD47, size: 0x8, addend: 0x0, symName: __ZNSt16allocator_traitsISaISt10unique_ptrI15LiteratureEntrySt14default_deleteIS1_EEEE10deallocateERS5_PS4_m, symObjAddr: 0xAB8, symBinAddr: 0x1000039B4, symSize: 0x30 }
  - { offsetInCU: 0xAD4F, offset: 0xAD4F, size: 0x8, addend: 0x0, symName: __ZNSt12_Destroy_auxILb0EE9__destroyIPSt10unique_ptrI15LiteratureEntrySt14default_deleteIS3_EEEEvT_S8_, symObjAddr: 0xAE8, symBinAddr: 0x1000039E4, symSize: 0x4C }
  - { offsetInCU: 0xAE23, offset: 0xAE23, size: 0x8, addend: 0x0, symName: __ZN9__gnu_cxx13new_allocatorISt10unique_ptrI15LiteratureEntrySt14default_deleteIS2_EEED2Ev, symObjAddr: 0xAA4, symBinAddr: 0x1000039A0, symSize: 0x14 }
  - { offsetInCU: 0xAE2B, offset: 0xAE2B, size: 0x8, addend: 0x0, symName: __ZNSt16allocator_traitsISaISt10unique_ptrI15LiteratureEntrySt14default_deleteIS1_EEEE10deallocateERS5_PS4_m, symObjAddr: 0xAB8, symBinAddr: 0x1000039B4, symSize: 0x30 }
  - { offsetInCU: 0xAEB9, offset: 0xAEB9, size: 0x8, addend: 0x0, symName: __ZSt3getILm1EJP15LiteratureEntrySt14default_deleteIS0_EEERNSt13tuple_elementIXT_ESt5tupleIJDpT0_EEE4typeERS8_, symObjAddr: 0xA88, symBinAddr: 0x100003984, symSize: 0x1C }
  - { offsetInCU: 0xAEC1, offset: 0xAEC1, size: 0x8, addend: 0x0, symName: __ZN9__gnu_cxx13new_allocatorISt10unique_ptrI15LiteratureEntrySt14default_deleteIS2_EEED2Ev, symObjAddr: 0xAA4, symBinAddr: 0x1000039A0, symSize: 0x14 }
  - { offsetInCU: 0xAF2B, offset: 0xAF2B, size: 0x8, addend: 0x0, symName: __ZSt12__get_helperILm0EP15LiteratureEntryJSt14default_deleteIS0_EEERT0_RSt11_Tuple_implIXT_EJS4_DpT1_EE, symObjAddr: 0xA6C, symBinAddr: 0x100003968, symSize: 0x1C }
  - { offsetInCU: 0xAF33, offset: 0xAF33, size: 0x8, addend: 0x0, symName: __ZSt3getILm1EJP15LiteratureEntrySt14default_deleteIS0_EEERNSt13tuple_elementIXT_ESt5tupleIJDpT0_EEE4typeERS8_, symObjAddr: 0xA88, symBinAddr: 0x100003984, symSize: 0x1C }
  - { offsetInCU: 0xAF59, offset: 0xAF59, size: 0x8, addend: 0x0, symName: __ZSt8_DestroyIPSt10unique_ptrI15LiteratureEntrySt14default_deleteIS1_EEEvT_S6_, symObjAddr: 0xA44, symBinAddr: 0x100003940, symSize: 0x28 }
  - { offsetInCU: 0xAF61, offset: 0xAF61, size: 0x8, addend: 0x0, symName: __ZSt12__get_helperILm0EP15LiteratureEntryJSt14default_deleteIS0_EEERT0_RSt11_Tuple_implIXT_EJS4_DpT1_EE, symObjAddr: 0xA6C, symBinAddr: 0x100003968, symSize: 0x1C }
  - { offsetInCU: 0xAF33, offset: 0xAF33, size: 0x8, addend: 0x0, symName: __ZNSt12_Vector_baseISt10unique_ptrI15LiteratureEntrySt14default_deleteIS1_EESaIS4_EE13_M_deallocateEPS4_m, symObjAddr: 0xA08, symBinAddr: 0x100003904, symSize: 0x3C }
  - { offsetInCU: 0xAF3B, offset: 0xAF3B, size: 0x8, addend: 0x0, symName: __ZSt8_DestroyIPSt10unique_ptrI15LiteratureEntrySt14default_deleteIS1_EEEvT_S6_, symObjAddr: 0xA44, symBinAddr: 0x100003940, symSize: 0x28 }
  - { offsetInCU: 0xAFF5, offset: 0xAFF5, size: 0x8, addend: 0x0, symName: __ZNSaISt10unique_ptrI15LiteratureEntrySt14default_deleteIS0_EEED2Ev, symObjAddr: 0x9E8, symBinAddr: 0x1000038E4, symSize: 0x20 }
  - { offsetInCU: 0xAFFD, offset: 0xAFFD, size: 0x8, addend: 0x0, symName: __ZNSt12_Vector_baseISt10unique_ptrI15LiteratureEntrySt14default_deleteIS1_EESaIS4_EE13_M_deallocateEPS4_m, symObjAddr: 0xA08, symBinAddr: 0x100003904, symSize: 0x3C }
  - { offsetInCU: 0xAFDF, offset: 0xAFDF, size: 0x8, addend: 0x0, symName: __ZNSt15__uniq_ptr_implI15LiteratureEntrySt14default_deleteIS0_EE10_M_deleterEv, symObjAddr: 0x9CC, symBinAddr: 0x1000038C8, symSize: 0x1C }
  - { offsetInCU: 0xAFE7, offset: 0xAFE7, size: 0x8, addend: 0x0, symName: __ZNSaISt10unique_ptrI15LiteratureEntrySt14default_deleteIS0_EEED2Ev, symObjAddr: 0x9E8, symBinAddr: 0x1000038E4, symSize: 0x20 }
  - { offsetInCU: 0xB0D1, offset: 0xB0D1, size: 0x8, addend: 0x0, symName: __ZSt3getILm0EJP15LiteratureEntrySt14default_deleteIS0_EEERNSt13tuple_elementIXT_ESt5tupleIJDpT0_EEE4typeERS8_, symObjAddr: 0x9B0, symBinAddr: 0x1000038AC, symSize: 0x1C }
  - { offsetInCU: 0xB0D9, offset: 0xB0D9, size: 0x8, addend: 0x0, symName: __ZNSt15__uniq_ptr_implI15LiteratureEntrySt14default_deleteIS0_EE10_M_deleterEv, symObjAddr: 0x9CC, symBinAddr: 0x1000038C8, symSize: 0x1C }
  - { offsetInCU: 0xB10D, offset: 0xB10D, size: 0x8, addend: 0x0, symName: __ZSt10__distanceIPKcENSt15iterator_traitsIT_E15difference_typeES3_S3_St26random_access_iterator_tag, symObjAddr: 0x98C, symBinAddr: 0x100003888, symSize: 0x24 }
  - { offsetInCU: 0xB115, offset: 0xB115, size: 0x8, addend: 0x0, symName: __ZSt3getILm0EJP15LiteratureEntrySt14default_deleteIS0_EEERNSt13tuple_elementIXT_ESt5tupleIJDpT0_EEE4typeERS8_, symObjAddr: 0x9B0, symBinAddr: 0x1000038AC, symSize: 0x1C }
  - { offsetInCU: 0xB16B, offset: 0xB16B, size: 0x8, addend: 0x0, symName: __ZSt19__iterator_categoryIPKcENSt15iterator_traitsIT_E17iterator_categoryERKS3_, symObjAddr: 0x978, symBinAddr: 0x100003874, symSize: 0x14 }
  - { offsetInCU: 0xB173, offset: 0xB173, size: 0x8, addend: 0x0, symName: __ZSt10__distanceIPKcENSt15iterator_traitsIT_E15difference_typeES3_S3_St26random_access_iterator_tag, symObjAddr: 0x98C, symBinAddr: 0x100003888, symSize: 0x24 }
  - { offsetInCU: 0xB185, offset: 0xB185, size: 0x8, addend: 0x0, symName: __ZN9__gnu_cxx17__is_null_pointerIKcEEbPT_, symObjAddr: 0x958, symBinAddr: 0x100003854, symSize: 0x20 }
  - { offsetInCU: 0xB18D, offset: 0xB18D, size: 0x8, addend: 0x0, symName: __ZSt19__iterator_categoryIPKcENSt15iterator_traitsIT_E17iterator_categoryERKS3_, symObjAddr: 0x978, symBinAddr: 0x100003874, symSize: 0x14 }
  - { offsetInCU: 0xB22E, offset: 0xB22E, size: 0x8, addend: 0x0, symName: __ZSt8_DestroyIPSt10unique_ptrI15LiteratureEntrySt14default_deleteIS1_EES4_EvT_S6_RSaIT0_E, symObjAddr: 0x92C, symBinAddr: 0x100003828, symSize: 0x2C }
  - { offsetInCU: 0xB236, offset: 0xB236, size: 0x8, addend: 0x0, symName: __ZN9__gnu_cxx17__is_null_pointerIKcEEbPT_, symObjAddr: 0x958, symBinAddr: 0x100003854, symSize: 0x20 }
  - { offsetInCU: 0xB1F4, offset: 0xB1F4, size: 0x8, addend: 0x0, symName: __ZNSt12_Vector_baseISt10unique_ptrI15LiteratureEntrySt14default_deleteIS1_EESaIS4_EE19_M_get_Tp_allocatorEv, symObjAddr: 0x918, symBinAddr: 0x100003814, symSize: 0x14 }
  - { offsetInCU: 0xB1FC, offset: 0xB1FC, size: 0x8, addend: 0x0, symName: __ZSt8_DestroyIPSt10unique_ptrI15LiteratureEntrySt14default_deleteIS1_EES4_EvT_S6_RSaIT0_E, symObjAddr: 0x92C, symBinAddr: 0x100003828, symSize: 0x2C }
  - { offsetInCU: 0xB2A3, offset: 0xB2A3, size: 0x8, addend: 0x0, symName: __ZNSt12_Vector_baseISt10unique_ptrI15LiteratureEntrySt14default_deleteIS1_EESaIS4_EED2Ev, symObjAddr: 0x8C8, symBinAddr: 0x1000037C4, symSize: 0x50 }
  - { offsetInCU: 0xB2AB, offset: 0xB2AB, size: 0x8, addend: 0x0, symName: __ZNSt12_Vector_baseISt10unique_ptrI15LiteratureEntrySt14default_deleteIS1_EESaIS4_EE19_M_get_Tp_allocatorEv, symObjAddr: 0x918, symBinAddr: 0x100003814, symSize: 0x14 }
  - { offsetInCU: 0xB309, offset: 0xB309, size: 0x8, addend: 0x0, symName: __ZNSt12_Vector_baseISt10unique_ptrI15LiteratureEntrySt14default_deleteIS1_EESaIS4_EE12_Vector_implD1Ev, symObjAddr: 0x8A8, symBinAddr: 0x1000037A4, symSize: 0x20 }
  - { offsetInCU: 0xB311, offset: 0xB311, size: 0x8, addend: 0x0, symName: __ZNSt12_Vector_baseISt10unique_ptrI15LiteratureEntrySt14default_deleteIS1_EESaIS4_EED2Ev, symObjAddr: 0x8C8, symBinAddr: 0x1000037C4, symSize: 0x50 }
  - { offsetInCU: 0xB2D0, offset: 0xB2D0, size: 0x8, addend: 0x0, symName: __ZNKSt14default_deleteI15LiteratureEntryEclEPS0_, symObjAddr: 0x870, symBinAddr: 0x10000376C, symSize: 0x38 }
  - { offsetInCU: 0xB2D8, offset: 0xB2D8, size: 0x8, addend: 0x0, symName: __ZNSt12_Vector_baseISt10unique_ptrI15LiteratureEntrySt14default_deleteIS1_EESaIS4_EE12_Vector_implD1Ev, symObjAddr: 0x8A8, symBinAddr: 0x1000037A4, symSize: 0x20 }
  - { offsetInCU: 0xB371, offset: 0xB371, size: 0x8, addend: 0x0, symName: __ZSt4moveIRP15LiteratureEntryEONSt16remove_referenceIT_E4typeEOS4_, symObjAddr: 0x85C, symBinAddr: 0x100003758, symSize: 0x14 }
  - { offsetInCU: 0xB379, offset: 0xB379, size: 0x8, addend: 0x0, symName: __ZNKSt14default_deleteI15LiteratureEntryEclEPS0_, symObjAddr: 0x870, symBinAddr: 0x10000376C, symSize: 0x38 }
  - { offsetInCU: 0xB366, offset: 0xB366, size: 0x8, addend: 0x0, symName: __ZNSt10unique_ptrI15LiteratureEntrySt14default_deleteIS0_EE11get_deleterEv, symObjAddr: 0x840, symBinAddr: 0x10000373C, symSize: 0x1C }
  - { offsetInCU: 0xB36E, offset: 0xB36E, size: 0x8, addend: 0x0, symName: __ZSt4moveIRP15LiteratureEntryEONSt16remove_referenceIT_E4typeEOS4_, symObjAddr: 0x85C, symBinAddr: 0x100003758, symSize: 0x14 }
  - { offsetInCU: 0xB395, offset: 0xB395, size: 0x8, addend: 0x0, symName: __ZNSt15__uniq_ptr_implI15LiteratureEntrySt14default_deleteIS0_EE6_M_ptrEv, symObjAddr: 0x824, symBinAddr: 0x100003720, symSize: 0x1C }
  - { offsetInCU: 0xB39D, offset: 0xB39D, size: 0x8, addend: 0x0, symName: __ZNSt10unique_ptrI15LiteratureEntrySt14default_deleteIS0_EE11get_deleterEv, symObjAddr: 0x840, symBinAddr: 0x10000373C, symSize: 0x1C }
  - { offsetInCU: 0xB3C4, offset: 0xB3C4, size: 0x8, addend: 0x0, symName: __ZNSt7__cxx1112basic_stringIcSt11char_traitsIcESaIcEE12_M_constructIPKcEEvT_S8_St20forward_iterator_tag, symObjAddr: 0x724, symBinAddr: 0x100003620, symSize: 0x100 }
  - { offsetInCU: 0xB3CC, offset: 0xB3CC, size: 0x8, addend: 0x0, symName: __ZNSt15__uniq_ptr_implI15LiteratureEntrySt14default_deleteIS0_EE6_M_ptrEv, symObjAddr: 0x824, symBinAddr: 0x100003720, symSize: 0x1C }
  - { offsetInCU: 0xB4A2, offset: 0xB4A2, size: 0x8, addend: 0x0, symName: __ZSt8distanceIPKcENSt15iterator_traitsIT_E15difference_typeES3_S3_, symObjAddr: 0x6E8, symBinAddr: 0x1000035E4, symSize: 0x3C }
  - { offsetInCU: 0xB4AA, offset: 0xB4AA, size: 0x8, addend: 0x0, symName: __ZNSt7__cxx1112basic_stringIcSt11char_traitsIcESaIcEE12_M_constructIPKcEEvT_S8_St20forward_iterator_tag, symObjAddr: 0x724, symBinAddr: 0x100003620, symSize: 0x100 }
  - { offsetInCU: 0xB51B, offset: 0xB51B, size: 0x8, addend: 0x0, symName: __ZNSt6vectorISt10unique_ptrI15LiteratureEntrySt14default_deleteIS1_EESaIS4_EED1Ev, symObjAddr: 0x698, symBinAddr: 0x100003594, symSize: 0x50 }
  - { offsetInCU: 0xB523, offset: 0xB523, size: 0x8, addend: 0x0, symName: __ZSt8distanceIPKcENSt15iterator_traitsIT_E15difference_typeES3_S3_, symObjAddr: 0x6E8, symBinAddr: 0x1000035E4, symSize: 0x3C }
  - { offsetInCU: 0xB595, offset: 0xB595, size: 0x8, addend: 0x0, symName: __ZSteqIcEN9__gnu_cxx11__enable_ifIXsrSt9__is_charIT_E7__valueEbE6__typeERKNSt7__cxx1112basic_stringIS3_St11char_traitsIS3_ESaIS3_EEESE_, symObjAddr: 0x618, symBinAddr: 0x100003514, symSize: 0x80 }
  - { offsetInCU: 0xB59D, offset: 0xB59D, size: 0x8, addend: 0x0, symName: __ZNSt6vectorISt10unique_ptrI15LiteratureEntrySt14default_deleteIS1_EESaIS4_EED1Ev, symObjAddr: 0x698, symBinAddr: 0x100003594, symSize: 0x50 }
  - { offsetInCU: 0xB5D1, offset: 0xB5D1, size: 0x8, addend: 0x0, symName: __ZNSt10unique_ptrI15LiteratureEntrySt14default_deleteIS0_EED1Ev, symObjAddr: 0x5B0, symBinAddr: 0x1000034AC, symSize: 0x68 }
  - { offsetInCU: 0xB5D9, offset: 0xB5D9, size: 0x8, addend: 0x0, symName: __ZSteqIcEN9__gnu_cxx11__enable_ifIXsrSt9__is_charIT_E7__valueEbE6__typeERKNSt7__cxx1112basic_stringIS3_St11char_traitsIS3_ESaIS3_EEESE_, symObjAddr: 0x618, symBinAddr: 0x100003514, symSize: 0x80 }
  - { offsetInCU: 0xB68C, offset: 0xB68C, size: 0x8, addend: 0x0, symName: __ZNSt7__cxx1112basic_stringIcSt11char_traitsIcESaIcEEC1IS3_EEPKcRKS3_, symObjAddr: 0x518, symBinAddr: 0x100003414, symSize: 0x98 }
  - { offsetInCU: 0xB694, offset: 0xB694, size: 0x8, addend: 0x0, symName: __ZNSt10unique_ptrI15LiteratureEntrySt14default_deleteIS0_EED1Ev, symObjAddr: 0x5B0, symBinAddr: 0x1000034AC, symSize: 0x68 }
  - { offsetInCU: 0xB737, offset: 0xB737, size: 0x8, addend: 0x0, symName: __ZNSt7__cxx1112basic_stringIcSt11char_traitsIcESaIcEE12_Alloc_hiderD1Ev, symObjAddr: 0x4F8, symBinAddr: 0x1000033F4, symSize: 0x20 }
  - { offsetInCU: 0xB73F, offset: 0xB73F, size: 0x8, addend: 0x0, symName: __ZNSt7__cxx1112basic_stringIcSt11char_traitsIcESaIcEEC1IS3_EEPKcRKS3_, symObjAddr: 0x518, symBinAddr: 0x100003414, symSize: 0x98 }
  - { offsetInCU: 0xB71D, offset: 0xB71D, size: 0x8, addend: 0x0, symName: __ZN9__gnu_cxx11char_traitsIcE6lengthEPKc, symObjAddr: 0x4A0, symBinAddr: 0x10000339C, symSize: 0x58 }
  - { offsetInCU: 0xB725, offset: 0xB725, size: 0x8, addend: 0x0, symName: __ZNSt7__cxx1112basic_stringIcSt11char_traitsIcESaIcEE12_Alloc_hiderD1Ev, symObjAddr: 0x4F8, symBinAddr: 0x1000033F4, symSize: 0x20 }
  - { offsetInCU: 0xB761, offset: 0xB761, size: 0x8, addend: 0x0, symName: __ZN9__gnu_cxx11char_traitsIcE2eqERKcS3_, symObjAddr: 0x470, symBinAddr: 0x10000336C, symSize: 0x30 }
  - { offsetInCU: 0xB769, offset: 0xB769, size: 0x8, addend: 0x0, symName: __ZN9__gnu_cxx11char_traitsIcE6lengthEPKc, symObjAddr: 0x4A0, symBinAddr: 0x10000339C, symSize: 0x58 }
  - { offsetInCU: 0xB7AF, offset: 0xB7AF, size: 0x8, addend: 0x0, symName: _main, symObjAddr: 0x294, symBinAddr: 0x100003190, symSize: 0x1DC }
  - { offsetInCU: 0xB7B7, offset: 0xB7B7, size: 0x8, addend: 0x0, symName: __ZN9__gnu_cxx11char_traitsIcE2eqERKcS3_, symObjAddr: 0x470, symBinAddr: 0x10000336C, symSize: 0x30 }
  - { offsetInCU: 0xB877, offset: 0xB877, size: 0x8, addend: 0x0, symName: __ZN18LiteratureDatabaseD1Ev, symObjAddr: 0x274, symBinAddr: 0x100003170, symSize: 0x20 }
  - { offsetInCU: 0xB87F, offset: 0xB87F, size: 0x8, addend: 0x0, symName: _main, symObjAddr: 0x294, symBinAddr: 0x100003190, symSize: 0x1DC }
  - { offsetInCU: 0xB8F6, offset: 0xB8F6, size: 0x8, addend: 0x0, symName: __Z14condition_typeRK15LiteratureEntryNSt7__cxx1112basic_stringIcSt11char_traitsIcESaIcEEE, symObjAddr: 0x214, symBinAddr: 0x100003110, symSize: 0x60 }
  - { offsetInCU: 0xB8FE, offset: 0xB8FE, size: 0x8, addend: 0x0, symName: __ZN18LiteratureDatabaseD1Ev, symObjAddr: 0x274, symBinAddr: 0x100003170, symSize: 0x20 }
  - { offsetInCU: 0xB949, offset: 0xB949, size: 0x8, addend: 0x0, symName: __Z15condition_titleRK15LiteratureEntryNSt7__cxx1112basic_stringIcSt11char_traitsIcESaIcEEE, symObjAddr: 0x1C4, symBinAddr: 0x1000030C0, symSize: 0x50 }
  - { offsetInCU: 0xB951, offset: 0xB951, size: 0x8, addend: 0x0, symName: __Z14condition_typeRK15LiteratureEntryNSt7__cxx1112basic_stringIcSt11char_traitsIcESaIcEEE, symObjAddr: 0x214, symBinAddr: 0x100003110, symSize: 0x60 }
  - { offsetInCU: 0xB998, offset: 0xB998, size: 0x8, addend: 0x0, symName: __Z14condition_nameRK15LiteratureEntryNSt7__cxx1112basic_stringIcSt11char_traitsIcESaIcEEE, symObjAddr: 0x19C, symBinAddr: 0x100003098, symSize: 0x28 }
  - { offsetInCU: 0xB9A0, offset: 0xB9A0, size: 0x8, addend: 0x0, symName: __Z15condition_titleRK15LiteratureEntryNSt7__cxx1112basic_stringIcSt11char_traitsIcESaIcEEE, symObjAddr: 0x1C4, symBinAddr: 0x1000030C0, symSize: 0x50 }
  - { offsetInCU: 0xB97C, offset: 0xB97C, size: 0x8, addend: 0x0, symName: __ZNK15LiteratureEntry9get_titleB5cxx11Ev, symObjAddr: 0x164, symBinAddr: 0x100003060, symSize: 0x38 }
  - { offsetInCU: 0xB984, offset: 0xB984, size: 0x8, addend: 0x0, symName: __Z14condition_nameRK15LiteratureEntryNSt7__cxx1112basic_stringIcSt11char_traitsIcESaIcEEE, symObjAddr: 0x19C, symBinAddr: 0x100003098, symSize: 0x28 }
  - { offsetInCU: 0xB9AB, offset: 0xB9AB, size: 0x8, addend: 0x0, symName: __ZNSt11char_traitsIcE6lengthEPKc, symObjAddr: 0x124, symBinAddr: 0x100003020, symSize: 0x40 }
  - { offsetInCU: 0xB9B3, offset: 0xB9B3, size: 0x8, addend: 0x0, symName: __ZNK15LiteratureEntry9get_titleB5cxx11Ev, symObjAddr: 0x164, symBinAddr: 0x100003060, symSize: 0x38 }
  - { offsetInCU: 0xBA39, offset: 0xBA39, size: 0x8, addend: 0x0, symName: __ZNSt11char_traitsIcE7compareEPKcS2_m, symObjAddr: 0x38, symBinAddr: 0x100002F34, symSize: 0xEC }
  - { offsetInCU: 0xBA41, offset: 0xBA41, size: 0x8, addend: 0x0, symName: __ZNSt11char_traitsIcE6lengthEPKc, symObjAddr: 0x124, symBinAddr: 0x100003020, symSize: 0x40 }
  - { offsetInCU: 0xBAB9, offset: 0xBAB9, size: 0x8, addend: 0x0, symName: __ZNSt11char_traitsIcE2ltERKcS2_, symObjAddr: 0x0, symBinAddr: 0x100002EFC, symSize: 0x38 }
  - { offsetInCU: 0xBAC1, offset: 0xBAC1, size: 0x8, addend: 0x0, symName: __ZNSt11char_traitsIcE7compareEPKcS2_m, symObjAddr: 0x38, symBinAddr: 0x100002F34, symSize: 0xEC }
  - { offsetInCU: 0xDD, offset: 0xBBE5, size: 0x8, addend: 0x0, symName: __ZnwmPv, symObjAddr: 0x0, symBinAddr: 0x100003B8C, symSize: 0x18 }
  - { offsetInCU: 0xE5, offset: 0xBBED, size: 0x8, addend: 0x0, symName: __ZN9__gnu_cxxL21__default_lock_policyE, symObjAddr: 0x3498, symBinAddr: 0x10000FD58, symSize: 0x0 }
  - { offsetInCU: 0x51B6, offset: 0x10CBE, size: 0x8, addend: 0x0, symName: __ZStL8__ioinit, symObjAddr: 0x40F40, symBinAddr: 0x10001C605, symSize: 0x0 }
  - { offsetInCU: 0x5264, offset: 0x10D6C, size: 0x8, addend: 0x0, symName: __ZN9__gnu_cxxL21__default_lock_policyE, symObjAddr: 0x3498, symBinAddr: 0x10000FD58, symSize: 0x0 }
  - { offsetInCU: 0x52CC, offset: 0x10DD4, size: 0x8, addend: 0x0, symName: __ZN6__pstl9execution2v1L3seqE, symObjAddr: 0x349C, symBinAddr: 0x10000FD5C, symSize: 0x0 }
  - { offsetInCU: 0x52E6, offset: 0x10DEE, size: 0x8, addend: 0x0, symName: __ZN6__pstl9execution2v1L3parE, symObjAddr: 0x349D, symBinAddr: 0x10000FD5D, symSize: 0x0 }
  - { offsetInCU: 0x5306, offset: 0x10E0E, size: 0x8, addend: 0x0, symName: __ZN6__pstl9execution2v1L9par_unseqE, symObjAddr: 0x349E, symBinAddr: 0x10000FD5E, symSize: 0x0 }
  - { offsetInCU: 0x531C, offset: 0x10E24, size: 0x8, addend: 0x0, symName: __ZN6__pstl9execution2v1L5unseqE, symObjAddr: 0x349F, symBinAddr: 0x10000FD5F, symSize: 0x0 }
  - { offsetInCU: 0x8EA0, offset: 0x149A8, size: 0x8, addend: 0x0, symName: __GLOBAL__sub_I_LiteratureEntry.cpp, symObjAddr: 0x347C, symBinAddr: 0x100006B50, symSize: 0x1C }
  - { offsetInCU: 0x8EA8, offset: 0x149B0, size: 0x8, addend: 0x0, symName: __ZN9__gnu_cxxL21__default_lock_policyE, symObjAddr: 0x3498, symBinAddr: 0x10000FD58, symSize: 0x0 }
  - { offsetInCU: 0x8EC1, offset: 0x149C9, size: 0x8, addend: 0x0, symName: __Z41__static_initialization_and_destruction_0ii, symObjAddr: 0x341C, symBinAddr: 0x100006AF0, symSize: 0x60 }
  - { offsetInCU: 0x8EC9, offset: 0x149D1, size: 0x8, addend: 0x0, symName: __GLOBAL__sub_I_LiteratureEntry.cpp, symObjAddr: 0x347C, symBinAddr: 0x100006B50, symSize: 0x1C }
  - { offsetInCU: 0x8EDA, offset: 0x149E2, size: 0x8, addend: 0x0, symName: __ZN9__gnu_cxx13new_allocatorINSt7__cxx1112basic_stringIcSt11char_traitsIcESaIcEEEE9constructIS6_JS6_EEEvPT_DpOT0_, symObjAddr: 0x33D0, symBinAddr: 0x100006AA4, symSize: 0x4C }
  - { offsetInCU: 0x8EE2, offset: 0x149EA, size: 0x8, addend: 0x0, symName: __Z41__static_initialization_and_destruction_0ii, symObjAddr: 0x341C, symBinAddr: 0x100006AF0, symSize: 0x60 }
  - { offsetInCU: 0x8FDF, offset: 0x14AE7, size: 0x8, addend: 0x0, symName: __ZSt7forwardINSt7__cxx1112basic_stringIcSt11char_traitsIcESaIcEEEEOT_RNSt16remove_referenceIS6_E4typeE, symObjAddr: 0x33BC, symBinAddr: 0x100006A90, symSize: 0x14 }
  - { offsetInCU: 0x8FE7, offset: 0x14AEF, size: 0x8, addend: 0x0, symName: __ZN9__gnu_cxx13new_allocatorINSt7__cxx1112basic_stringIcSt11char_traitsIcESaIcEEEE9constructIS6_JS6_EEEvPT_DpOT0_, symObjAddr: 0x33D0, symBinAddr: 0x100006AA4, symSize: 0x4C }
  - { offsetInCU: 0x8F9D, offset: 0x14AA5, size: 0x8, addend: 0x0, symName: __ZNSt16allocator_traitsISaINSt7__cxx1112basic_stringIcSt11char_traitsIcESaIcEEEEE9constructIS5_JS5_EEEvRS6_PT_DpOT0_, symObjAddr: 0x3384, symBinAddr: 0x100006A58, symSize: 0x38 }
  - { offsetInCU: 0x8FA5, offset: 0x14AAD, size: 0x8, addend: 0x0, symName: __ZSt7forwardINSt7__cxx1112basic_stringIcSt11char_traitsIcESaIcEEEEOT_RNSt16remove_referenceIS6_E4typeE, symObjAddr: 0x33BC, symBinAddr: 0x100006A90, symSize: 0x14 }
  - { offsetInCU: 0x9011, offset: 0x14B19, size: 0x8, addend: 0x0, symName: __ZNSt11__copy_moveILb1ELb0ESt26random_access_iterator_tagE8__copy_mIPNSt7__cxx1112basic_stringIcSt11char_traitsIcESaIcEEES9_EET0_T_SB_SA_, symObjAddr: 0x3308, symBinAddr: 0x1000069DC, symSize: 0x7C }
  - { offsetInCU: 0x9019, offset: 0x14B21, size: 0x8, addend: 0x0, symName: __ZNSt16allocator_traitsISaINSt7__cxx1112basic_stringIcSt11char_traitsIcESaIcEEEEE9constructIS5_JS5_EEEvRS6_PT_DpOT0_, symObjAddr: 0x3384, symBinAddr: 0x100006A58, symSize: 0x38 }
  - { offsetInCU: 0x91B0, offset: 0x14CB8, size: 0x8, addend: 0x0, symName: __ZSt19__relocate_object_aINSt7__cxx1112basic_stringIcSt11char_traitsIcESaIcEEES5_SaIS5_EEvPT_PT0_RT1_, symObjAddr: 0x32BC, symBinAddr: 0x100006990, symSize: 0x4C }
  - { offsetInCU: 0x91B8, offset: 0x14CC0, size: 0x8, addend: 0x0, symName: __ZNSt11__copy_moveILb1ELb0ESt26random_access_iterator_tagE8__copy_mIPNSt7__cxx1112basic_stringIcSt11char_traitsIcESaIcEEES9_EET0_T_SB_SA_, symObjAddr: 0x3308, symBinAddr: 0x1000069DC, symSize: 0x7C }
  - { offsetInCU: 0x9142, offset: 0x14C4A, size: 0x8, addend: 0x0, symName: __ZNK9__gnu_cxx13new_allocatorINSt7__cxx1112basic_stringIcSt11char_traitsIcESaIcEEEE8max_sizeEv, symObjAddr: 0x32A0, symBinAddr: 0x100006974, symSize: 0x1C }
  - { offsetInCU: 0x914A, offset: 0x14C52, size: 0x8, addend: 0x0, symName: __ZSt19__relocate_object_aINSt7__cxx1112basic_stringIcSt11char_traitsIcESaIcEEES5_SaIS5_EEvPT_PT0_RT1_, symObjAddr: 0x32BC, symBinAddr: 0x100006990, symSize: 0x4C }
  - { offsetInCU: 0x9230, offset: 0x14D38, size: 0x8, addend: 0x0, symName: __ZSt14__copy_move_a2ILb1EPNSt7__cxx1112basic_stringIcSt11char_traitsIcESaIcEEES6_ET1_T0_S8_S7_, symObjAddr: 0x3274, symBinAddr: 0x100006948, symSize: 0x2C }
  - { offsetInCU: 0x9238, offset: 0x14D40, size: 0x8, addend: 0x0, symName: __ZNK9__gnu_cxx13new_allocatorINSt7__cxx1112basic_stringIcSt11char_traitsIcESaIcEEEE8max_sizeEv, symObjAddr: 0x32A0, symBinAddr: 0x100006974, symSize: 0x1C }
  - { offsetInCU: 0x92F3, offset: 0x14DFB, size: 0x8, addend: 0x0, symName: __ZSt14__relocate_a_1IPNSt7__cxx1112basic_stringIcSt11char_traitsIcESaIcEEES6_SaIS5_EET0_T_S9_S8_RT1_, symObjAddr: 0x31F0, symBinAddr: 0x1000068C4, symSize: 0x84 }
  - { offsetInCU: 0x92FB, offset: 0x14E03, size: 0x8, addend: 0x0, symName: __ZSt14__copy_move_a2ILb1EPNSt7__cxx1112basic_stringIcSt11char_traitsIcESaIcEEES6_ET1_T0_S8_S7_, symObjAddr: 0x3274, symBinAddr: 0x100006948, symSize: 0x2C }
  - { offsetInCU: 0x933A, offset: 0x14E42, size: 0x8, addend: 0x0, symName: __ZSt12__niter_baseIPNSt7__cxx1112basic_stringIcSt11char_traitsIcESaIcEEEET_S7_, symObjAddr: 0x31DC, symBinAddr: 0x1000068B0, symSize: 0x14 }
  - { offsetInCU: 0x9342, offset: 0x14E4A, size: 0x8, addend: 0x0, symName: __ZSt14__relocate_a_1IPNSt7__cxx1112basic_stringIcSt11char_traitsIcESaIcEEES6_SaIS5_EET0_T_S9_S8_RT1_, symObjAddr: 0x31F0, symBinAddr: 0x1000068C4, symSize: 0x84 }
  - { offsetInCU: 0x9302, offset: 0x14E0A, size: 0x8, addend: 0x0, symName: __ZNSt16allocator_traitsISaINSt7__cxx1112basic_stringIcSt11char_traitsIcESaIcEEEEE8max_sizeERKS6_, symObjAddr: 0x31C0, symBinAddr: 0x100006894, symSize: 0x1C }
  - { offsetInCU: 0x930A, offset: 0x14E12, size: 0x8, addend: 0x0, symName: __ZSt12__niter_baseIPNSt7__cxx1112basic_stringIcSt11char_traitsIcESaIcEEEET_S7_, symObjAddr: 0x31DC, symBinAddr: 0x1000068B0, symSize: 0x14 }
  - { offsetInCU: 0x9334, offset: 0x14E3C, size: 0x8, addend: 0x0, symName: __ZNSt10_Head_baseILm0EPSt6vectorINSt7__cxx1112basic_stringIcSt11char_traitsIcESaIcEEESaIS6_EELb0EE7_M_headERKSA_, symObjAddr: 0x31AC, symBinAddr: 0x100006880, symSize: 0x14 }
  - { offsetInCU: 0x933C, offset: 0x14E44, size: 0x8, addend: 0x0, symName: __ZNSt16allocator_traitsISaINSt7__cxx1112basic_stringIcSt11char_traitsIcESaIcEEEEE8max_sizeERKS6_, symObjAddr: 0x31C0, symBinAddr: 0x100006894, symSize: 0x1C }
  - { offsetInCU: 0x9365, offset: 0x14E6D, size: 0x8, addend: 0x0, symName: __ZNSt10_Head_baseILm1ESt14default_deleteISt6vectorINSt7__cxx1112basic_stringIcSt11char_traitsIcESaIcEEESaIS7_EEELb1EE7_M_headERSB_, symObjAddr: 0x3198, symBinAddr: 0x10000686C, symSize: 0x14 }
  - { offsetInCU: 0x936D, offset: 0x14E75, size: 0x8, addend: 0x0, symName: __ZNSt10_Head_baseILm0EPSt6vectorINSt7__cxx1112basic_stringIcSt11char_traitsIcESaIcEEESaIS6_EELb0EE7_M_headERKSA_, symObjAddr: 0x31AC, symBinAddr: 0x100006880, symSize: 0x14 }
  - { offsetInCU: 0x9396, offset: 0x14E9E, size: 0x8, addend: 0x0, symName: __ZNSt10_Head_baseILm0EPSt6vectorINSt7__cxx1112basic_stringIcSt11char_traitsIcESaIcEEESaIS6_EELb0EE7_M_headERSA_, symObjAddr: 0x3184, symBinAddr: 0x100006858, symSize: 0x14 }
  - { offsetInCU: 0x939E, offset: 0x14EA6, size: 0x8, addend: 0x0, symName: __ZNSt10_Head_baseILm1ESt14default_deleteISt6vectorINSt7__cxx1112basic_stringIcSt11char_traitsIcESaIcEEESaIS7_EEELb1EE7_M_headERSB_, symObjAddr: 0x3198, symBinAddr: 0x10000686C, symSize: 0x14 }
  - { offsetInCU: 0x94F9, offset: 0x15001, size: 0x8, addend: 0x0, symName: __ZSt12__niter_wrapIN9__gnu_cxx17__normal_iteratorIPNSt7__cxx1112basic_stringIcSt11char_traitsIcESaIcEEESt6vectorIS7_SaIS7_EEEES8_ET_SD_T0_, symObjAddr: 0x3148, symBinAddr: 0x10000681C, symSize: 0x3C }
  - { offsetInCU: 0x9501, offset: 0x15009, size: 0x8, addend: 0x0, symName: __ZNSt10_Head_baseILm0EPSt6vectorINSt7__cxx1112basic_stringIcSt11char_traitsIcESaIcEEESaIS6_EELb0EE7_M_headERSA_, symObjAddr: 0x3184, symBinAddr: 0x100006858, symSize: 0x14 }
  - { offsetInCU: 0x94F3, offset: 0x14FFB, size: 0x8, addend: 0x0, symName: __ZSt14__copy_move_a1ILb1EPNSt7__cxx1112basic_stringIcSt11char_traitsIcESaIcEEES6_ET1_T0_S8_S7_, symObjAddr: 0x311C, symBinAddr: 0x1000067F0, symSize: 0x2C }
  - { offsetInCU: 0x94FB, offset: 0x15003, size: 0x8, addend: 0x0, symName: __ZSt12__niter_wrapIN9__gnu_cxx17__normal_iteratorIPNSt7__cxx1112basic_stringIcSt11char_traitsIcESaIcEEESt6vectorIS7_SaIS7_EEEES8_ET_SD_T0_, symObjAddr: 0x3148, symBinAddr: 0x10000681C, symSize: 0x3C }
  - { offsetInCU: 0x95B1, offset: 0x150B9, size: 0x8, addend: 0x0, symName: __ZSt12__niter_baseIPNSt7__cxx1112basic_stringIcSt11char_traitsIcESaIcEEESt6vectorIS5_SaIS5_EEET_N9__gnu_cxx17__normal_iteratorISA_T0_EE, symObjAddr: 0x30FC, symBinAddr: 0x1000067D0, symSize: 0x20 }
  - { offsetInCU: 0x95B9, offset: 0x150C1, size: 0x8, addend: 0x0, symName: __ZSt14__copy_move_a1ILb1EPNSt7__cxx1112basic_stringIcSt11char_traitsIcESaIcEEES6_ET1_T0_S8_S7_, symObjAddr: 0x311C, symBinAddr: 0x1000067F0, symSize: 0x2C }
  - { offsetInCU: 0x960B, offset: 0x15113, size: 0x8, addend: 0x0, symName: __ZSt12__relocate_aIPNSt7__cxx1112basic_stringIcSt11char_traitsIcESaIcEEES6_SaIS5_EET0_T_S9_S8_RT1_, symObjAddr: 0x30A0, symBinAddr: 0x100006774, symSize: 0x5C }
  - { offsetInCU: 0x9613, offset: 0x1511B, size: 0x8, addend: 0x0, symName: __ZSt12__niter_baseIPNSt7__cxx1112basic_stringIcSt11char_traitsIcESaIcEEESt6vectorIS5_SaIS5_EEET_N9__gnu_cxx17__normal_iteratorISA_T0_EE, symObjAddr: 0x30FC, symBinAddr: 0x1000067D0, symSize: 0x20 }
  - { offsetInCU: 0x95BE, offset: 0x150C6, size: 0x8, addend: 0x0, symName: __ZN9__gnu_cxx13new_allocatorINSt7__cxx1112basic_stringIcSt11char_traitsIcESaIcEEEE8allocateEmPKv, symObjAddr: 0x3028, symBinAddr: 0x1000066FC, symSize: 0x78 }
  - { offsetInCU: 0x95C6, offset: 0x150CE, size: 0x8, addend: 0x0, symName: __ZSt12__relocate_aIPNSt7__cxx1112basic_stringIcSt11char_traitsIcESaIcEEES6_SaIS5_EET0_T_S9_S8_RT1_, symObjAddr: 0x30A0, symBinAddr: 0x100006774, symSize: 0x5C }
  - { offsetInCU: 0x961E, offset: 0x15126, size: 0x8, addend: 0x0, symName: __ZNK9__gnu_cxx13new_allocatorINSt7__cxx1112basic_stringIcSt11char_traitsIcESaIcEEEE11_M_max_sizeEv, symObjAddr: 0x3014, symBinAddr: 0x1000066E8, symSize: 0x14 }
  - { offsetInCU: 0x9626, offset: 0x1512E, size: 0x8, addend: 0x0, symName: __ZN9__gnu_cxx13new_allocatorINSt7__cxx1112basic_stringIcSt11char_traitsIcESaIcEEEE8allocateEmPKv, symObjAddr: 0x3028, symBinAddr: 0x1000066FC, symSize: 0x78 }
  - { offsetInCU: 0x964D, offset: 0x15155, size: 0x8, addend: 0x0, symName: __ZNSt6vectorINSt7__cxx1112basic_stringIcSt11char_traitsIcESaIcEEESaIS5_EE11_S_max_sizeERKS6_, symObjAddr: 0x2FDC, symBinAddr: 0x1000066B0, symSize: 0x38 }
  - { offsetInCU: 0x9655, offset: 0x1515D, size: 0x8, addend: 0x0, symName: __ZNK9__gnu_cxx13new_allocatorINSt7__cxx1112basic_stringIcSt11char_traitsIcESaIcEEEE11_M_max_sizeEv, symObjAddr: 0x3014, symBinAddr: 0x1000066E8, symSize: 0x14 }
  - { offsetInCU: 0x96A7, offset: 0x151AF, size: 0x8, addend: 0x0, symName: __ZNSt11_Tuple_implILm0EJPSt6vectorINSt7__cxx1112basic_stringIcSt11char_traitsIcESaIcEEESaIS6_EESt14default_deleteIS8_EEE7_M_headERKSC_, symObjAddr: 0x2FC0, symBinAddr: 0x100006694, symSize: 0x1C }
  - { offsetInCU: 0x96AF, offset: 0x151B7, size: 0x8, addend: 0x0, symName: __ZNSt6vectorINSt7__cxx1112basic_stringIcSt11char_traitsIcESaIcEEESaIS5_EE11_S_max_sizeERKS6_, symObjAddr: 0x2FDC, symBinAddr: 0x1000066B0, symSize: 0x38 }
  - { offsetInCU: 0x974D, offset: 0x15255, size: 0x8, addend: 0x0, symName: __ZSt8_DestroyINSt7__cxx1112basic_stringIcSt11char_traitsIcESaIcEEEEvPT_, symObjAddr: 0x2FA0, symBinAddr: 0x100006674, symSize: 0x20 }
  - { offsetInCU: 0x9755, offset: 0x1525D, size: 0x8, addend: 0x0, symName: __ZNSt11_Tuple_implILm0EJPSt6vectorINSt7__cxx1112basic_stringIcSt11char_traitsIcESaIcEEESaIS6_EESt14default_deleteIS8_EEE7_M_headERKSC_, symObjAddr: 0x2FC0, symBinAddr: 0x100006694, symSize: 0x1C }
  - { offsetInCU: 0x97F8, offset: 0x15300, size: 0x8, addend: 0x0, symName: __ZSt10_ConstructINSt7__cxx1112basic_stringIcSt11char_traitsIcESaIcEEEJRKS5_EEvPT_DpOT0_, symObjAddr: 0x2F30, symBinAddr: 0x100006604, symSize: 0x70 }
  - { offsetInCU: 0x9800, offset: 0x15308, size: 0x8, addend: 0x0, symName: __ZSt8_DestroyINSt7__cxx1112basic_stringIcSt11char_traitsIcESaIcEEEEvPT_, symObjAddr: 0x2FA0, symBinAddr: 0x100006674, symSize: 0x20 }
  - { offsetInCU: 0x977D, offset: 0x15285, size: 0x8, addend: 0x0, symName: __ZNK9__gnu_cxx17__normal_iteratorIPKNSt7__cxx1112basic_stringIcSt11char_traitsIcESaIcEEESt6vectorIS6_SaIS6_EEEdeEv, symObjAddr: 0x2F18, symBinAddr: 0x1000065EC, symSize: 0x18 }
  - { offsetInCU: 0x9785, offset: 0x1528D, size: 0x8, addend: 0x0, symName: __ZSt10_ConstructINSt7__cxx1112basic_stringIcSt11char_traitsIcESaIcEEEJRKS5_EEvPT_DpOT0_, symObjAddr: 0x2F30, symBinAddr: 0x100006604, symSize: 0x70 }
  - { offsetInCU: 0x97AC, offset: 0x152B4, size: 0x8, addend: 0x0, symName: __ZN9__gnu_cxx13new_allocatorINSt7__cxx1112basic_stringIcSt11char_traitsIcESaIcEEEE10deallocateEPS6_m, symObjAddr: 0x2EE8, symBinAddr: 0x1000065BC, symSize: 0x30 }
  - { offsetInCU: 0x97B4, offset: 0x152BC, size: 0x8, addend: 0x0, symName: __ZNK9__gnu_cxx17__normal_iteratorIPKNSt7__cxx1112basic_stringIcSt11char_traitsIcESaIcEEESt6vectorIS6_SaIS6_EEEdeEv, symObjAddr: 0x2F18, symBinAddr: 0x1000065EC, symSize: 0x18 }
  - { offsetInCU: 0x987E, offset: 0x15386, size: 0x8, addend: 0x0, symName: __ZN9__gnu_cxx13new_allocatorINSt7__cxx1112basic_stringIcSt11char_traitsIcESaIcEEEEC2ERKS7_, symObjAddr: 0x2ED0, symBinAddr: 0x1000065A4, symSize: 0x18 }
  - { offsetInCU: 0x9886, offset: 0x1538E, size: 0x8, addend: 0x0, symName: __ZN9__gnu_cxx13new_allocatorINSt7__cxx1112basic_stringIcSt11char_traitsIcESaIcEEEE10deallocateEPS6_m, symObjAddr: 0x2EE8, symBinAddr: 0x1000065BC, symSize: 0x30 }
  - { offsetInCU: 0x985D, offset: 0x15365, size: 0x8, addend: 0x0, symName: __ZNSt11_Tuple_implILm1EJSt14default_deleteISt6vectorINSt7__cxx1112basic_stringIcSt11char_traitsIcESaIcEEESaIS7_EEEEE7_M_headERSB_, symObjAddr: 0x2EB4, symBinAddr: 0x100006588, symSize: 0x1C }
  - { offsetInCU: 0x9865, offset: 0x1536D, size: 0x8, addend: 0x0, symName: __ZN9__gnu_cxx13new_allocatorINSt7__cxx1112basic_stringIcSt11char_traitsIcESaIcEEEEC2ERKS7_, symObjAddr: 0x2ED0, symBinAddr: 0x1000065A4, symSize: 0x18 }
  - { offsetInCU: 0x988F, offset: 0x15397, size: 0x8, addend: 0x0, symName: __ZNSt11_Tuple_implILm0EJPSt6vectorINSt7__cxx1112basic_stringIcSt11char_traitsIcESaIcEEESaIS6_EESt14default_deleteIS8_EEE7_M_headERSC_, symObjAddr: 0x2E98, symBinAddr: 0x10000656C, symSize: 0x1C }
  - { offsetInCU: 0x9897, offset: 0x1539F, size: 0x8, addend: 0x0, symName: __ZNSt11_Tuple_implILm1EJSt14default_deleteISt6vectorINSt7__cxx1112basic_stringIcSt11char_traitsIcESaIcEEESaIS7_EEEEE7_M_headERSB_, symObjAddr: 0x2EB4, symBinAddr: 0x100006588, symSize: 0x1C }
  - { offsetInCU: 0x9A53, offset: 0x1555B, size: 0x8, addend: 0x0, symName: __ZSt13__copy_move_aILb1EN9__gnu_cxx17__normal_iteratorIPNSt7__cxx1112basic_stringIcSt11char_traitsIcESaIcEEESt6vectorIS7_SaIS7_EEEESC_ET1_T0_SE_SD_, symObjAddr: 0x2E38, symBinAddr: 0x10000650C, symSize: 0x60 }
  - { offsetInCU: 0x9A5B, offset: 0x15563, size: 0x8, addend: 0x0, symName: __ZNSt11_Tuple_implILm0EJPSt6vectorINSt7__cxx1112basic_stringIcSt11char_traitsIcESaIcEEESaIS6_EESt14default_deleteIS8_EEE7_M_headERSC_, symObjAddr: 0x2E98, symBinAddr: 0x10000656C, symSize: 0x1C }
  - { offsetInCU: 0x9A5A, offset: 0x15562, size: 0x8, addend: 0x0, symName: __ZSt12__miter_baseIN9__gnu_cxx17__normal_iteratorIPNSt7__cxx1112basic_stringIcSt11char_traitsIcESaIcEEESt6vectorIS7_SaIS7_EEEEET_SD_, symObjAddr: 0x2E24, symBinAddr: 0x1000064F8, symSize: 0x14 }
  - { offsetInCU: 0x9A62, offset: 0x1556A, size: 0x8, addend: 0x0, symName: __ZSt13__copy_move_aILb1EN9__gnu_cxx17__normal_iteratorIPNSt7__cxx1112basic_stringIcSt11char_traitsIcESaIcEEESt6vectorIS7_SaIS7_EEEESC_ET1_T0_SE_SD_, symObjAddr: 0x2E38, symBinAddr: 0x10000650C, symSize: 0x60 }
  - { offsetInCU: 0x99A5, offset: 0x154AD, size: 0x8, addend: 0x0, symName: __ZSt9__find_ifIN9__gnu_cxx17__normal_iteratorIPNSt7__cxx1112basic_stringIcSt11char_traitsIcESaIcEEESt6vectorIS7_SaIS7_EEEENS0_5__ops10_Iter_predIZN15LiteratureEntry11remove_nameERKS7_EUlSH_E_EEET_SK_SK_T0_St26random_access_iterator_tag, symObjAddr: 0x2C88, symBinAddr: 0x10000635C, symSize: 0x19C }
  - { offsetInCU: 0x99AD, offset: 0x154B5, size: 0x8, addend: 0x0, symName: __ZSt12__miter_baseIN9__gnu_cxx17__normal_iteratorIPNSt7__cxx1112basic_stringIcSt11char_traitsIcESaIcEEESt6vectorIS7_SaIS7_EEEEET_SD_, symObjAddr: 0x2E24, symBinAddr: 0x1000064F8, symSize: 0x14 }
  - { offsetInCU: 0x9B7C, offset: 0x15684, size: 0x8, addend: 0x0, symName: __ZSt19__iterator_categoryIN9__gnu_cxx17__normal_iteratorIPNSt7__cxx1112basic_stringIcSt11char_traitsIcESaIcEEESt6vectorIS7_SaIS7_EEEEENSt15iterator_traitsIT_E17iterator_categoryERKSE_, symObjAddr: 0x2C74, symBinAddr: 0x100006348, symSize: 0x14 }
  - { offsetInCU: 0x9B84, offset: 0x1568C, size: 0x8, addend: 0x0, symName: __ZSt9__find_ifIN9__gnu_cxx17__normal_iteratorIPNSt7__cxx1112basic_stringIcSt11char_traitsIcESaIcEEESt6vectorIS7_SaIS7_EEEENS0_5__ops10_Iter_predIZN15LiteratureEntry11remove_nameERKS7_EUlSH_E_EEET_SK_SK_T0_St26random_access_iterator_tag, symObjAddr: 0x2C88, symBinAddr: 0x10000635C, symSize: 0x19C }
  - { offsetInCU: 0x9A86, offset: 0x1558E, size: 0x8, addend: 0x0, symName: __ZN9__gnu_cxx13new_allocatorINSt7__cxx1112basic_stringIcSt11char_traitsIcESaIcEEEE7destroyIS6_EEvPT_, symObjAddr: 0x2C50, symBinAddr: 0x100006324, symSize: 0x24 }
  - { offsetInCU: 0x9A8E, offset: 0x15596, size: 0x8, addend: 0x0, symName: __ZSt19__iterator_categoryIN9__gnu_cxx17__normal_iteratorIPNSt7__cxx1112basic_stringIcSt11char_traitsIcESaIcEEESt6vectorIS7_SaIS7_EEEEENSt15iterator_traitsIT_E17iterator_categoryERKSE_, symObjAddr: 0x2C74, symBinAddr: 0x100006348, symSize: 0x14 }
  - { offsetInCU: 0x9AD5, offset: 0x155DD, size: 0x8, addend: 0x0, symName: __ZNSt6vectorINSt7__cxx1112basic_stringIcSt11char_traitsIcESaIcEEESaIS5_EE14_S_do_relocateEPS5_S8_S8_RS6_St17integral_constantIbLb1EE, symObjAddr: 0x2C18, symBinAddr: 0x1000062EC, symSize: 0x38 }
  - { offsetInCU: 0x9ADD, offset: 0x155E5, size: 0x8, addend: 0x0, symName: __ZN9__gnu_cxx13new_allocatorINSt7__cxx1112basic_stringIcSt11char_traitsIcESaIcEEEE7destroyIS6_EEvPT_, symObjAddr: 0x2C50, symBinAddr: 0x100006324, symSize: 0x24 }
  - { offsetInCU: 0x9B4F, offset: 0x15657, size: 0x8, addend: 0x0, symName: __ZNSt16allocator_traitsISaINSt7__cxx1112basic_stringIcSt11char_traitsIcESaIcEEEEE8allocateERS6_m, symObjAddr: 0x2BF0, symBinAddr: 0x1000062C4, symSize: 0x28 }
  - { offsetInCU: 0x9B57, offset: 0x1565F, size: 0x8, addend: 0x0, symName: __ZNSt6vectorINSt7__cxx1112basic_stringIcSt11char_traitsIcESaIcEEESaIS5_EE14_S_do_relocateEPS5_S8_S8_RS6_St17integral_constantIbLb1EE, symObjAddr: 0x2C18, symBinAddr: 0x1000062EC, symSize: 0x38 }
  - { offsetInCU: 0x9B95, offset: 0x1569D, size: 0x8, addend: 0x0, symName: __ZNKSt6vectorINSt7__cxx1112basic_stringIcSt11char_traitsIcESaIcEEESaIS5_EE8max_sizeEv, symObjAddr: 0x2BD0, symBinAddr: 0x1000062A4, symSize: 0x20 }
  - { offsetInCU: 0x9B9D, offset: 0x156A5, size: 0x8, addend: 0x0, symName: __ZNSt16allocator_traitsISaINSt7__cxx1112basic_stringIcSt11char_traitsIcESaIcEEEEE8allocateERS6_m, symObjAddr: 0x2BF0, symBinAddr: 0x1000062C4, symSize: 0x28 }
  - { offsetInCU: 0x9BC4, offset: 0x156CC, size: 0x8, addend: 0x0, symName: __ZN9__gnu_cxx17__normal_iteratorIPKNSt7__cxx1112basic_stringIcSt11char_traitsIcESaIcEEESt6vectorIS6_SaIS6_EEEppEv, symObjAddr: 0x2BA8, symBinAddr: 0x10000627C, symSize: 0x28 }
  - { offsetInCU: 0x9BCC, offset: 0x156D4, size: 0x8, addend: 0x0, symName: __ZNKSt6vectorINSt7__cxx1112basic_stringIcSt11char_traitsIcESaIcEEESaIS5_EE8max_sizeEv, symObjAddr: 0x2BD0, symBinAddr: 0x1000062A4, symSize: 0x20 }
  - { offsetInCU: 0x9BF3, offset: 0x156FB, size: 0x8, addend: 0x0, symName: __ZN9__gnu_cxx5__ops16_Iter_equals_valIKNSt7__cxx1112basic_stringIcSt11char_traitsIcESaIcEEEEclINS_17__normal_iteratorIPS8_St6vectorIS7_SaIS7_EEEEEEbT_, symObjAddr: 0x2B6C, symBinAddr: 0x100006240, symSize: 0x3C }
  - { offsetInCU: 0x9BFB, offset: 0x15703, size: 0x8, addend: 0x0, symName: __ZN9__gnu_cxx17__normal_iteratorIPKNSt7__cxx1112basic_stringIcSt11char_traitsIcESaIcEEESt6vectorIS6_SaIS6_EEEppEv, symObjAddr: 0x2BA8, symBinAddr: 0x10000627C, symSize: 0x28 }
  - { offsetInCU: 0x9CEB, offset: 0x157F3, size: 0x8, addend: 0x0, symName: __ZSt12__get_helperILm0EPSt6vectorINSt7__cxx1112basic_stringIcSt11char_traitsIcESaIcEEESaIS6_EEJSt14default_deleteIS8_EEERKT0_RKSt11_Tuple_implIXT_EJSC_DpT1_EE, symObjAddr: 0x2B50, symBinAddr: 0x100006224, symSize: 0x1C }
  - { offsetInCU: 0x9CF3, offset: 0x157FB, size: 0x8, addend: 0x0, symName: __ZN9__gnu_cxx5__ops16_Iter_equals_valIKNSt7__cxx1112basic_stringIcSt11char_traitsIcESaIcEEEEclINS_17__normal_iteratorIPS8_St6vectorIS7_SaIS7_EEEEEEbT_, symObjAddr: 0x2B6C, symBinAddr: 0x100006240, symSize: 0x3C }
  - { offsetInCU: 0x9CAC, offset: 0x157B4, size: 0x8, addend: 0x0, symName: __ZNSt12_Destroy_auxILb0EE9__destroyIPNSt7__cxx1112basic_stringIcSt11char_traitsIcESaIcEEEEEvT_S9_, symObjAddr: 0x2B04, symBinAddr: 0x1000061D8, symSize: 0x4C }
  - { offsetInCU: 0x9CB4, offset: 0x157BC, size: 0x8, addend: 0x0, symName: __ZSt12__get_helperILm0EPSt6vectorINSt7__cxx1112basic_stringIcSt11char_traitsIcESaIcEEESaIS6_EEJSt14default_deleteIS8_EEERKT0_RKSt11_Tuple_implIXT_EJSC_DpT1_EE, symObjAddr: 0x2B50, symBinAddr: 0x100006224, symSize: 0x1C }
  - { offsetInCU: 0x9CFD, offset: 0x15805, size: 0x8, addend: 0x0, symName: __ZNSt20__uninitialized_copyILb0EE13__uninit_copyIN9__gnu_cxx17__normal_iteratorIPKNSt7__cxx1112basic_stringIcSt11char_traitsIcESaIcEEESt6vectorIS9_SaIS9_EEEEPS9_EET0_T_SI_SH_, symObjAddr: 0x2A5C, symBinAddr: 0x100006130, symSize: 0xA8 }
  - { offsetInCU: 0x9D05, offset: 0x1580D, size: 0x8, addend: 0x0, symName: __ZNSt12_Destroy_auxILb0EE9__destroyIPNSt7__cxx1112basic_stringIcSt11char_traitsIcESaIcEEEEEvT_S9_, symObjAddr: 0x2B04, symBinAddr: 0x1000061D8, symSize: 0x4C }
  - { offsetInCU: 0x9D81, offset: 0x15889, size: 0x8, addend: 0x0, symName: __ZNSt16allocator_traitsISaINSt7__cxx1112basic_stringIcSt11char_traitsIcESaIcEEEEE10deallocateERS6_PS5_m, symObjAddr: 0x2A2C, symBinAddr: 0x100006100, symSize: 0x30 }
  - { offsetInCU: 0x9D89, offset: 0x15891, size: 0x8, addend: 0x0, symName: __ZNSt20__uninitialized_copyILb0EE13__uninit_copyIN9__gnu_cxx17__normal_iteratorIPKNSt7__cxx1112basic_stringIcSt11char_traitsIcESaIcEEESt6vectorIS9_SaIS9_EEEEPS9_EET0_T_SI_SH_, symObjAddr: 0x2A5C, symBinAddr: 0x100006130, symSize: 0xA8 }
  - { offsetInCU: 0x9E5C, offset: 0x15964, size: 0x8, addend: 0x0, symName: __ZNSt12_Vector_baseINSt7__cxx1112basic_stringIcSt11char_traitsIcESaIcEEESaIS5_EE17_Vector_impl_dataC2Ev, symObjAddr: 0x2A00, symBinAddr: 0x1000060D4, symSize: 0x2C }
  - { offsetInCU: 0x9E64, offset: 0x1596C, size: 0x8, addend: 0x0, symName: __ZNSt16allocator_traitsISaINSt7__cxx1112basic_stringIcSt11char_traitsIcESaIcEEEEE10deallocateERS6_PS5_m, symObjAddr: 0x2A2C, symBinAddr: 0x100006100, symSize: 0x30 }
  - { offsetInCU: 0x9E90, offset: 0x15998, size: 0x8, addend: 0x0, symName: __ZNSaINSt7__cxx1112basic_stringIcSt11char_traitsIcESaIcEEEEC1ERKS5_, symObjAddr: 0x29D8, symBinAddr: 0x1000060AC, symSize: 0x28 }
  - { offsetInCU: 0x9E98, offset: 0x159A0, size: 0x8, addend: 0x0, symName: __ZNSt12_Vector_baseINSt7__cxx1112basic_stringIcSt11char_traitsIcESaIcEEESaIS5_EE17_Vector_impl_dataC2Ev, symObjAddr: 0x2A00, symBinAddr: 0x1000060D4, symSize: 0x2C }
  - { offsetInCU: 0x9ECA, offset: 0x159D2, size: 0x8, addend: 0x0, symName: __ZNSaINSt7__cxx1112basic_stringIcSt11char_traitsIcESaIcEEEEC2ERKS5_, symObjAddr: 0x29B0, symBinAddr: 0x100006084, symSize: 0x28 }
  - { offsetInCU: 0x9ED2, offset: 0x159DA, size: 0x8, addend: 0x0, symName: __ZNSaINSt7__cxx1112basic_stringIcSt11char_traitsIcESaIcEEEEC1ERKS5_, symObjAddr: 0x29D8, symBinAddr: 0x1000060AC, symSize: 0x28 }
  - { offsetInCU: 0x9FB5, offset: 0x15ABD, size: 0x8, addend: 0x0, symName: __ZSt12__get_helperILm1ESt14default_deleteISt6vectorINSt7__cxx1112basic_stringIcSt11char_traitsIcESaIcEEESaIS7_EEEJEERT0_RSt11_Tuple_implIXT_EJSB_DpT1_EE, symObjAddr: 0x2994, symBinAddr: 0x100006068, symSize: 0x1C }
  - { offsetInCU: 0x9FBD, offset: 0x15AC5, size: 0x8, addend: 0x0, symName: __ZNSaINSt7__cxx1112basic_stringIcSt11char_traitsIcESaIcEEEEC2ERKS5_, symObjAddr: 0x29B0, symBinAddr: 0x100006084, symSize: 0x28 }
  - { offsetInCU: 0x9FC5, offset: 0x15ACD, size: 0x8, addend: 0x0, symName: __ZSt12__get_helperILm0EPSt6vectorINSt7__cxx1112basic_stringIcSt11char_traitsIcESaIcEEESaIS6_EEJSt14default_deleteIS8_EEERT0_RSt11_Tuple_implIXT_EJSC_DpT1_EE, symObjAddr: 0x2978, symBinAddr: 0x10000604C, symSize: 0x1C }
  - { offsetInCU: 0x9FCD, offset: 0x15AD5, size: 0x8, addend: 0x0, symName: __ZSt12__get_helperILm1ESt14default_deleteISt6vectorINSt7__cxx1112basic_stringIcSt11char_traitsIcESaIcEEESaIS7_EEEJEERT0_RSt11_Tuple_implIXT_EJSB_DpT1_EE, symObjAddr: 0x2994, symBinAddr: 0x100006068, symSize: 0x1C }
  - { offsetInCU: 0xA01B, offset: 0x15B23, size: 0x8, addend: 0x0, symName: __ZNSt10_Head_baseILm1ESt14default_deleteISt6vectorINSt7__cxx1112basic_stringIcSt11char_traitsIcESaIcEEESaIS7_EEELb1EEC2Ev, symObjAddr: 0x2964, symBinAddr: 0x100006038, symSize: 0x14 }
  - { offsetInCU: 0xA023, offset: 0x15B2B, size: 0x8, addend: 0x0, symName: __ZSt12__get_helperILm0EPSt6vectorINSt7__cxx1112basic_stringIcSt11char_traitsIcESaIcEEESaIS6_EEJSt14default_deleteIS8_EEERT0_RSt11_Tuple_implIXT_EJSC_DpT1_EE, symObjAddr: 0x2978, symBinAddr: 0x10000604C, symSize: 0x1C }
  - { offsetInCU: 0x9FCF, offset: 0x15AD7, size: 0x8, addend: 0x0, symName: __ZNSt6vectorINSt7__cxx1112basic_stringIcSt11char_traitsIcESaIcEEESaIS5_EE15_M_erase_at_endEPS5_, symObjAddr: 0x28F0, symBinAddr: 0x100005FC4, symSize: 0x74 }
  - { offsetInCU: 0x9FD7, offset: 0x15ADF, size: 0x8, addend: 0x0, symName: __ZNSt10_Head_baseILm1ESt14default_deleteISt6vectorINSt7__cxx1112basic_stringIcSt11char_traitsIcESaIcEEESaIS7_EEELb1EEC2Ev, symObjAddr: 0x2964, symBinAddr: 0x100006038, symSize: 0x14 }
  - { offsetInCU: 0xA1AC, offset: 0x15CB4, size: 0x8, addend: 0x0, symName: __ZSt4moveIN9__gnu_cxx17__normal_iteratorIPNSt7__cxx1112basic_stringIcSt11char_traitsIcESaIcEEESt6vectorIS7_SaIS7_EEEESC_ET0_T_SE_SD_, symObjAddr: 0x28A8, symBinAddr: 0x100005F7C, symSize: 0x48 }
  - { offsetInCU: 0xA1B4, offset: 0x15CBC, size: 0x8, addend: 0x0, symName: __ZNSt6vectorINSt7__cxx1112basic_stringIcSt11char_traitsIcESaIcEEESaIS5_EE15_M_erase_at_endEPS5_, symObjAddr: 0x28F0, symBinAddr: 0x100005FC4, symSize: 0x74 }
  - { offsetInCU: 0xA0B9, offset: 0x15BC1, size: 0x8, addend: 0x0, symName: __ZN9__gnu_cxx5__ops10_Iter_predIZN15LiteratureEntry11remove_nameERKNSt7__cxx1112basic_stringIcSt11char_traitsIcESaIcEEEEUlSA_E_EclINS_17__normal_iteratorIPS8_St6vectorIS8_SaIS8_EEEEEEbT_, symObjAddr: 0x286C, symBinAddr: 0x100005F40, symSize: 0x3C }
  - { offsetInCU: 0xA0C1, offset: 0x15BC9, size: 0x8, addend: 0x0, symName: __ZSt4moveIN9__gnu_cxx17__normal_iteratorIPNSt7__cxx1112basic_stringIcSt11char_traitsIcESaIcEEESt6vectorIS7_SaIS7_EEEESC_ET0_T_SE_SD_, symObjAddr: 0x28A8, symBinAddr: 0x100005F7C, symSize: 0x48 }
  - { offsetInCU: 0xA1EE, offset: 0x15CF6, size: 0x8, addend: 0x0, symName: __ZN9__gnu_cxxeqIPNSt7__cxx1112basic_stringIcSt11char_traitsIcESaIcEEESt6vectorIS6_SaIS6_EEEEbRKNS_17__normal_iteratorIT_T0_EESG_, symObjAddr: 0x2828, symBinAddr: 0x100005EFC, symSize: 0x44 }
  - { offsetInCU: 0xA1F6, offset: 0x15CFE, size: 0x8, addend: 0x0, symName: __ZN9__gnu_cxx5__ops10_Iter_predIZN15LiteratureEntry11remove_nameERKNSt7__cxx1112basic_stringIcSt11char_traitsIcESaIcEEEEUlSA_E_EclINS_17__normal_iteratorIPS8_St6vectorIS8_SaIS8_EEEEEEbT_, symObjAddr: 0x286C, symBinAddr: 0x100005F40, symSize: 0x3C }
  - { offsetInCU: 0xA17F, offset: 0x15C87, size: 0x8, addend: 0x0, symName: __ZSt9__find_ifIN9__gnu_cxx17__normal_iteratorIPNSt7__cxx1112basic_stringIcSt11char_traitsIcESaIcEEESt6vectorIS7_SaIS7_EEEENS0_5__ops10_Iter_predIZN15LiteratureEntry11remove_nameERKS7_EUlSH_E_EEET_SK_SK_T0_, symObjAddr: 0x27E8, symBinAddr: 0x100005EBC, symSize: 0x40 }
  - { offsetInCU: 0xA187, offset: 0x15C8F, size: 0x8, addend: 0x0, symName: __ZN9__gnu_cxxeqIPNSt7__cxx1112basic_stringIcSt11char_traitsIcESaIcEEESt6vectorIS6_SaIS6_EEEEbRKNS_17__normal_iteratorIT_T0_EESG_, symObjAddr: 0x2828, symBinAddr: 0x100005EFC, symSize: 0x44 }
  - { offsetInCU: 0xA21E, offset: 0x15D26, size: 0x8, addend: 0x0, symName: __ZN9__gnu_cxx5__ops10_Iter_predIZN15LiteratureEntry11remove_nameERKNSt7__cxx1112basic_stringIcSt11char_traitsIcESaIcEEEEUlSA_E_EC1ESB_, symObjAddr: 0x27B4, symBinAddr: 0x100005E88, symSize: 0x34 }
  - { offsetInCU: 0xA226, offset: 0x15D2E, size: 0x8, addend: 0x0, symName: __ZSt9__find_ifIN9__gnu_cxx17__normal_iteratorIPNSt7__cxx1112basic_stringIcSt11char_traitsIcESaIcEEESt6vectorIS7_SaIS7_EEEENS0_5__ops10_Iter_predIZN15LiteratureEntry11remove_nameERKS7_EUlSH_E_EEET_SK_SK_T0_, symObjAddr: 0x27E8, symBinAddr: 0x100005EBC, symSize: 0x40 }
  - { offsetInCU: 0xA2A4, offset: 0x15DAC, size: 0x8, addend: 0x0, symName: __ZSt4moveIRZN15LiteratureEntry11remove_nameERKNSt7__cxx1112basic_stringIcSt11char_traitsIcESaIcEEEEUlS8_E_EONSt16remove_referenceIT_E4typeEOSC_, symObjAddr: 0x27A0, symBinAddr: 0x100005E74, symSize: 0x14 }
  - { offsetInCU: 0xA2AC, offset: 0x15DB4, size: 0x8, addend: 0x0, symName: __ZN9__gnu_cxx5__ops10_Iter_predIZN15LiteratureEntry11remove_nameERKNSt7__cxx1112basic_stringIcSt11char_traitsIcESaIcEEEEUlSA_E_EC1ESB_, symObjAddr: 0x27B4, symBinAddr: 0x100005E88, symSize: 0x34 }
  - { offsetInCU: 0xA2AE, offset: 0x15DB6, size: 0x8, addend: 0x0, symName: __ZNSt16allocator_traitsISaINSt7__cxx1112basic_stringIcSt11char_traitsIcESaIcEEEEE7destroyIS5_EEvRS6_PT_, symObjAddr: 0x2778, symBinAddr: 0x100005E4C, symSize: 0x28 }
  - { offsetInCU: 0xA2B6, offset: 0x15DBE, size: 0x8, addend: 0x0, symName: __ZSt4moveIRZN15LiteratureEntry11remove_nameERKNSt7__cxx1112basic_stringIcSt11char_traitsIcESaIcEEEEUlS8_E_EONSt16remove_referenceIT_E4typeEOSC_, symObjAddr: 0x27A0, symBinAddr: 0x100005E74, symSize: 0x14 }
  - { offsetInCU: 0xA301, offset: 0x15E09, size: 0x8, addend: 0x0, symName: __ZNSt6vectorINSt7__cxx1112basic_stringIcSt11char_traitsIcESaIcEEESaIS5_EE11_S_relocateEPS5_S8_S8_RS6_, symObjAddr: 0x2744, symBinAddr: 0x100005E18, symSize: 0x34 }
  - { offsetInCU: 0xA309, offset: 0x15E11, size: 0x8, addend: 0x0, symName: __ZNSt16allocator_traitsISaINSt7__cxx1112basic_stringIcSt11char_traitsIcESaIcEEEEE7destroyIS5_EEvRS6_PT_, symObjAddr: 0x2778, symBinAddr: 0x100005E4C, symSize: 0x28 }
  - { offsetInCU: 0xA36F, offset: 0x15E77, size: 0x8, addend: 0x0, symName: __ZNSt12_Vector_baseINSt7__cxx1112basic_stringIcSt11char_traitsIcESaIcEEESaIS5_EE11_M_allocateEm, symObjAddr: 0x270C, symBinAddr: 0x100005DE0, symSize: 0x38 }
  - { offsetInCU: 0xA377, offset: 0x15E7F, size: 0x8, addend: 0x0, symName: __ZNSt6vectorINSt7__cxx1112basic_stringIcSt11char_traitsIcESaIcEEESaIS5_EE11_S_relocateEPS5_S8_S8_RS6_, symObjAddr: 0x2744, symBinAddr: 0x100005E18, symSize: 0x34 }
  - { offsetInCU: 0xA4A9, offset: 0x15FB1, size: 0x8, addend: 0x0, symName: __ZN9__gnu_cxxmiIPNSt7__cxx1112basic_stringIcSt11char_traitsIcESaIcEEESt6vectorIS6_SaIS6_EEEENS_17__normal_iteratorIT_T0_E15difference_typeERKSE_SH_, symObjAddr: 0x26CC, symBinAddr: 0x100005DA0, symSize: 0x40 }
  - { offsetInCU: 0xA4B1, offset: 0x15FB9, size: 0x8, addend: 0x0, symName: __ZNSt12_Vector_baseINSt7__cxx1112basic_stringIcSt11char_traitsIcESaIcEEESaIS5_EE11_M_allocateEm, symObjAddr: 0x270C, symBinAddr: 0x100005DE0, symSize: 0x38 }
  - { offsetInCU: 0xA41F, offset: 0x15F27, size: 0x8, addend: 0x0, symName: __ZNKSt6vectorINSt7__cxx1112basic_stringIcSt11char_traitsIcESaIcEEESaIS5_EE12_M_check_lenEmPKc, symObjAddr: 0x2600, symBinAddr: 0x100005CD4, symSize: 0xCC }
  - { offsetInCU: 0xA427, offset: 0x15F2F, size: 0x8, addend: 0x0, symName: __ZN9__gnu_cxxmiIPNSt7__cxx1112basic_stringIcSt11char_traitsIcESaIcEEESt6vectorIS6_SaIS6_EEEENS_17__normal_iteratorIT_T0_E15difference_typeERKSE_SH_, symObjAddr: 0x26CC, symBinAddr: 0x100005DA0, symSize: 0x40 }
  - { offsetInCU: 0xA48A, offset: 0x15F92, size: 0x8, addend: 0x0, symName: __ZN9__gnu_cxx13new_allocatorINSt7__cxx1112basic_stringIcSt11char_traitsIcESaIcEEEE9constructIS6_JRKS6_EEEvPT_DpOT0_, symObjAddr: 0x258C, symBinAddr: 0x100005C60, symSize: 0x74 }
  - { offsetInCU: 0xA492, offset: 0x15F9A, size: 0x8, addend: 0x0, symName: __ZNKSt6vectorINSt7__cxx1112basic_stringIcSt11char_traitsIcESaIcEEESaIS5_EE12_M_check_lenEmPKc, symObjAddr: 0x2600, symBinAddr: 0x100005CD4, symSize: 0xCC }
  - { offsetInCU: 0xA597, offset: 0x1609F, size: 0x8, addend: 0x0, symName: __ZSt7forwardIRKNSt7__cxx1112basic_stringIcSt11char_traitsIcESaIcEEEEOT_RNSt16remove_referenceIS8_E4typeE, symObjAddr: 0x2578, symBinAddr: 0x100005C4C, symSize: 0x14 }
  - { offsetInCU: 0xA59F, offset: 0x160A7, size: 0x8, addend: 0x0, symName: __ZN9__gnu_cxx13new_allocatorINSt7__cxx1112basic_stringIcSt11char_traitsIcESaIcEEEE9constructIS6_JRKS6_EEEvPT_DpOT0_, symObjAddr: 0x258C, symBinAddr: 0x100005C60, symSize: 0x74 }
  - { offsetInCU: 0xA61E, offset: 0x16126, size: 0x8, addend: 0x0, symName: __ZSt9__find_ifIN9__gnu_cxx17__normal_iteratorIPKNSt7__cxx1112basic_stringIcSt11char_traitsIcESaIcEEESt6vectorIS7_SaIS7_EEEENS0_5__ops16_Iter_equals_valIS8_EEET_SH_SH_T0_St26random_access_iterator_tag, symObjAddr: 0x23DC, symBinAddr: 0x100005AB0, symSize: 0x19C }
  - { offsetInCU: 0xA626, offset: 0x1612E, size: 0x8, addend: 0x0, symName: __ZSt7forwardIRKNSt7__cxx1112basic_stringIcSt11char_traitsIcESaIcEEEEOT_RNSt16remove_referenceIS8_E4typeE, symObjAddr: 0x2578, symBinAddr: 0x100005C4C, symSize: 0x14 }
  - { offsetInCU: 0xA738, offset: 0x16240, size: 0x8, addend: 0x0, symName: __ZSt19__iterator_categoryIN9__gnu_cxx17__normal_iteratorIPKNSt7__cxx1112basic_stringIcSt11char_traitsIcESaIcEEESt6vectorIS7_SaIS7_EEEEENSt15iterator_traitsIT_E17iterator_categoryERKSF_, symObjAddr: 0x23C8, symBinAddr: 0x100005A9C, symSize: 0x14 }
  - { offsetInCU: 0xA740, offset: 0x16248, size: 0x8, addend: 0x0, symName: __ZSt9__find_ifIN9__gnu_cxx17__normal_iteratorIPKNSt7__cxx1112basic_stringIcSt11char_traitsIcESaIcEEESt6vectorIS7_SaIS7_EEEENS0_5__ops16_Iter_equals_valIS8_EEET_SH_SH_T0_St26random_access_iterator_tag, symObjAddr: 0x23DC, symBinAddr: 0x100005AB0, symSize: 0x19C }
  - { offsetInCU: 0xA6C9, offset: 0x161D1, size: 0x8, addend: 0x0, symName: __ZN9__gnu_cxx5__ops16_Iter_equals_valIKNSt7__cxx1112basic_stringIcSt11char_traitsIcESaIcEEEEC1ERS8_, symObjAddr: 0x23A4, symBinAddr: 0x100005A78, symSize: 0x24 }
  - { offsetInCU: 0xA6D1, offset: 0x161D9, size: 0x8, addend: 0x0, symName: __ZSt19__iterator_categoryIN9__gnu_cxx17__normal_iteratorIPKNSt7__cxx1112basic_stringIcSt11char_traitsIcESaIcEEESt6vectorIS7_SaIS7_EEEEENSt15iterator_traitsIT_E17iterator_categoryERKSF_, symObjAddr: 0x23C8, symBinAddr: 0x100005A9C, symSize: 0x14 }
  - { offsetInCU: 0xA766, offset: 0x1626E, size: 0x8, addend: 0x0, symName: __ZSt3getILm0EJPSt6vectorINSt7__cxx1112basic_stringIcSt11char_traitsIcESaIcEEESaIS6_EESt14default_deleteIS8_EEERKNSt13tuple_elementIXT_ESt5tupleIJDpT0_EEE4typeERKSG_, symObjAddr: 0x2388, symBinAddr: 0x100005A5C, symSize: 0x1C }
  - { offsetInCU: 0xA76E, offset: 0x16276, size: 0x8, addend: 0x0, symName: __ZN9__gnu_cxx5__ops16_Iter_equals_valIKNSt7__cxx1112basic_stringIcSt11char_traitsIcESaIcEEEEC1ERS8_, symObjAddr: 0x23A4, symBinAddr: 0x100005A78, symSize: 0x24 }
  - { offsetInCU: 0xA79E, offset: 0x162A6, size: 0x8, addend: 0x0, symName: __ZSt8_DestroyIPNSt7__cxx1112basic_stringIcSt11char_traitsIcESaIcEEEEvT_S7_, symObjAddr: 0x2360, symBinAddr: 0x100005A34, symSize: 0x28 }
  - { offsetInCU: 0xA7A6, offset: 0x162AE, size: 0x8, addend: 0x0, symName: __ZSt3getILm0EJPSt6vectorINSt7__cxx1112basic_stringIcSt11char_traitsIcESaIcEEESaIS6_EESt14default_deleteIS8_EEERKNSt13tuple_elementIXT_ESt5tupleIJDpT0_EEE4typeERKSG_, symObjAddr: 0x2388, symBinAddr: 0x100005A5C, symSize: 0x1C }
  - { offsetInCU: 0xA8C4, offset: 0x163CC, size: 0x8, addend: 0x0, symName: __ZSt18uninitialized_copyIN9__gnu_cxx17__normal_iteratorIPKNSt7__cxx1112basic_stringIcSt11char_traitsIcESaIcEEESt6vectorIS7_SaIS7_EEEEPS7_ET0_T_SG_SF_, symObjAddr: 0x232C, symBinAddr: 0x100005A00, symSize: 0x34 }
  - { offsetInCU: 0xA8CC, offset: 0x163D4, size: 0x8, addend: 0x0, symName: __ZSt8_DestroyIPNSt7__cxx1112basic_stringIcSt11char_traitsIcESaIcEEEEvT_S7_, symObjAddr: 0x2360, symBinAddr: 0x100005A34, symSize: 0x28 }
  - { offsetInCU: 0xA80C, offset: 0x16314, size: 0x8, addend: 0x0, symName: __ZNSt12_Vector_baseINSt7__cxx1112basic_stringIcSt11char_traitsIcESaIcEEESaIS5_EE13_M_deallocateEPS5_m, symObjAddr: 0x22F0, symBinAddr: 0x1000059C4, symSize: 0x3C }
  - { offsetInCU: 0xA814, offset: 0x1631C, size: 0x8, addend: 0x0, symName: __ZSt18uninitialized_copyIN9__gnu_cxx17__normal_iteratorIPKNSt7__cxx1112basic_stringIcSt11char_traitsIcESaIcEEESt6vectorIS7_SaIS7_EEEEPS7_ET0_T_SG_SF_, symObjAddr: 0x232C, symBinAddr: 0x100005A00, symSize: 0x34 }
  - { offsetInCU: 0xA863, offset: 0x1636B, size: 0x8, addend: 0x0, symName: __ZNSt12_Vector_baseINSt7__cxx1112basic_stringIcSt11char_traitsIcESaIcEEESaIS5_EE17_M_create_storageEm, symObjAddr: 0x2290, symBinAddr: 0x100005964, symSize: 0x60 }
  - { offsetInCU: 0xA86B, offset: 0x16373, size: 0x8, addend: 0x0, symName: __ZNSt12_Vector_baseINSt7__cxx1112basic_stringIcSt11char_traitsIcESaIcEEESaIS5_EE13_M_deallocateEPS5_m, symObjAddr: 0x22F0, symBinAddr: 0x1000059C4, symSize: 0x3C }
  - { offsetInCU: 0xA937, offset: 0x1643F, size: 0x8, addend: 0x0, symName: __ZNSt12_Vector_baseINSt7__cxx1112basic_stringIcSt11char_traitsIcESaIcEEESaIS5_EE12_Vector_implC1ERKS6_, symObjAddr: 0x2260, symBinAddr: 0x100005934, symSize: 0x30 }
  - { offsetInCU: 0xA93F, offset: 0x16447, size: 0x8, addend: 0x0, symName: __ZNSt12_Vector_baseINSt7__cxx1112basic_stringIcSt11char_traitsIcESaIcEEESaIS5_EE17_M_create_storageEm, symObjAddr: 0x2290, symBinAddr: 0x100005964, symSize: 0x60 }
  - { offsetInCU: 0xA988, offset: 0x16490, size: 0x8, addend: 0x0, symName: __ZN9__gnu_cxx13new_allocatorINSt7__cxx1112basic_stringIcSt11char_traitsIcESaIcEEEED2Ev, symObjAddr: 0x224C, symBinAddr: 0x100005920, symSize: 0x14 }
  - { offsetInCU: 0xA990, offset: 0x16498, size: 0x8, addend: 0x0, symName: __ZNSt12_Vector_baseINSt7__cxx1112basic_stringIcSt11char_traitsIcESaIcEEESaIS5_EE12_Vector_implC1ERKS6_, symObjAddr: 0x2260, symBinAddr: 0x100005934, symSize: 0x30 }
  - { offsetInCU: 0xA95F, offset: 0x16467, size: 0x8, addend: 0x0, symName: __ZNSt16allocator_traitsISaINSt7__cxx1112basic_stringIcSt11char_traitsIcESaIcEEEEE37select_on_container_copy_constructionERKS6_, symObjAddr: 0x221C, symBinAddr: 0x1000058F0, symSize: 0x30 }
  - { offsetInCU: 0xA967, offset: 0x1646F, size: 0x8, addend: 0x0, symName: __ZN9__gnu_cxx13new_allocatorINSt7__cxx1112basic_stringIcSt11char_traitsIcESaIcEEEED2Ev, symObjAddr: 0x224C, symBinAddr: 0x100005920, symSize: 0x14 }
  - { offsetInCU: 0xABEA, offset: 0x166F2, size: 0x8, addend: 0x0, symName: __ZSt3getILm1EJPSt6vectorINSt7__cxx1112basic_stringIcSt11char_traitsIcESaIcEEESaIS6_EESt14default_deleteIS8_EEERNSt13tuple_elementIXT_ESt5tupleIJDpT0_EEE4typeERSG_, symObjAddr: 0x2200, symBinAddr: 0x1000058D4, symSize: 0x1C }
  - { offsetInCU: 0xABF2, offset: 0x166FA, size: 0x8, addend: 0x0, symName: __ZNSt16allocator_traitsISaINSt7__cxx1112basic_stringIcSt11char_traitsIcESaIcEEEEE37select_on_container_copy_constructionERKS6_, symObjAddr: 0x221C, symBinAddr: 0x1000058F0, symSize: 0x30 }
  - { offsetInCU: 0xAAB7, offset: 0x165BF, size: 0x8, addend: 0x0, symName: __ZNSt15__uniq_ptr_implISt6vectorINSt7__cxx1112basic_stringIcSt11char_traitsIcESaIcEEESaIS6_EESt14default_deleteIS8_EEC2EPS8_, symObjAddr: 0x21C4, symBinAddr: 0x100005898, symSize: 0x3C }
  - { offsetInCU: 0xAABF, offset: 0x165C7, size: 0x8, addend: 0x0, symName: __ZSt3getILm1EJPSt6vectorINSt7__cxx1112basic_stringIcSt11char_traitsIcESaIcEEESaIS6_EESt14default_deleteIS8_EEERNSt13tuple_elementIXT_ESt5tupleIJDpT0_EEE4typeERSG_, symObjAddr: 0x2200, symBinAddr: 0x1000058D4, symSize: 0x1C }
  - { offsetInCU: 0xAB20, offset: 0x16628, size: 0x8, addend: 0x0, symName: __ZSt3getILm0EJPSt6vectorINSt7__cxx1112basic_stringIcSt11char_traitsIcESaIcEEESaIS6_EESt14default_deleteIS8_EEERNSt13tuple_elementIXT_ESt5tupleIJDpT0_EEE4typeERSG_, symObjAddr: 0x21A8, symBinAddr: 0x10000587C, symSize: 0x1C }
  - { offsetInCU: 0xAB28, offset: 0x16630, size: 0x8, addend: 0x0, symName: __ZNSt15__uniq_ptr_implISt6vectorINSt7__cxx1112basic_stringIcSt11char_traitsIcESaIcEEESaIS6_EESt14default_deleteIS8_EEC2EPS8_, symObjAddr: 0x21C4, symBinAddr: 0x100005898, symSize: 0x3C }
  - { offsetInCU: 0xAB63, offset: 0x1666B, size: 0x8, addend: 0x0, symName: __ZNSt10_Head_baseILm0EPSt6vectorINSt7__cxx1112basic_stringIcSt11char_traitsIcESaIcEEESaIS6_EELb0EEC2Ev, symObjAddr: 0x218C, symBinAddr: 0x100005860, symSize: 0x1C }
  - { offsetInCU: 0xAB6B, offset: 0x16673, size: 0x8, addend: 0x0, symName: __ZSt3getILm0EJPSt6vectorINSt7__cxx1112basic_stringIcSt11char_traitsIcESaIcEEESaIS6_EESt14default_deleteIS8_EEERNSt13tuple_elementIXT_ESt5tupleIJDpT0_EEE4typeERSG_, symObjAddr: 0x21A8, symBinAddr: 0x10000587C, symSize: 0x1C }
  - { offsetInCU: 0xABBC, offset: 0x166C4, size: 0x8, addend: 0x0, symName: __ZNSt11_Tuple_implILm1EJSt14default_deleteISt6vectorINSt7__cxx1112basic_stringIcSt11char_traitsIcESaIcEEESaIS7_EEEEEC2Ev, symObjAddr: 0x216C, symBinAddr: 0x100005840, symSize: 0x20 }
  - { offsetInCU: 0xABC4, offset: 0x166CC, size: 0x8, addend: 0x0, symName: __ZNSt10_Head_baseILm0EPSt6vectorINSt7__cxx1112basic_stringIcSt11char_traitsIcESaIcEEESaIS6_EELb0EEC2Ev, symObjAddr: 0x218C, symBinAddr: 0x100005860, symSize: 0x1C }
  - { offsetInCU: 0xAB71, offset: 0x16679, size: 0x8, addend: 0x0, symName: __ZNSt6vectorINSt7__cxx1112basic_stringIcSt11char_traitsIcESaIcEEESaIS5_EE8_M_eraseEN9__gnu_cxx17__normal_iteratorIPS5_S7_EESB_, symObjAddr: 0x2060, symBinAddr: 0x10000578C, symSize: 0xB4 }
  - { offsetInCU: 0xABC6, offset: 0x166CE, size: 0x8, addend: 0x0, symName: __ZNK9__gnu_cxx17__normal_iteratorIPNSt7__cxx1112basic_stringIcSt11char_traitsIcESaIcEEESt6vectorIS6_SaIS6_EEEplEl, symObjAddr: 0x2020, symBinAddr: 0x10000574C, symSize: 0x40 }
  - { offsetInCU: 0xABCE, offset: 0x166D6, size: 0x8, addend: 0x0, symName: __ZNSt6vectorINSt7__cxx1112basic_stringIcSt11char_traitsIcESaIcEEESaIS5_EE8_M_eraseEN9__gnu_cxx17__normal_iteratorIPS5_S7_EESB_, symObjAddr: 0x2060, symBinAddr: 0x10000578C, symSize: 0xB4 }
  - { offsetInCU: 0xAD07, offset: 0x1680F, size: 0x8, addend: 0x0, symName: __ZN9__gnu_cxxmiIPKNSt7__cxx1112basic_stringIcSt11char_traitsIcESaIcEEESt6vectorIS6_SaIS6_EEEENS_17__normal_iteratorIT_T0_E15difference_typeERKSF_SI_, symObjAddr: 0x1FE0, symBinAddr: 0x10000570C, symSize: 0x40 }
  - { offsetInCU: 0xAD0F, offset: 0x16817, size: 0x8, addend: 0x0, symName: __ZNK9__gnu_cxx17__normal_iteratorIPNSt7__cxx1112basic_stringIcSt11char_traitsIcESaIcEEESt6vectorIS6_SaIS6_EEEplEl, symObjAddr: 0x2020, symBinAddr: 0x10000574C, symSize: 0x40 }
  - { offsetInCU: 0xAC76, offset: 0x1677E, size: 0x8, addend: 0x0, symName: __ZNKSt6vectorINSt7__cxx1112basic_stringIcSt11char_traitsIcESaIcEEESaIS5_EE6cbeginEv, symObjAddr: 0x1FBC, symBinAddr: 0x1000056E8, symSize: 0x24 }
  - { offsetInCU: 0xAC7E, offset: 0x16786, size: 0x8, addend: 0x0, symName: __ZN9__gnu_cxxmiIPKNSt7__cxx1112basic_stringIcSt11char_traitsIcESaIcEEESt6vectorIS6_SaIS6_EEEENS_17__normal_iteratorIT_T0_E15difference_typeERKSF_SI_, symObjAddr: 0x1FE0, symBinAddr: 0x10000570C, symSize: 0x40 }
  - { offsetInCU: 0xACA5, offset: 0x167AD, size: 0x8, addend: 0x0, symName: __ZNK9__gnu_cxx17__normal_iteratorIPNSt7__cxx1112basic_stringIcSt11char_traitsIcESaIcEEESt6vectorIS6_SaIS6_EEE4baseEv, symObjAddr: 0x1FA8, symBinAddr: 0x1000056D4, symSize: 0x14 }
  - { offsetInCU: 0xACAD, offset: 0x167B5, size: 0x8, addend: 0x0, symName: __ZNKSt6vectorINSt7__cxx1112basic_stringIcSt11char_traitsIcESaIcEEESaIS5_EE6cbeginEv, symObjAddr: 0x1FBC, symBinAddr: 0x1000056E8, symSize: 0x24 }
  - { offsetInCU: 0xADBC, offset: 0x168C4, size: 0x8, addend: 0x0, symName: __ZSt11__remove_ifIN9__gnu_cxx17__normal_iteratorIPNSt7__cxx1112basic_stringIcSt11char_traitsIcESaIcEEESt6vectorIS7_SaIS7_EEEENS0_5__ops10_Iter_predIZN15LiteratureEntry11remove_nameERKS7_EUlSH_E_EEET_SK_SK_T0_, symObjAddr: 0x1ED0, symBinAddr: 0x1000055FC, symSize: 0xD8 }
  - { offsetInCU: 0xADC4, offset: 0x168CC, size: 0x8, addend: 0x0, symName: __ZNK9__gnu_cxx17__normal_iteratorIPNSt7__cxx1112basic_stringIcSt11char_traitsIcESaIcEEESt6vectorIS6_SaIS6_EEE4baseEv, symObjAddr: 0x1FA8, symBinAddr: 0x1000056D4, symSize: 0x14 }
  - { offsetInCU: 0xADBC, offset: 0x168C4, size: 0x8, addend: 0x0, symName: __ZN9__gnu_cxx5__ops11__pred_iterIZN15LiteratureEntry11remove_nameERKNSt7__cxx1112basic_stringIcSt11char_traitsIcESaIcEEEEUlSA_E_EENS0_10_Iter_predIT_EESD_, symObjAddr: 0x1EA0, symBinAddr: 0x1000055CC, symSize: 0x30 }
  - { offsetInCU: 0xADC4, offset: 0x168CC, size: 0x8, addend: 0x0, symName: __ZSt11__remove_ifIN9__gnu_cxx17__normal_iteratorIPNSt7__cxx1112basic_stringIcSt11char_traitsIcESaIcEEESt6vectorIS7_SaIS7_EEEENS0_5__ops10_Iter_predIZN15LiteratureEntry11remove_nameERKS7_EUlSH_E_EEET_SK_SK_T0_, symObjAddr: 0x1ED0, symBinAddr: 0x1000055FC, symSize: 0xD8 }
  - { offsetInCU: 0xAE4C, offset: 0x16954, size: 0x8, addend: 0x0, symName: __ZN9__gnu_cxx17__normal_iteratorIPNSt7__cxx1112basic_stringIcSt11char_traitsIcESaIcEEESt6vectorIS6_SaIS6_EEEC1ERKS7_, symObjAddr: 0x1E78, symBinAddr: 0x1000055A4, symSize: 0x28 }
  - { offsetInCU: 0xAE54, offset: 0x1695C, size: 0x8, addend: 0x0, symName: __ZN9__gnu_cxx5__ops11__pred_iterIZN15LiteratureEntry11remove_nameERKNSt7__cxx1112basic_stringIcSt11char_traitsIcESaIcEEEEUlSA_E_EENS0_10_Iter_predIT_EESD_, symObjAddr: 0x1EA0, symBinAddr: 0x1000055CC, symSize: 0x30 }
  - { offsetInCU: 0xAE11, offset: 0x16919, size: 0x8, addend: 0x0, symName: __ZNSt6vectorINSt7__cxx1112basic_stringIcSt11char_traitsIcESaIcEEESaIS5_EE17_M_realloc_insertIJRKS5_EEEvN9__gnu_cxx17__normal_iteratorIPS5_S7_EEDpOT_, symObjAddr: 0x1C90, symBinAddr: 0x1000053BC, symSize: 0x1E8 }
  - { offsetInCU: 0xAE19, offset: 0x16921, size: 0x8, addend: 0x0, symName: __ZN9__gnu_cxx17__normal_iteratorIPNSt7__cxx1112basic_stringIcSt11char_traitsIcESaIcEEESt6vectorIS6_SaIS6_EEEC1ERKS7_, symObjAddr: 0x1E78, symBinAddr: 0x1000055A4, symSize: 0x28 }
  - { offsetInCU: 0xAEF0, offset: 0x169F8, size: 0x8, addend: 0x0, symName: __ZNSt16allocator_traitsISaINSt7__cxx1112basic_stringIcSt11char_traitsIcESaIcEEEEE9constructIS5_JRKS5_EEEvRS6_PT_DpOT0_, symObjAddr: 0x1C58, symBinAddr: 0x100005384, symSize: 0x38 }
  - { offsetInCU: 0xAEF8, offset: 0x16A00, size: 0x8, addend: 0x0, symName: __ZNSt6vectorINSt7__cxx1112basic_stringIcSt11char_traitsIcESaIcEEESaIS5_EE17_M_realloc_insertIJRKS5_EEEvN9__gnu_cxx17__normal_iteratorIPS5_S7_EEDpOT_, symObjAddr: 0x1C90, symBinAddr: 0x1000053BC, symSize: 0x1E8 }
  - { offsetInCU: 0xAF64, offset: 0x16A6C, size: 0x8, addend: 0x0, symName: __ZNK9__gnu_cxx17__normal_iteratorIPKNSt7__cxx1112basic_stringIcSt11char_traitsIcESaIcEEESt6vectorIS6_SaIS6_EEE4baseEv, symObjAddr: 0x1C44, symBinAddr: 0x100005370, symSize: 0x14 }
  - { offsetInCU: 0xAF6C, offset: 0x16A74, size: 0x8, addend: 0x0, symName: __ZNSt16allocator_traitsISaINSt7__cxx1112basic_stringIcSt11char_traitsIcESaIcEEEEE9constructIS5_JRKS5_EEEvRS6_PT_DpOT0_, symObjAddr: 0x1C58, symBinAddr: 0x100005384, symSize: 0x38 }
  - { offsetInCU: 0xB046, offset: 0x16B4E, size: 0x8, addend: 0x0, symName: __ZSt9__find_ifIN9__gnu_cxx17__normal_iteratorIPKNSt7__cxx1112basic_stringIcSt11char_traitsIcESaIcEEESt6vectorIS7_SaIS7_EEEENS0_5__ops16_Iter_equals_valIS8_EEET_SH_SH_T0_, symObjAddr: 0x1C04, symBinAddr: 0x100005330, symSize: 0x40 }
  - { offsetInCU: 0xB04E, offset: 0x16B56, size: 0x8, addend: 0x0, symName: __ZNK9__gnu_cxx17__normal_iteratorIPKNSt7__cxx1112basic_stringIcSt11char_traitsIcESaIcEEESt6vectorIS6_SaIS6_EEE4baseEv, symObjAddr: 0x1C44, symBinAddr: 0x100005370, symSize: 0x14 }
  - { offsetInCU: 0xB0D2, offset: 0x16BDA, size: 0x8, addend: 0x0, symName: __ZN9__gnu_cxx5__ops17__iter_equals_valIKNSt7__cxx1112basic_stringIcSt11char_traitsIcESaIcEEEEENS0_16_Iter_equals_valIT_EERSA_, symObjAddr: 0x1BE0, symBinAddr: 0x10000530C, symSize: 0x24 }
  - { offsetInCU: 0xB0DA, offset: 0x16BE2, size: 0x8, addend: 0x0, symName: __ZSt9__find_ifIN9__gnu_cxx17__normal_iteratorIPKNSt7__cxx1112basic_stringIcSt11char_traitsIcESaIcEEESt6vectorIS7_SaIS7_EEEENS0_5__ops16_Iter_equals_valIS8_EEET_SH_SH_T0_, symObjAddr: 0x1C04, symBinAddr: 0x100005330, symSize: 0x40 }
  - { offsetInCU: 0xB100, offset: 0x16C08, size: 0x8, addend: 0x0, symName: __ZN9__gnu_cxx17__normal_iteratorIPKNSt7__cxx1112basic_stringIcSt11char_traitsIcESaIcEEESt6vectorIS6_SaIS6_EEEC1ERKS8_, symObjAddr: 0x1BB8, symBinAddr: 0x1000052E4, symSize: 0x28 }
  - { offsetInCU: 0xB108, offset: 0x16C10, size: 0x8, addend: 0x0, symName: __ZN9__gnu_cxx5__ops17__iter_equals_valIKNSt7__cxx1112basic_stringIcSt11char_traitsIcESaIcEEEEENS0_16_Iter_equals_valIT_EERSA_, symObjAddr: 0x1BE0, symBinAddr: 0x10000530C, symSize: 0x24 }
  - { offsetInCU: 0xB0C4, offset: 0x16BCC, size: 0x8, addend: 0x0, symName: __ZNKSt15__uniq_ptr_implISt6vectorINSt7__cxx1112basic_stringIcSt11char_traitsIcESaIcEEESaIS6_EESt14default_deleteIS8_EE6_M_ptrEv, symObjAddr: 0x1B98, symBinAddr: 0x1000052C4, symSize: 0x20 }
  - { offsetInCU: 0xB0CC, offset: 0x16BD4, size: 0x8, addend: 0x0, symName: __ZN9__gnu_cxx17__normal_iteratorIPKNSt7__cxx1112basic_stringIcSt11char_traitsIcESaIcEEESt6vectorIS6_SaIS6_EEEC1ERKS8_, symObjAddr: 0x1BB8, symBinAddr: 0x1000052E4, symSize: 0x28 }
  - { offsetInCU: 0xB19A, offset: 0x16CA2, size: 0x8, addend: 0x0, symName: __ZSt8_DestroyIPNSt7__cxx1112basic_stringIcSt11char_traitsIcESaIcEEES5_EvT_S7_RSaIT0_E, symObjAddr: 0x1B6C, symBinAddr: 0x100005298, symSize: 0x2C }
  - { offsetInCU: 0xB1A2, offset: 0x16CAA, size: 0x8, addend: 0x0, symName: __ZNKSt15__uniq_ptr_implISt6vectorINSt7__cxx1112basic_stringIcSt11char_traitsIcESaIcEEESaIS6_EESt14default_deleteIS8_EE6_M_ptrEv, symObjAddr: 0x1B98, symBinAddr: 0x1000052C4, symSize: 0x20 }
  - { offsetInCU: 0xB2E3, offset: 0x16DEB, size: 0x8, addend: 0x0, symName: __ZSt22__uninitialized_copy_aIN9__gnu_cxx17__normal_iteratorIPKNSt7__cxx1112basic_stringIcSt11char_traitsIcESaIcEEESt6vectorIS7_SaIS7_EEEEPS7_S7_ET0_T_SG_SF_RSaIT1_E, symObjAddr: 0x1B3C, symBinAddr: 0x100005268, symSize: 0x30 }
  - { offsetInCU: 0xB2EB, offset: 0x16DF3, size: 0x8, addend: 0x0, symName: __ZSt8_DestroyIPNSt7__cxx1112basic_stringIcSt11char_traitsIcESaIcEEES5_EvT_S7_RSaIT0_E, symObjAddr: 0x1B6C, symBinAddr: 0x100005298, symSize: 0x2C }
  - { offsetInCU: 0xB1FE, offset: 0x16D06, size: 0x8, addend: 0x0, symName: __ZNSt12_Vector_baseINSt7__cxx1112basic_stringIcSt11char_traitsIcESaIcEEESaIS5_EE19_M_get_Tp_allocatorEv, symObjAddr: 0x1B28, symBinAddr: 0x100005254, symSize: 0x14 }
  - { offsetInCU: 0xB206, offset: 0x16D0E, size: 0x8, addend: 0x0, symName: __ZSt22__uninitialized_copy_aIN9__gnu_cxx17__normal_iteratorIPKNSt7__cxx1112basic_stringIcSt11char_traitsIcESaIcEEESt6vectorIS7_SaIS7_EEEEPS7_S7_ET0_T_SG_SF_RSaIT1_E, symObjAddr: 0x1B3C, symBinAddr: 0x100005268, symSize: 0x30 }
  - { offsetInCU: 0xB2A9, offset: 0x16DB1, size: 0x8, addend: 0x0, symName: __ZNSt12_Vector_baseINSt7__cxx1112basic_stringIcSt11char_traitsIcESaIcEEESaIS5_EED2Ev, symObjAddr: 0x1AD8, symBinAddr: 0x100005204, symSize: 0x50 }
  - { offsetInCU: 0xB2B1, offset: 0x16DB9, size: 0x8, addend: 0x0, symName: __ZNSt12_Vector_baseINSt7__cxx1112basic_stringIcSt11char_traitsIcESaIcEEESaIS5_EE19_M_get_Tp_allocatorEv, symObjAddr: 0x1B28, symBinAddr: 0x100005254, symSize: 0x14 }
  - { offsetInCU: 0xB317, offset: 0x16E1F, size: 0x8, addend: 0x0, symName: __ZNSt12_Vector_baseINSt7__cxx1112basic_stringIcSt11char_traitsIcESaIcEEESaIS5_EEC2EmRKS6_, symObjAddr: 0x1A84, symBinAddr: 0x1000051B0, symSize: 0x54 }
  - { offsetInCU: 0xB31F, offset: 0x16E27, size: 0x8, addend: 0x0, symName: __ZNSt12_Vector_baseINSt7__cxx1112basic_stringIcSt11char_traitsIcESaIcEEESaIS5_EED2Ev, symObjAddr: 0x1AD8, symBinAddr: 0x100005204, symSize: 0x50 }
  - { offsetInCU: 0xB390, offset: 0x16E98, size: 0x8, addend: 0x0, symName: __ZNSt12_Vector_baseINSt7__cxx1112basic_stringIcSt11char_traitsIcESaIcEEESaIS5_EE12_Vector_implD1Ev, symObjAddr: 0x1A64, symBinAddr: 0x100005190, symSize: 0x20 }
  - { offsetInCU: 0xB398, offset: 0x16EA0, size: 0x8, addend: 0x0, symName: __ZNSt12_Vector_baseINSt7__cxx1112basic_stringIcSt11char_traitsIcESaIcEEESaIS5_EEC2EmRKS6_, symObjAddr: 0x1A84, symBinAddr: 0x1000051B0, symSize: 0x54 }
  - { offsetInCU: 0xB3C2, offset: 0x16ECA, size: 0x8, addend: 0x0, symName: __ZNSaINSt7__cxx1112basic_stringIcSt11char_traitsIcESaIcEEEED1Ev, symObjAddr: 0x1A44, symBinAddr: 0x100005170, symSize: 0x20 }
  - { offsetInCU: 0xB3CA, offset: 0x16ED2, size: 0x8, addend: 0x0, symName: __ZNSt12_Vector_baseINSt7__cxx1112basic_stringIcSt11char_traitsIcESaIcEEESaIS5_EE12_Vector_implD1Ev, symObjAddr: 0x1A64, symBinAddr: 0x100005190, symSize: 0x20 }
  - { offsetInCU: 0xB3F0, offset: 0x16EF8, size: 0x8, addend: 0x0, symName: __ZNSaINSt7__cxx1112basic_stringIcSt11char_traitsIcESaIcEEEED2Ev, symObjAddr: 0x1A24, symBinAddr: 0x100005150, symSize: 0x20 }
  - { offsetInCU: 0xB3F8, offset: 0x16F00, size: 0x8, addend: 0x0, symName: __ZNSaINSt7__cxx1112basic_stringIcSt11char_traitsIcESaIcEEEED1Ev, symObjAddr: 0x1A44, symBinAddr: 0x100005170, symSize: 0x20 }
  - { offsetInCU: 0xB3DE, offset: 0x16EE6, size: 0x8, addend: 0x0, symName: __ZNKSt12_Vector_baseINSt7__cxx1112basic_stringIcSt11char_traitsIcESaIcEEESaIS5_EE19_M_get_Tp_allocatorEv, symObjAddr: 0x1A10, symBinAddr: 0x10000513C, symSize: 0x14 }
  - { offsetInCU: 0xB3E6, offset: 0x16EEE, size: 0x8, addend: 0x0, symName: __ZNSaINSt7__cxx1112basic_stringIcSt11char_traitsIcESaIcEEEED2Ev, symObjAddr: 0x1A24, symBinAddr: 0x100005150, symSize: 0x20 }
  - { offsetInCU: 0xB40D, offset: 0x16F15, size: 0x8, addend: 0x0, symName: __ZN9__gnu_cxx14__alloc_traitsISaINSt7__cxx1112basic_stringIcSt11char_traitsIcESaIcEEEES6_E17_S_select_on_copyERKS7_, symObjAddr: 0x19E0, symBinAddr: 0x10000510C, symSize: 0x30 }
  - { offsetInCU: 0xB415, offset: 0x16F1D, size: 0x8, addend: 0x0, symName: __ZNKSt12_Vector_baseINSt7__cxx1112basic_stringIcSt11char_traitsIcESaIcEEESaIS5_EE19_M_get_Tp_allocatorEv, symObjAddr: 0x1A10, symBinAddr: 0x10000513C, symSize: 0x14 }
  - { offsetInCU: 0xB43E, offset: 0x16F46, size: 0x8, addend: 0x0, symName: __ZNKSt6vectorINSt7__cxx1112basic_stringIcSt11char_traitsIcESaIcEEESaIS5_EE4sizeEv, symObjAddr: 0x19B8, symBinAddr: 0x1000050E4, symSize: 0x28 }
  - { offsetInCU: 0xB446, offset: 0x16F4E, size: 0x8, addend: 0x0, symName: __ZN9__gnu_cxx14__alloc_traitsISaINSt7__cxx1112basic_stringIcSt11char_traitsIcESaIcEEEES6_E17_S_select_on_copyERKS7_, symObjAddr: 0x19E0, symBinAddr: 0x10000510C, symSize: 0x30 }
  - { offsetInCU: 0xB54D, offset: 0x17055, size: 0x8, addend: 0x0, symName: __ZSt7forwardISt14default_deleteISt6vectorINSt7__cxx1112basic_stringIcSt11char_traitsIcESaIcEEESaIS7_EEEEOT_RNSt16remove_referenceISB_E4typeE, symObjAddr: 0x19A4, symBinAddr: 0x1000050D0, symSize: 0x14 }
  - { offsetInCU: 0xB555, offset: 0x1705D, size: 0x8, addend: 0x0, symName: __ZNKSt6vectorINSt7__cxx1112basic_stringIcSt11char_traitsIcESaIcEEESaIS5_EE4sizeEv, symObjAddr: 0x19B8, symBinAddr: 0x1000050E4, symSize: 0x28 }
  - { offsetInCU: 0xB4CB, offset: 0x16FD3, size: 0x8, addend: 0x0, symName: __ZNSt15__uniq_ptr_implISt6vectorINSt7__cxx1112basic_stringIcSt11char_traitsIcESaIcEEESaIS6_EESt14default_deleteIS8_EE10_M_deleterEv, symObjAddr: 0x1988, symBinAddr: 0x1000050B4, symSize: 0x1C }
  - { offsetInCU: 0xB4D3, offset: 0x16FDB, size: 0x8, addend: 0x0, symName: __ZSt7forwardISt14default_deleteISt6vectorINSt7__cxx1112basic_stringIcSt11char_traitsIcESaIcEEESaIS7_EEEEOT_RNSt16remove_referenceISB_E4typeE, symObjAddr: 0x19A4, symBinAddr: 0x1000050D0, symSize: 0x14 }
  - { offsetInCU: 0xB4FA, offset: 0x17002, size: 0x8, addend: 0x0, symName: __ZNSt15__uniq_ptr_implISt6vectorINSt7__cxx1112basic_stringIcSt11char_traitsIcESaIcEEESaIS6_EESt14default_deleteIS8_EE7releaseEv, symObjAddr: 0x1954, symBinAddr: 0x100005080, symSize: 0x34 }
  - { offsetInCU: 0xB502, offset: 0x1700A, size: 0x8, addend: 0x0, symName: __ZNSt15__uniq_ptr_implISt6vectorINSt7__cxx1112basic_stringIcSt11char_traitsIcESaIcEEESaIS6_EESt14default_deleteIS8_EE10_M_deleterEv, symObjAddr: 0x1988, symBinAddr: 0x1000050B4, symSize: 0x1C }
  - { offsetInCU: 0xB53C, offset: 0x17044, size: 0x8, addend: 0x0, symName: __ZNSt15__uniq_ptr_implISt6vectorINSt7__cxx1112basic_stringIcSt11char_traitsIcESaIcEEESaIS6_EESt14default_deleteIS8_EE5resetEPS8_, symObjAddr: 0x18F4, symBinAddr: 0x100005020, symSize: 0x60 }
  - { offsetInCU: 0xB544, offset: 0x1704C, size: 0x8, addend: 0x0, symName: __ZNSt15__uniq_ptr_implISt6vectorINSt7__cxx1112basic_stringIcSt11char_traitsIcESaIcEEESaIS6_EESt14default_deleteIS8_EE7releaseEv, symObjAddr: 0x1954, symBinAddr: 0x100005080, symSize: 0x34 }
  - { offsetInCU: 0xB591, offset: 0x17099, size: 0x8, addend: 0x0, symName: __ZNSt10unique_ptrISt6vectorINSt7__cxx1112basic_stringIcSt11char_traitsIcESaIcEEESaIS6_EESt14default_deleteIS8_EE5resetEPS8_, symObjAddr: 0x18B4, symBinAddr: 0x100004FE0, symSize: 0x40 }
  - { offsetInCU: 0xB599, offset: 0x170A1, size: 0x8, addend: 0x0, symName: __ZNSt15__uniq_ptr_implISt6vectorINSt7__cxx1112basic_stringIcSt11char_traitsIcESaIcEEESaIS6_EESt14default_deleteIS8_EE5resetEPS8_, symObjAddr: 0x18F4, symBinAddr: 0x100005020, symSize: 0x60 }
  - { offsetInCU: 0xB68A, offset: 0x17192, size: 0x8, addend: 0x0, symName: __ZNSt10unique_ptrISt6vectorINSt7__cxx1112basic_stringIcSt11char_traitsIcESaIcEEESaIS6_EESt14default_deleteIS8_EEC1ISA_vEEPS8_, symObjAddr: 0x188C, symBinAddr: 0x100004FB8, symSize: 0x28 }
  - { offsetInCU: 0xB692, offset: 0x1719A, size: 0x8, addend: 0x0, symName: __ZNSt10unique_ptrISt6vectorINSt7__cxx1112basic_stringIcSt11char_traitsIcESaIcEEESaIS6_EESt14default_deleteIS8_EE5resetEPS8_, symObjAddr: 0x18B4, symBinAddr: 0x100004FE0, symSize: 0x40 }
  - { offsetInCU: 0xB71A, offset: 0x17222, size: 0x8, addend: 0x0, symName: __ZNSt15__uniq_ptr_dataISt6vectorINSt7__cxx1112basic_stringIcSt11char_traitsIcESaIcEEESaIS6_EESt14default_deleteIS8_ELb1ELb1EECI1St15__uniq_ptr_implIS8_SA_EEPS8_, symObjAddr: 0x1864, symBinAddr: 0x100004F90, symSize: 0x28 }
  - { offsetInCU: 0xB722, offset: 0x1722A, size: 0x8, addend: 0x0, symName: __ZNSt10unique_ptrISt6vectorINSt7__cxx1112basic_stringIcSt11char_traitsIcESaIcEEESaIS6_EESt14default_deleteIS8_EEC1ISA_vEEPS8_, symObjAddr: 0x188C, symBinAddr: 0x100004FB8, symSize: 0x28 }
  - { offsetInCU: 0xB76A, offset: 0x17272, size: 0x8, addend: 0x0, symName: __ZSt7forwardIRSt6vectorINSt7__cxx1112basic_stringIcSt11char_traitsIcESaIcEEESaIS6_EEEOT_RNSt16remove_referenceISA_E4typeE, symObjAddr: 0x1850, symBinAddr: 0x100004F7C, symSize: 0x14 }
  - { offsetInCU: 0xB772, offset: 0x1727A, size: 0x8, addend: 0x0, symName: __ZNSt15__uniq_ptr_dataISt6vectorINSt7__cxx1112basic_stringIcSt11char_traitsIcESaIcEEESaIS6_EESt14default_deleteIS8_ELb1ELb1EECI1St15__uniq_ptr_implIS8_SA_EEPS8_, symObjAddr: 0x1864, symBinAddr: 0x100004F90, symSize: 0x28 }
  - { offsetInCU: 0xB7AD, offset: 0x172B5, size: 0x8, addend: 0x0, symName: __ZNSt11_Tuple_implILm1EJSt14default_deleteISt6vectorINSt7__cxx1112basic_stringIcSt11char_traitsIcESaIcEEESaIS7_EEEEEC2EOSB_, symObjAddr: 0x1838, symBinAddr: 0x100004F64, symSize: 0x18 }
  - { offsetInCU: 0xB7B5, offset: 0x172BD, size: 0x8, addend: 0x0, symName: __ZSt7forwardIRSt6vectorINSt7__cxx1112basic_stringIcSt11char_traitsIcESaIcEEESaIS6_EEEOT_RNSt16remove_referenceISA_E4typeE, symObjAddr: 0x1850, symBinAddr: 0x100004F7C, symSize: 0x14 }
  - { offsetInCU: 0xB9B6, offset: 0x174BE, size: 0x8, addend: 0x0, symName: __ZSt4moveIRSt5tupleIJPSt6vectorINSt7__cxx1112basic_stringIcSt11char_traitsIcESaIcEEESaIS7_EESt14default_deleteIS9_EEEEONSt16remove_referenceIT_E4typeEOSG_, symObjAddr: 0x1824, symBinAddr: 0x100004F50, symSize: 0x14 }
  - { offsetInCU: 0xB9BE, offset: 0x174C6, size: 0x8, addend: 0x0, symName: __ZNSt11_Tuple_implILm1EJSt14default_deleteISt6vectorINSt7__cxx1112basic_stringIcSt11char_traitsIcESaIcEEESaIS7_EEEEEC2EOSB_, symObjAddr: 0x1838, symBinAddr: 0x100004F64, symSize: 0x18 }
  - { offsetInCU: 0xB7BF, offset: 0x172C7, size: 0x8, addend: 0x0, symName: __ZNKSt14default_deleteISt6vectorINSt7__cxx1112basic_stringIcSt11char_traitsIcESaIcEEESaIS6_EEEclEPS8_, symObjAddr: 0x17E0, symBinAddr: 0x100004F0C, symSize: 0x44 }
  - { offsetInCU: 0xB7C7, offset: 0x172CF, size: 0x8, addend: 0x0, symName: __ZSt4moveIRSt5tupleIJPSt6vectorINSt7__cxx1112basic_stringIcSt11char_traitsIcESaIcEEESaIS7_EESt14default_deleteIS9_EEEEONSt16remove_referenceIT_E4typeEOSG_, symObjAddr: 0x1824, symBinAddr: 0x100004F50, symSize: 0x14 }
  - { offsetInCU: 0xB8B4, offset: 0x173BC, size: 0x8, addend: 0x0, symName: __ZSt4moveIRPSt6vectorINSt7__cxx1112basic_stringIcSt11char_traitsIcESaIcEEESaIS6_EEEONSt16remove_referenceIT_E4typeEOSC_, symObjAddr: 0x17CC, symBinAddr: 0x100004EF8, symSize: 0x14 }
  - { offsetInCU: 0xB8BC, offset: 0x173C4, size: 0x8, addend: 0x0, symName: __ZNKSt14default_deleteISt6vectorINSt7__cxx1112basic_stringIcSt11char_traitsIcESaIcEEESaIS6_EEEclEPS8_, symObjAddr: 0x17E0, symBinAddr: 0x100004F0C, symSize: 0x44 }
  - { offsetInCU: 0xB855, offset: 0x1735D, size: 0x8, addend: 0x0, symName: __ZNSt10unique_ptrISt6vectorINSt7__cxx1112basic_stringIcSt11char_traitsIcESaIcEEESaIS6_EESt14default_deleteIS8_EE11get_deleterEv, symObjAddr: 0x17B0, symBinAddr: 0x100004EDC, symSize: 0x1C }
  - { offsetInCU: 0xB85D, offset: 0x17365, size: 0x8, addend: 0x0, symName: __ZSt4moveIRPSt6vectorINSt7__cxx1112basic_stringIcSt11char_traitsIcESaIcEEESaIS6_EEEONSt16remove_referenceIT_E4typeEOSC_, symObjAddr: 0x17CC, symBinAddr: 0x100004EF8, symSize: 0x14 }
  - { offsetInCU: 0xB884, offset: 0x1738C, size: 0x8, addend: 0x0, symName: __ZNSt15__uniq_ptr_implISt6vectorINSt7__cxx1112basic_stringIcSt11char_traitsIcESaIcEEESaIS6_EESt14default_deleteIS8_EE6_M_ptrEv, symObjAddr: 0x1794, symBinAddr: 0x100004EC0, symSize: 0x1C }
  - { offsetInCU: 0xB88C, offset: 0x17394, size: 0x8, addend: 0x0, symName: __ZNSt10unique_ptrISt6vectorINSt7__cxx1112basic_stringIcSt11char_traitsIcESaIcEEESaIS6_EESt14default_deleteIS8_EE11get_deleterEv, symObjAddr: 0x17B0, symBinAddr: 0x100004EDC, symSize: 0x1C }
  - { offsetInCU: 0xB949, offset: 0x17451, size: 0x8, addend: 0x0, symName: __ZNSt11_Tuple_implILm0EJPSt6vectorINSt7__cxx1112basic_stringIcSt11char_traitsIcESaIcEEESaIS6_EESt14default_deleteIS8_EEEC2Ev, symObjAddr: 0x176C, symBinAddr: 0x100004E98, symSize: 0x28 }
  - { offsetInCU: 0xB951, offset: 0x17459, size: 0x8, addend: 0x0, symName: __ZNSt15__uniq_ptr_implISt6vectorINSt7__cxx1112basic_stringIcSt11char_traitsIcESaIcEEESaIS6_EESt14default_deleteIS8_EE6_M_ptrEv, symObjAddr: 0x1794, symBinAddr: 0x100004EC0, symSize: 0x1C }
  - { offsetInCU: 0xB8FA, offset: 0x17402, size: 0x8, addend: 0x0, symName: __ZNK9__gnu_cxx17__normal_iteratorIPNSt7__cxx1112basic_stringIcSt11char_traitsIcESaIcEEESt6vectorIS6_SaIS6_EEEdeEv, symObjAddr: 0x1618, symBinAddr: 0x100004E80, symSize: 0x18 }
  - { offsetInCU: 0xB929, offset: 0x17431, size: 0x8, addend: 0x0, symName: __ZN9__gnu_cxx17__normal_iteratorIPNSt7__cxx1112basic_stringIcSt11char_traitsIcESaIcEEESt6vectorIS6_SaIS6_EEEppEv, symObjAddr: 0x15F0, symBinAddr: 0x100004E58, symSize: 0x28 }
  - { offsetInCU: 0xB931, offset: 0x17439, size: 0x8, addend: 0x0, symName: __ZNK9__gnu_cxx17__normal_iteratorIPNSt7__cxx1112basic_stringIcSt11char_traitsIcESaIcEEESt6vectorIS6_SaIS6_EEEdeEv, symObjAddr: 0x1618, symBinAddr: 0x100004E80, symSize: 0x18 }
  - { offsetInCU: 0xBA3D, offset: 0x17545, size: 0x8, addend: 0x0, symName: __ZN9__gnu_cxxneIPNSt7__cxx1112basic_stringIcSt11char_traitsIcESaIcEEESt6vectorIS6_SaIS6_EEEEbRKNS_17__normal_iteratorIT_T0_EESG_, symObjAddr: 0x15AC, symBinAddr: 0x100004E14, symSize: 0x44 }
  - { offsetInCU: 0xBA45, offset: 0x1754D, size: 0x8, addend: 0x0, symName: __ZN9__gnu_cxx17__normal_iteratorIPNSt7__cxx1112basic_stringIcSt11char_traitsIcESaIcEEESt6vectorIS6_SaIS6_EEEppEv, symObjAddr: 0x15F0, symBinAddr: 0x100004E58, symSize: 0x28 }
  - { offsetInCU: 0xB9C5, offset: 0x174CD, size: 0x8, addend: 0x0, symName: __ZNSt6vectorINSt7__cxx1112basic_stringIcSt11char_traitsIcESaIcEEESaIS5_EE5eraseEN9__gnu_cxx17__normal_iteratorIPKS5_S7_EESC_, symObjAddr: 0x152C, symBinAddr: 0x100004D94, symSize: 0x80 }
  - { offsetInCU: 0xB9CD, offset: 0x174D5, size: 0x8, addend: 0x0, symName: __ZN9__gnu_cxxneIPNSt7__cxx1112basic_stringIcSt11char_traitsIcESaIcEEESt6vectorIS6_SaIS6_EEEEbRKNS_17__normal_iteratorIT_T0_EESG_, symObjAddr: 0x15AC, symBinAddr: 0x100004E14, symSize: 0x44 }
  - { offsetInCU: 0xBB3C, offset: 0x17644, size: 0x8, addend: 0x0, symName: __ZN9__gnu_cxx17__normal_iteratorIPKNSt7__cxx1112basic_stringIcSt11char_traitsIcESaIcEEESt6vectorIS6_SaIS6_EEEC1IPS6_EERKNS0_IT_NS_11__enable_ifIXsrSt10__are_sameISF_SE_E7__valueESB_E6__typeEEE, symObjAddr: 0x14FC, symBinAddr: 0x100004D64, symSize: 0x30 }
  - { offsetInCU: 0xBB44, offset: 0x1764C, size: 0x8, addend: 0x0, symName: __ZNSt6vectorINSt7__cxx1112basic_stringIcSt11char_traitsIcESaIcEEESaIS5_EE5eraseEN9__gnu_cxx17__normal_iteratorIPKS5_S7_EESC_, symObjAddr: 0x152C, symBinAddr: 0x100004D94, symSize: 0x80 }
  - { offsetInCU: 0xBB89, offset: 0x17691, size: 0x8, addend: 0x0, symName: __ZSt9remove_ifIN9__gnu_cxx17__normal_iteratorIPNSt7__cxx1112basic_stringIcSt11char_traitsIcESaIcEEESt6vectorIS7_SaIS7_EEEEZN15LiteratureEntry11remove_nameERKS7_EUlSF_E_ET_SH_SH_T0_, symObjAddr: 0x14C8, symBinAddr: 0x100004D30, symSize: 0x34 }
  - { offsetInCU: 0xBB91, offset: 0x17699, size: 0x8, addend: 0x0, symName: __ZN9__gnu_cxx17__normal_iteratorIPKNSt7__cxx1112basic_stringIcSt11char_traitsIcESaIcEEESt6vectorIS6_SaIS6_EEEC1IPS6_EERKNS0_IT_NS_11__enable_ifIXsrSt10__are_sameISF_SE_E7__valueESB_E6__typeEEE, symObjAddr: 0x14FC, symBinAddr: 0x100004D64, symSize: 0x30 }
  - { offsetInCU: 0xBB3F, offset: 0x17647, size: 0x8, addend: 0x0, symName: __ZNSt6vectorINSt7__cxx1112basic_stringIcSt11char_traitsIcESaIcEEESaIS5_EE3endEv, symObjAddr: 0x1420, symBinAddr: 0x100004D08, symSize: 0x28 }
  - { offsetInCU: 0xBB6E, offset: 0x17676, size: 0x8, addend: 0x0, symName: __ZNSt6vectorINSt7__cxx1112basic_stringIcSt11char_traitsIcESaIcEEESaIS5_EE5beginEv, symObjAddr: 0x13FC, symBinAddr: 0x100004CE4, symSize: 0x24 }
  - { offsetInCU: 0xBB76, offset: 0x1767E, size: 0x8, addend: 0x0, symName: __ZNSt6vectorINSt7__cxx1112basic_stringIcSt11char_traitsIcESaIcEEESaIS5_EE3endEv, symObjAddr: 0x1420, symBinAddr: 0x100004D08, symSize: 0x28 }
  - { offsetInCU: 0xBB9D, offset: 0x176A5, size: 0x8, addend: 0x0, symName: __ZNSt6vectorINSt7__cxx1112basic_stringIcSt11char_traitsIcESaIcEEESaIS5_EE9push_backERKS5_, symObjAddr: 0x137C, symBinAddr: 0x100004C64, symSize: 0x80 }
  - { offsetInCU: 0xBBA5, offset: 0x176AD, size: 0x8, addend: 0x0, symName: __ZNSt6vectorINSt7__cxx1112basic_stringIcSt11char_traitsIcESaIcEEESaIS5_EE5beginEv, symObjAddr: 0x13FC, symBinAddr: 0x100004CE4, symSize: 0x24 }
  - { offsetInCU: 0xBBE0, offset: 0x176E8, size: 0x8, addend: 0x0, symName: __ZNKSt10unique_ptrISt6vectorINSt7__cxx1112basic_stringIcSt11char_traitsIcESaIcEEESaIS6_EESt14default_deleteIS8_EEptEv, symObjAddr: 0x1360, symBinAddr: 0x100004C48, symSize: 0x1C }
  - { offsetInCU: 0xBBE8, offset: 0x176F0, size: 0x8, addend: 0x0, symName: __ZNSt6vectorINSt7__cxx1112basic_stringIcSt11char_traitsIcESaIcEEESaIS5_EE9push_backERKS5_, symObjAddr: 0x137C, symBinAddr: 0x100004C64, symSize: 0x80 }
  - { offsetInCU: 0xBCFB, offset: 0x17803, size: 0x8, addend: 0x0, symName: __ZN9__gnu_cxxneIPKNSt7__cxx1112basic_stringIcSt11char_traitsIcESaIcEEESt6vectorIS6_SaIS6_EEEEbRKNS_17__normal_iteratorIT_T0_EESH_, symObjAddr: 0x131C, symBinAddr: 0x100004C04, symSize: 0x44 }
  - { offsetInCU: 0xBD03, offset: 0x1780B, size: 0x8, addend: 0x0, symName: __ZNKSt10unique_ptrISt6vectorINSt7__cxx1112basic_stringIcSt11char_traitsIcESaIcEEESaIS6_EESt14default_deleteIS8_EEptEv, symObjAddr: 0x1360, symBinAddr: 0x100004C48, symSize: 0x1C }
  - { offsetInCU: 0xBDA9, offset: 0x178B1, size: 0x8, addend: 0x0, symName: __ZSt4findIN9__gnu_cxx17__normal_iteratorIPKNSt7__cxx1112basic_stringIcSt11char_traitsIcESaIcEEESt6vectorIS7_SaIS7_EEEES7_ET_SE_SE_RKT0_, symObjAddr: 0x12E8, symBinAddr: 0x100004BD0, symSize: 0x34 }
  - { offsetInCU: 0xBDB1, offset: 0x178B9, size: 0x8, addend: 0x0, symName: __ZN9__gnu_cxxneIPKNSt7__cxx1112basic_stringIcSt11char_traitsIcESaIcEEESt6vectorIS6_SaIS6_EEEEbRKNS_17__normal_iteratorIT_T0_EESH_, symObjAddr: 0x131C, symBinAddr: 0x100004C04, symSize: 0x44 }
  - { offsetInCU: 0xBCFD, offset: 0x17805, size: 0x8, addend: 0x0, symName: __ZNKSt6vectorINSt7__cxx1112basic_stringIcSt11char_traitsIcESaIcEEESaIS5_EE3endEv, symObjAddr: 0x12C0, symBinAddr: 0x100004BA8, symSize: 0x28 }
  - { offsetInCU: 0xBD05, offset: 0x1780D, size: 0x8, addend: 0x0, symName: __ZSt4findIN9__gnu_cxx17__normal_iteratorIPKNSt7__cxx1112basic_stringIcSt11char_traitsIcESaIcEEESt6vectorIS7_SaIS7_EEEES7_ET_SE_SE_RKT0_, symObjAddr: 0x12E8, symBinAddr: 0x100004BD0, symSize: 0x34 }
  - { offsetInCU: 0xBD2C, offset: 0x17834, size: 0x8, addend: 0x0, symName: __ZNKSt6vectorINSt7__cxx1112basic_stringIcSt11char_traitsIcESaIcEEESaIS5_EE5beginEv, symObjAddr: 0x129C, symBinAddr: 0x100004B84, symSize: 0x24 }
  - { offsetInCU: 0xBD34, offset: 0x1783C, size: 0x8, addend: 0x0, symName: __ZNKSt6vectorINSt7__cxx1112basic_stringIcSt11char_traitsIcESaIcEEESaIS5_EE3endEv, symObjAddr: 0x12C0, symBinAddr: 0x100004BA8, symSize: 0x28 }
  - { offsetInCU: 0xBD5B, offset: 0x17863, size: 0x8, addend: 0x0, symName: __ZNKSt10unique_ptrISt6vectorINSt7__cxx1112basic_stringIcSt11char_traitsIcESaIcEEESaIS6_EESt14default_deleteIS8_EE3getEv, symObjAddr: 0x1280, symBinAddr: 0x100004B68, symSize: 0x1C }
  - { offsetInCU: 0xBD63, offset: 0x1786B, size: 0x8, addend: 0x0, symName: __ZNKSt6vectorINSt7__cxx1112basic_stringIcSt11char_traitsIcESaIcEEESaIS5_EE5beginEv, symObjAddr: 0x129C, symBinAddr: 0x100004B84, symSize: 0x24 }
  - { offsetInCU: 0xBD8A, offset: 0x17892, size: 0x8, addend: 0x0, symName: __ZNKSt10unique_ptrISt6vectorINSt7__cxx1112basic_stringIcSt11char_traitsIcESaIcEEESaIS6_EESt14default_deleteIS8_EEcvbEv, symObjAddr: 0x1258, symBinAddr: 0x100004B40, symSize: 0x28 }
  - { offsetInCU: 0xBD92, offset: 0x1789A, size: 0x8, addend: 0x0, symName: __ZNKSt10unique_ptrISt6vectorINSt7__cxx1112basic_stringIcSt11char_traitsIcESaIcEEESaIS6_EESt14default_deleteIS8_EE3getEv, symObjAddr: 0x1280, symBinAddr: 0x100004B68, symSize: 0x1C }
  - { offsetInCU: 0xBE2E, offset: 0x17936, size: 0x8, addend: 0x0, symName: __ZNSt6vectorINSt7__cxx1112basic_stringIcSt11char_traitsIcESaIcEEESaIS5_EED1Ev, symObjAddr: 0x1208, symBinAddr: 0x100004AF0, symSize: 0x50 }
  - { offsetInCU: 0xBE36, offset: 0x1793E, size: 0x8, addend: 0x0, symName: __ZNKSt10unique_ptrISt6vectorINSt7__cxx1112basic_stringIcSt11char_traitsIcESaIcEEESaIS6_EESt14default_deleteIS8_EEcvbEv, symObjAddr: 0x1258, symBinAddr: 0x100004B40, symSize: 0x28 }
  - { offsetInCU: 0xBE8A, offset: 0x17992, size: 0x8, addend: 0x0, symName: __ZNSt6vectorINSt7__cxx1112basic_stringIcSt11char_traitsIcESaIcEEESaIS5_EEC1ERKS7_, symObjAddr: 0x1124, symBinAddr: 0x100004A0C, symSize: 0xE4 }
  - { offsetInCU: 0xBE92, offset: 0x1799A, size: 0x8, addend: 0x0, symName: __ZNSt6vectorINSt7__cxx1112basic_stringIcSt11char_traitsIcESaIcEEESaIS5_EED1Ev, symObjAddr: 0x1208, symBinAddr: 0x100004AF0, symSize: 0x50 }
  - { offsetInCU: 0xBEF4, offset: 0x179FC, size: 0x8, addend: 0x0, symName: __ZSt11__addressofINSt7__cxx1112basic_stringIcSt11char_traitsIcESaIcEEEEPT_RS6_, symObjAddr: 0x1110, symBinAddr: 0x1000049F8, symSize: 0x14 }
  - { offsetInCU: 0xBEFC, offset: 0x17A04, size: 0x8, addend: 0x0, symName: __ZNSt6vectorINSt7__cxx1112basic_stringIcSt11char_traitsIcESaIcEEESaIS5_EEC1ERKS7_, symObjAddr: 0x1124, symBinAddr: 0x100004A0C, symSize: 0xE4 }
  - { offsetInCU: 0xBEBC, offset: 0x179C4, size: 0x8, addend: 0x0, symName: __ZNSt15__uniq_ptr_implISt6vectorINSt7__cxx1112basic_stringIcSt11char_traitsIcESaIcEEESaIS6_EESt14default_deleteIS8_EEaSEOSB_, symObjAddr: 0x10CC, symBinAddr: 0x1000049B4, symSize: 0x44 }
  - { offsetInCU: 0xBEC4, offset: 0x179CC, size: 0x8, addend: 0x0, symName: __ZSt11__addressofINSt7__cxx1112basic_stringIcSt11char_traitsIcESaIcEEEEPT_RS6_, symObjAddr: 0x1110, symBinAddr: 0x1000049F8, symSize: 0x14 }
  - { offsetInCU: 0xBEFE, offset: 0x17A06, size: 0x8, addend: 0x0, symName: __ZNSt10unique_ptrISt6vectorINSt7__cxx1112basic_stringIcSt11char_traitsIcESaIcEEESaIS6_EESt14default_deleteIS8_EEaSEDn, symObjAddr: 0x10A4, symBinAddr: 0x10000498C, symSize: 0x28 }
  - { offsetInCU: 0xBF06, offset: 0x17A0E, size: 0x8, addend: 0x0, symName: __ZNSt15__uniq_ptr_implISt6vectorINSt7__cxx1112basic_stringIcSt11char_traitsIcESaIcEEESaIS6_EESt14default_deleteIS8_EEaSEOSB_, symObjAddr: 0x10CC, symBinAddr: 0x1000049B4, symSize: 0x44 }
  - { offsetInCU: 0xBF7A, offset: 0x17A82, size: 0x8, addend: 0x0, symName: __ZSt4moveIRiEONSt16remove_referenceIT_E4typeEOS2_, symObjAddr: 0x1090, symBinAddr: 0x100004978, symSize: 0x14 }
  - { offsetInCU: 0xBF82, offset: 0x17A8A, size: 0x8, addend: 0x0, symName: __ZNSt10unique_ptrISt6vectorINSt7__cxx1112basic_stringIcSt11char_traitsIcESaIcEEESaIS6_EESt14default_deleteIS8_EEaSEDn, symObjAddr: 0x10A4, symBinAddr: 0x10000498C, symSize: 0x28 }
  - { offsetInCU: 0xC028, offset: 0x17B30, size: 0x8, addend: 0x0, symName: __ZSt4moveIRNSt7__cxx1112basic_stringIcSt11char_traitsIcESaIcEEEEONSt16remove_referenceIT_E4typeEOS8_, symObjAddr: 0x107C, symBinAddr: 0x100004964, symSize: 0x14 }
  - { offsetInCU: 0xC030, offset: 0x17B38, size: 0x8, addend: 0x0, symName: __ZSt4moveIRiEONSt16remove_referenceIT_E4typeEOS2_, symObjAddr: 0x1090, symBinAddr: 0x100004978, symSize: 0x14 }
  - { offsetInCU: 0xC177, offset: 0x17C7F, size: 0x8, addend: 0x0, symName: __ZSt11make_uniqueISt6vectorINSt7__cxx1112basic_stringIcSt11char_traitsIcESaIcEEESaIS6_EEJRS8_EENSt9_MakeUniqIT_E15__single_objectEDpOT0_, symObjAddr: 0x1004, symBinAddr: 0x1000048EC, symSize: 0x78 }
  - { offsetInCU: 0xC17F, offset: 0x17C87, size: 0x8, addend: 0x0, symName: __ZSt4moveIRNSt7__cxx1112basic_stringIcSt11char_traitsIcESaIcEEEEONSt16remove_referenceIT_E4typeEOS8_, symObjAddr: 0x107C, symBinAddr: 0x100004964, symSize: 0x14 }
  - { offsetInCU: 0xC044, offset: 0x17B4C, size: 0x8, addend: 0x0, symName: __ZNKSt10unique_ptrISt6vectorINSt7__cxx1112basic_stringIcSt11char_traitsIcESaIcEEESaIS6_EESt14default_deleteIS8_EEdeEv, symObjAddr: 0xFE0, symBinAddr: 0x1000048C8, symSize: 0x24 }
  - { offsetInCU: 0xC04C, offset: 0x17B54, size: 0x8, addend: 0x0, symName: __ZSt11make_uniqueISt6vectorINSt7__cxx1112basic_stringIcSt11char_traitsIcESaIcEEESaIS6_EEJRS8_EENSt9_MakeUniqIT_E15__single_objectEDpOT0_, symObjAddr: 0x1004, symBinAddr: 0x1000048EC, symSize: 0x78 }
  - { offsetInCU: 0xC0E2, offset: 0x17BEA, size: 0x8, addend: 0x0, symName: __Z17check_nonnegativeIiET_S0_RKNSt7__cxx1112basic_stringIcSt11char_traitsIcESaIcEEE, symObjAddr: 0xF34, symBinAddr: 0x10000481C, symSize: 0xAC }
  - { offsetInCU: 0xC0EA, offset: 0x17BF2, size: 0x8, addend: 0x0, symName: __ZNKSt10unique_ptrISt6vectorINSt7__cxx1112basic_stringIcSt11char_traitsIcESaIcEEESaIS6_EESt14default_deleteIS8_EEdeEv, symObjAddr: 0xFE0, symBinAddr: 0x1000048C8, symSize: 0x24 }
  - { offsetInCU: 0xC177, offset: 0x17C7F, size: 0x8, addend: 0x0, symName: __ZNSt15__uniq_ptr_implISt6vectorINSt7__cxx1112basic_stringIcSt11char_traitsIcESaIcEEESaIS6_EESt14default_deleteIS8_EEC2EOSB_, symObjAddr: 0xEEC, symBinAddr: 0x1000047D4, symSize: 0x48 }
  - { offsetInCU: 0xC17F, offset: 0x17C87, size: 0x8, addend: 0x0, symName: __Z17check_nonnegativeIiET_S0_RKNSt7__cxx1112basic_stringIcSt11char_traitsIcESaIcEEE, symObjAddr: 0xF34, symBinAddr: 0x10000481C, symSize: 0xAC }
  - { offsetInCU: 0xC1CB, offset: 0x17CD3, size: 0x8, addend: 0x0, symName: __ZNSt5tupleIJPSt6vectorINSt7__cxx1112basic_stringIcSt11char_traitsIcESaIcEEESaIS6_EESt14default_deleteIS8_EEEC1EOSC_, symObjAddr: 0xEC4, symBinAddr: 0x1000047AC, symSize: 0x28 }
  - { offsetInCU: 0xC1D3, offset: 0x17CDB, size: 0x8, addend: 0x0, symName: __ZNSt15__uniq_ptr_implISt6vectorINSt7__cxx1112basic_stringIcSt11char_traitsIcESaIcEEESaIS6_EESt14default_deleteIS8_EEC2EOSB_, symObjAddr: 0xEEC, symBinAddr: 0x1000047D4, symSize: 0x48 }
  - { offsetInCU: 0xC232, offset: 0x17D3A, size: 0x8, addend: 0x0, symName: __ZNSt11_Tuple_implILm0EJPSt6vectorINSt7__cxx1112basic_stringIcSt11char_traitsIcESaIcEEESaIS6_EESt14default_deleteIS8_EEEC2EOSC_, symObjAddr: 0xE8C, symBinAddr: 0x100004774, symSize: 0x38 }
  - { offsetInCU: 0xC23A, offset: 0x17D42, size: 0x8, addend: 0x0, symName: __ZNSt5tupleIJPSt6vectorINSt7__cxx1112basic_stringIcSt11char_traitsIcESaIcEEESaIS6_EESt14default_deleteIS8_EEEC1EOSC_, symObjAddr: 0xEC4, symBinAddr: 0x1000047AC, symSize: 0x28 }
  - { offsetInCU: 0xC2D6, offset: 0x17DDE, size: 0x8, addend: 0x0, symName: __ZSt4moveIRSt10unique_ptrISt6vectorINSt7__cxx1112basic_stringIcSt11char_traitsIcESaIcEEESaIS7_EESt14default_deleteIS9_EEEONSt16remove_referenceIT_E4typeEOSF_, symObjAddr: 0xE78, symBinAddr: 0x100004760, symSize: 0x14 }
  - { offsetInCU: 0xC2DE, offset: 0x17DE6, size: 0x8, addend: 0x0, symName: __ZNSt11_Tuple_implILm0EJPSt6vectorINSt7__cxx1112basic_stringIcSt11char_traitsIcESaIcEEESaIS6_EESt14default_deleteIS8_EEEC2EOSC_, symObjAddr: 0xE8C, symBinAddr: 0x100004774, symSize: 0x38 }
  - { offsetInCU: 0xC2EF, offset: 0x17DF7, size: 0x8, addend: 0x0, symName: __ZNSt10unique_ptrISt6vectorINSt7__cxx1112basic_stringIcSt11char_traitsIcESaIcEEESaIS6_EESt14default_deleteIS8_EED1Ev, symObjAddr: 0xE10, symBinAddr: 0x1000046F8, symSize: 0x68 }
  - { offsetInCU: 0xC2F7, offset: 0x17DFF, size: 0x8, addend: 0x0, symName: __ZSt4moveIRSt10unique_ptrISt6vectorINSt7__cxx1112basic_stringIcSt11char_traitsIcESaIcEEESaIS7_EESt14default_deleteIS9_EEEONSt16remove_referenceIT_E4typeEOSF_, symObjAddr: 0xE78, symBinAddr: 0x100004760, symSize: 0x14 }
  - { offsetInCU: 0xC385, offset: 0x17E8D, size: 0x8, addend: 0x0, symName: __ZNSt5tupleIJPSt6vectorINSt7__cxx1112basic_stringIcSt11char_traitsIcESaIcEEESaIS6_EESt14default_deleteIS8_EEEC1ILb1ELb1EEEv, symObjAddr: 0xDF0, symBinAddr: 0x1000046D8, symSize: 0x20 }
  - { offsetInCU: 0xC38D, offset: 0x17E95, size: 0x8, addend: 0x0, symName: __ZNSt10unique_ptrISt6vectorINSt7__cxx1112basic_stringIcSt11char_traitsIcESaIcEEESaIS6_EESt14default_deleteIS8_EED1Ev, symObjAddr: 0xE10, symBinAddr: 0x1000046F8, symSize: 0x68 }
  - { offsetInCU: 0xC377, offset: 0x17E7F, size: 0x8, addend: 0x0, symName: __ZSt3maxImERKT_S2_S2_, symObjAddr: 0xD20, symBinAddr: 0x1000046A0, symSize: 0x38 }
  - { offsetInCU: 0xC436, offset: 0x17F3E, size: 0x8, addend: 0x0, symName: __ZStplIcSt11char_traitsIcESaIcEENSt7__cxx1112basic_stringIT_T0_T1_EERKS8_PKS5_, symObjAddr: 0xCC8, symBinAddr: 0x100004648, symSize: 0x58 }
  - { offsetInCU: 0xC43E, offset: 0x17F46, size: 0x8, addend: 0x0, symName: __ZSt3maxImERKT_S2_S2_, symObjAddr: 0xD20, symBinAddr: 0x1000046A0, symSize: 0x38 }
  - { offsetInCU: 0xC431, offset: 0x17F39, size: 0x8, addend: 0x0, symName: __ZNK15LiteratureEntry10print_dataEv, symObjAddr: 0xAD0, symBinAddr: 0x1000044F8, symSize: 0x150 }
  - { offsetInCU: 0xC4BB, offset: 0x17FC3, size: 0x8, addend: 0x0, symName: __ZN15LiteratureEntry8set_yearEi, symObjAddr: 0xA38, symBinAddr: 0x100004460, symSize: 0x98 }
  - { offsetInCU: 0xC4C3, offset: 0x17FCB, size: 0x8, addend: 0x0, symName: __ZNK15LiteratureEntry10print_dataEv, symObjAddr: 0xAD0, symBinAddr: 0x1000044F8, symSize: 0x150 }
  - { offsetInCU: 0xC4FD, offset: 0x18005, size: 0x8, addend: 0x0, symName: __ZN15LiteratureEntry11remove_nameERKNSt7__cxx1112basic_stringIcSt11char_traitsIcESaIcEEE, symObjAddr: 0x98C, symBinAddr: 0x1000043B4, symSize: 0xAC }
  - { offsetInCU: 0xC505, offset: 0x1800D, size: 0x8, addend: 0x0, symName: __ZN15LiteratureEntry8set_yearEi, symObjAddr: 0xA38, symBinAddr: 0x100004460, symSize: 0x98 }
  - { offsetInCU: 0xC5BB, offset: 0x180C3, size: 0x8, addend: 0x0, symName: __ZZN15LiteratureEntry11remove_nameERKNSt7__cxx1112basic_stringIcSt11char_traitsIcESaIcEEEENKUlS7_E_clES7_, symObjAddr: 0x95C, symBinAddr: 0x100004384, symSize: 0x30 }
  - { offsetInCU: 0xC5C3, offset: 0x180CB, size: 0x8, addend: 0x0, symName: __ZN15LiteratureEntry11remove_nameERKNSt7__cxx1112basic_stringIcSt11char_traitsIcESaIcEEE, symObjAddr: 0x98C, symBinAddr: 0x1000043B4, symSize: 0xAC }
  - { offsetInCU: 0xC62E, offset: 0x18136, size: 0x8, addend: 0x0, symName: __ZN15LiteratureEntry8add_nameERKNSt7__cxx1112basic_stringIcSt11char_traitsIcESaIcEEE, symObjAddr: 0x92C, symBinAddr: 0x100004354, symSize: 0x30 }
  - { offsetInCU: 0xC636, offset: 0x1813E, size: 0x8, addend: 0x0, symName: __ZZN15LiteratureEntry11remove_nameERKNSt7__cxx1112basic_stringIcSt11char_traitsIcESaIcEEEENKUlS7_E_clES7_, symObjAddr: 0x95C, symBinAddr: 0x100004384, symSize: 0x30 }
  - { offsetInCU: 0xC670, offset: 0x18178, size: 0x8, addend: 0x0, symName: __ZNK15LiteratureEntry7is_nameERKNSt7__cxx1112basic_stringIcSt11char_traitsIcESaIcEEE, symObjAddr: 0x88C, symBinAddr: 0x1000042B4, symSize: 0xA0 }
  - { offsetInCU: 0xC678, offset: 0x18180, size: 0x8, addend: 0x0, symName: __ZN15LiteratureEntry8add_nameERKNSt7__cxx1112basic_stringIcSt11char_traitsIcESaIcEEE, symObjAddr: 0x92C, symBinAddr: 0x100004354, symSize: 0x30 }
  - { offsetInCU: 0xC6D8, offset: 0x181E0, size: 0x8, addend: 0x0, symName: __ZNK15LiteratureEntry9get_namesB5cxx11Ev, symObjAddr: 0x850, symBinAddr: 0x100004278, symSize: 0x3C }
  - { offsetInCU: 0xC6E0, offset: 0x181E8, size: 0x8, addend: 0x0, symName: __ZNK15LiteratureEntry7is_nameERKNSt7__cxx1112basic_stringIcSt11char_traitsIcESaIcEEE, symObjAddr: 0x88C, symBinAddr: 0x1000042B4, symSize: 0xA0 }
  - { offsetInCU: 0xC707, offset: 0x1820F, size: 0x8, addend: 0x0, symName: __ZN15LiteratureEntryaSEOS_, symObjAddr: 0x7AC, symBinAddr: 0x1000041D4, symSize: 0xA4 }
  - { offsetInCU: 0xC70F, offset: 0x18217, size: 0x8, addend: 0x0, symName: __ZNK15LiteratureEntry9get_namesB5cxx11Ev, symObjAddr: 0x850, symBinAddr: 0x100004278, symSize: 0x3C }
  - { offsetInCU: 0xC749, offset: 0x18251, size: 0x8, addend: 0x0, symName: __ZN15LiteratureEntryaSERKS_, symObjAddr: 0x714, symBinAddr: 0x10000413C, symSize: 0x98 }
  - { offsetInCU: 0xC751, offset: 0x18259, size: 0x8, addend: 0x0, symName: __ZN15LiteratureEntryaSEOS_, symObjAddr: 0x7AC, symBinAddr: 0x1000041D4, symSize: 0xA4 }
  - { offsetInCU: 0xC78B, offset: 0x18293, size: 0x8, addend: 0x0, symName: __ZNSt10unique_ptrISt6vectorINSt7__cxx1112basic_stringIcSt11char_traitsIcESaIcEEESaIS6_EESt14default_deleteIS8_EEaSEOSB_, symObjAddr: 0x6EC, symBinAddr: 0x100004114, symSize: 0x28 }
  - { offsetInCU: 0xC793, offset: 0x1829B, size: 0x8, addend: 0x0, symName: __ZN15LiteratureEntryaSERKS_, symObjAddr: 0x714, symBinAddr: 0x10000413C, symSize: 0x98 }
  - { offsetInCU: 0xC7C6, offset: 0x182CE, size: 0x8, addend: 0x0, symName: __ZNSt15__uniq_ptr_dataISt6vectorINSt7__cxx1112basic_stringIcSt11char_traitsIcESaIcEEESaIS6_EESt14default_deleteIS8_ELb1ELb1EEaSEOSB_, symObjAddr: 0x6C4, symBinAddr: 0x1000040EC, symSize: 0x28 }
  - { offsetInCU: 0xC7CE, offset: 0x182D6, size: 0x8, addend: 0x0, symName: __ZNSt10unique_ptrISt6vectorINSt7__cxx1112basic_stringIcSt11char_traitsIcESaIcEEESaIS6_EESt14default_deleteIS8_EEaSEOSB_, symObjAddr: 0x6EC, symBinAddr: 0x100004114, symSize: 0x28 }
  - { offsetInCU: 0xC846, offset: 0x1834E, size: 0x8, addend: 0x0, symName: __ZN15LiteratureEntryC1EOS_, symObjAddr: 0x608, symBinAddr: 0x100004030, symSize: 0xBC }
  - { offsetInCU: 0xC84E, offset: 0x18356, size: 0x8, addend: 0x0, symName: __ZNSt15__uniq_ptr_dataISt6vectorINSt7__cxx1112basic_stringIcSt11char_traitsIcESaIcEEESaIS6_EESt14default_deleteIS8_ELb1ELb1EEaSEOSB_, symObjAddr: 0x6C4, symBinAddr: 0x1000040EC, symSize: 0x28 }
  - { offsetInCU: 0xC880, offset: 0x18388, size: 0x8, addend: 0x0, symName: __ZN15LiteratureEntryC2EOS_, symObjAddr: 0x54C, symBinAddr: 0x100003F74, symSize: 0xBC }
  - { offsetInCU: 0xC888, offset: 0x18390, size: 0x8, addend: 0x0, symName: __ZN15LiteratureEntryC1EOS_, symObjAddr: 0x608, symBinAddr: 0x100004030, symSize: 0xBC }
  - { offsetInCU: 0xC8E5, offset: 0x183ED, size: 0x8, addend: 0x0, symName: __ZN15LiteratureEntryC1ERKS_, symObjAddr: 0x4B0, symBinAddr: 0x100003ED8, symSize: 0x9C }
  - { offsetInCU: 0xC8ED, offset: 0x183F5, size: 0x8, addend: 0x0, symName: __ZN15LiteratureEntryC2EOS_, symObjAddr: 0x54C, symBinAddr: 0x100003F74, symSize: 0xBC }
  - { offsetInCU: 0xC91F, offset: 0x18427, size: 0x8, addend: 0x0, symName: __ZN15LiteratureEntryC2ERKS_, symObjAddr: 0x414, symBinAddr: 0x100003E3C, symSize: 0x9C }
  - { offsetInCU: 0xC927, offset: 0x1842F, size: 0x8, addend: 0x0, symName: __ZN15LiteratureEntryC1ERKS_, symObjAddr: 0x4B0, symBinAddr: 0x100003ED8, symSize: 0x9C }
  - { offsetInCU: 0xCA14, offset: 0x1851C, size: 0x8, addend: 0x0, symName: __ZN15LiteratureEntryC1ERKNSt7__cxx1112basic_stringIcSt11char_traitsIcESaIcEEESt10unique_ptrISt6vectorIS5_SaIS5_EESt14default_deleteISB_EEi, symObjAddr: 0x318, symBinAddr: 0x100003D40, symSize: 0xFC }
  - { offsetInCU: 0xCA1C, offset: 0x18524, size: 0x8, addend: 0x0, symName: __ZN15LiteratureEntryC2ERKS_, symObjAddr: 0x414, symBinAddr: 0x100003E3C, symSize: 0x9C }
  - { offsetInCU: 0xCA69, offset: 0x18571, size: 0x8, addend: 0x0, symName: __ZN15LiteratureEntryC2ERKNSt7__cxx1112basic_stringIcSt11char_traitsIcESaIcEEESt10unique_ptrISt6vectorIS5_SaIS5_EESt14default_deleteISB_EEi, symObjAddr: 0x21C, symBinAddr: 0x100003C44, symSize: 0xFC }
  - { offsetInCU: 0xCA71, offset: 0x18579, size: 0x8, addend: 0x0, symName: __ZN15LiteratureEntryC1ERKNSt7__cxx1112basic_stringIcSt11char_traitsIcESaIcEEESt10unique_ptrISt6vectorIS5_SaIS5_EESt14default_deleteISB_EEi, symObjAddr: 0x318, symBinAddr: 0x100003D40, symSize: 0xFC }
  - { offsetInCU: 0xCACD, offset: 0x185D5, size: 0x8, addend: 0x0, symName: __ZNSt10unique_ptrISt6vectorINSt7__cxx1112basic_stringIcSt11char_traitsIcESaIcEEESaIS6_EESt14default_deleteIS8_EEC1EOSB_, symObjAddr: 0x1F4, symBinAddr: 0x100003C1C, symSize: 0x28 }
  - { offsetInCU: 0xCAD5, offset: 0x185DD, size: 0x8, addend: 0x0, symName: __ZN15LiteratureEntryC2ERKNSt7__cxx1112basic_stringIcSt11char_traitsIcESaIcEEESt10unique_ptrISt6vectorIS5_SaIS5_EESt14default_deleteISB_EEi, symObjAddr: 0x21C, symBinAddr: 0x100003C44, symSize: 0xFC }
  - { offsetInCU: 0xCB36, offset: 0x1863E, size: 0x8, addend: 0x0, symName: __ZNSt15__uniq_ptr_dataISt6vectorINSt7__cxx1112basic_stringIcSt11char_traitsIcESaIcEEESaIS6_EESt14default_deleteIS8_ELb1ELb1EEC1EOSB_, symObjAddr: 0x1CC, symBinAddr: 0x100003BF4, symSize: 0x28 }
  - { offsetInCU: 0xCB3E, offset: 0x18646, size: 0x8, addend: 0x0, symName: __ZNSt10unique_ptrISt6vectorINSt7__cxx1112basic_stringIcSt11char_traitsIcESaIcEEESaIS6_EESt14default_deleteIS8_EEC1EOSB_, symObjAddr: 0x1F4, symBinAddr: 0x100003C1C, symSize: 0x28 }
  - { offsetInCU: 0xCB1C, offset: 0x18624, size: 0x8, addend: 0x0, symName: __ZSt3minImERKT_S2_S2_, symObjAddr: 0x194, symBinAddr: 0x100003BBC, symSize: 0x38 }
  - { offsetInCU: 0xCB24, offset: 0x1862C, size: 0x8, addend: 0x0, symName: __ZNSt15__uniq_ptr_dataISt6vectorINSt7__cxx1112basic_stringIcSt11char_traitsIcESaIcEEESaIS6_EESt14default_deleteIS8_ELb1ELb1EEC1EOSB_, symObjAddr: 0x1CC, symBinAddr: 0x100003BF4, symSize: 0x28 }
  - { offsetInCU: 0xCB56, offset: 0x1865E, size: 0x8, addend: 0x0, symName: __ZdlPvS_, symObjAddr: 0x18, symBinAddr: 0x100003BA4, symSize: 0x18 }
  - { offsetInCU: 0xCB93, offset: 0x1869B, size: 0x8, addend: 0x0, symName: __ZnwmPv, symObjAddr: 0x0, symBinAddr: 0x100003B8C, symSize: 0x18 }
  - { offsetInCU: 0xCB9B, offset: 0x186A3, size: 0x8, addend: 0x0, symName: __ZdlPvS_, symObjAddr: 0x18, symBinAddr: 0x100003BA4, symSize: 0x18 }
  - { offsetInCU: 0x5111, offset: 0x1D7ED, size: 0x8, addend: 0x0, symName: __ZStL8__ioinit, symObjAddr: 0x37960, symBinAddr: 0x10001C606, symSize: 0x0 }
  - { offsetInCU: 0x51BF, offset: 0x1D89B, size: 0x8, addend: 0x0, symName: __ZN9__gnu_cxxL21__default_lock_policyE, symObjAddr: 0x1B78, symBinAddr: 0x10000FD78, symSize: 0x0 }
  - { offsetInCU: 0x5227, offset: 0x1D903, size: 0x8, addend: 0x0, symName: __ZN6__pstl9execution2v1L3seqE, symObjAddr: 0x1B7C, symBinAddr: 0x10000FD7C, symSize: 0x0 }
  - { offsetInCU: 0x5241, offset: 0x1D91D, size: 0x8, addend: 0x0, symName: __ZN6__pstl9execution2v1L3parE, symObjAddr: 0x1B7D, symBinAddr: 0x10000FD7D, symSize: 0x0 }
  - { offsetInCU: 0x5261, offset: 0x1D93D, size: 0x8, addend: 0x0, symName: __ZN6__pstl9execution2v1L9par_unseqE, symObjAddr: 0x1B7E, symBinAddr: 0x10000FD7E, symSize: 0x0 }
  - { offsetInCU: 0x5277, offset: 0x1D953, size: 0x8, addend: 0x0, symName: __ZN6__pstl9execution2v1L5unseqE, symObjAddr: 0x1B7F, symBinAddr: 0x10000FD7F, symSize: 0x0 }
  - { offsetInCU: 0x9688, offset: 0x21D64, size: 0x8, addend: 0x0, symName: __GLOBAL__sub_I_Book.cpp, symObjAddr: 0x1B58, symBinAddr: 0x100007BE4, symSize: 0x1C }
  - { offsetInCU: 0x96B4, offset: 0x21D90, size: 0x8, addend: 0x0, symName: __Z41__static_initialization_and_destruction_0ii, symObjAddr: 0x1AF8, symBinAddr: 0x100007B84, symSize: 0x60 }
  - { offsetInCU: 0x96BC, offset: 0x21D98, size: 0x8, addend: 0x0, symName: __GLOBAL__sub_I_Book.cpp, symObjAddr: 0x1B58, symBinAddr: 0x100007BE4, symSize: 0x1C }
  - { offsetInCU: 0x9738, offset: 0x21E14, size: 0x8, addend: 0x0, symName: __ZNSt14default_deleteI15LiteratureEntryEC1I4BookvEERKS_IT_E, symObjAddr: 0x1ACC, symBinAddr: 0x100007B6C, symSize: 0x18 }
  - { offsetInCU: 0x9743, offset: 0x21E1F, size: 0x8, addend: 0x0, symName: __ZNSt10_Head_baseILm1ESt14default_deleteI4BookELb1EE7_M_headERS3_, symObjAddr: 0x1AB8, symBinAddr: 0x100007B58, symSize: 0x14 }
  - { offsetInCU: 0x974B, offset: 0x21E27, size: 0x8, addend: 0x0, symName: __ZNSt14default_deleteI15LiteratureEntryEC1I4BookvEERKS_IT_E, symObjAddr: 0x1ACC, symBinAddr: 0x100007B6C, symSize: 0x18 }
  - { offsetInCU: 0x97C6, offset: 0x21EA2, size: 0x8, addend: 0x0, symName: __ZNSt10_Head_baseILm1ESt14default_deleteI4BookELb1EEC2Ev, symObjAddr: 0x1AA4, symBinAddr: 0x100007B44, symSize: 0x14 }
  - { offsetInCU: 0x97CE, offset: 0x21EAA, size: 0x8, addend: 0x0, symName: __ZNSt10_Head_baseILm1ESt14default_deleteI4BookELb1EE7_M_headERS3_, symObjAddr: 0x1AB8, symBinAddr: 0x100007B58, symSize: 0x14 }
  - { offsetInCU: 0x984F, offset: 0x21F2B, size: 0x8, addend: 0x0, symName: __ZNSt10_Head_baseILm1ESt14default_deleteI15LiteratureEntryELb1EEC2IS0_I4BookEEEOT_, symObjAddr: 0x19D4, symBinAddr: 0x100007B08, symSize: 0x3C }
  - { offsetInCU: 0x9843, offset: 0x21F1F, size: 0x8, addend: 0x0, symName: __ZNSt11_Tuple_implILm1EJSt14default_deleteI4BookEEE7_M_headERS3_, symObjAddr: 0x19B8, symBinAddr: 0x100007AEC, symSize: 0x1C }
  - { offsetInCU: 0x984B, offset: 0x21F27, size: 0x8, addend: 0x0, symName: __ZNSt10_Head_baseILm1ESt14default_deleteI15LiteratureEntryELb1EEC2IS0_I4BookEEEOT_, symObjAddr: 0x19D4, symBinAddr: 0x100007B08, symSize: 0x3C }
  - { offsetInCU: 0x9875, offset: 0x21F51, size: 0x8, addend: 0x0, symName: __ZNSt10_Head_baseILm0EP4BookLb0EE7_M_headERS2_, symObjAddr: 0x19A4, symBinAddr: 0x100007AD8, symSize: 0x14 }
  - { offsetInCU: 0x987D, offset: 0x21F59, size: 0x8, addend: 0x0, symName: __ZNSt11_Tuple_implILm1EJSt14default_deleteI4BookEEE7_M_headERS3_, symObjAddr: 0x19B8, symBinAddr: 0x100007AEC, symSize: 0x1C }
  - { offsetInCU: 0x98E5, offset: 0x21FC1, size: 0x8, addend: 0x0, symName: __ZNSt10_Head_baseILm0EP4BookLb0EEC2Ev, symObjAddr: 0x1988, symBinAddr: 0x100007ABC, symSize: 0x1C }
  - { offsetInCU: 0x98ED, offset: 0x21FC9, size: 0x8, addend: 0x0, symName: __ZNSt10_Head_baseILm0EP4BookLb0EE7_M_headERS2_, symObjAddr: 0x19A4, symBinAddr: 0x100007AD8, symSize: 0x14 }
  - { offsetInCU: 0x993E, offset: 0x2201A, size: 0x8, addend: 0x0, symName: __ZNSt11_Tuple_implILm1EJSt14default_deleteI4BookEEEC2Ev, symObjAddr: 0x1968, symBinAddr: 0x100007A9C, symSize: 0x20 }
  - { offsetInCU: 0x9946, offset: 0x22022, size: 0x8, addend: 0x0, symName: __ZNSt10_Head_baseILm0EP4BookLb0EEC2Ev, symObjAddr: 0x1988, symBinAddr: 0x100007ABC, symSize: 0x1C }
  - { offsetInCU: 0x99A5, offset: 0x22081, size: 0x8, addend: 0x0, symName: __ZNSt10_Head_baseILm0EP15LiteratureEntryLb0EEC2IRS1_EEOT_, symObjAddr: 0x185C, symBinAddr: 0x100007A6C, symSize: 0x30 }
  - { offsetInCU: 0x9A3B, offset: 0x22117, size: 0x8, addend: 0x0, symName: __ZNSt11_Tuple_implILm1EJSt14default_deleteI15LiteratureEntryEEEC2IS0_I4BookEEEOT_, symObjAddr: 0x182C, symBinAddr: 0x100007A3C, symSize: 0x30 }
  - { offsetInCU: 0x9A43, offset: 0x2211F, size: 0x8, addend: 0x0, symName: __ZNSt10_Head_baseILm0EP15LiteratureEntryLb0EEC2IRS1_EEOT_, symObjAddr: 0x185C, symBinAddr: 0x100007A6C, symSize: 0x30 }
  - { offsetInCU: 0x9AB9, offset: 0x22195, size: 0x8, addend: 0x0, symName: __ZSt12__get_helperILm1ESt14default_deleteI4BookEJEERT0_RSt11_Tuple_implIXT_EJS3_DpT1_EE, symObjAddr: 0x1810, symBinAddr: 0x100007A20, symSize: 0x1C }
  - { offsetInCU: 0x9AC1, offset: 0x2219D, size: 0x8, addend: 0x0, symName: __ZNSt11_Tuple_implILm1EJSt14default_deleteI15LiteratureEntryEEEC2IS0_I4BookEEEOT_, symObjAddr: 0x182C, symBinAddr: 0x100007A3C, symSize: 0x30 }
  - { offsetInCU: 0x9A8F, offset: 0x2216B, size: 0x8, addend: 0x0, symName: __ZNSt11_Tuple_implILm0EJP4BookSt14default_deleteIS0_EEE7_M_headERS4_, symObjAddr: 0x17F4, symBinAddr: 0x100007A04, symSize: 0x1C }
  - { offsetInCU: 0x9A97, offset: 0x22173, size: 0x8, addend: 0x0, symName: __ZSt12__get_helperILm1ESt14default_deleteI4BookEJEERT0_RSt11_Tuple_implIXT_EJS3_DpT1_EE, symObjAddr: 0x1810, symBinAddr: 0x100007A20, symSize: 0x1C }
  - { offsetInCU: 0x9B16, offset: 0x221F2, size: 0x8, addend: 0x0, symName: __ZNSt11_Tuple_implILm0EJP4BookSt14default_deleteIS0_EEEC2Ev, symObjAddr: 0x17CC, symBinAddr: 0x1000079DC, symSize: 0x28 }
  - { offsetInCU: 0x9B1E, offset: 0x221FA, size: 0x8, addend: 0x0, symName: __ZNSt11_Tuple_implILm0EJP4BookSt14default_deleteIS0_EEE7_M_headERS4_, symObjAddr: 0x17F4, symBinAddr: 0x100007A04, symSize: 0x1C }
  - { offsetInCU: 0x9B08, offset: 0x221E4, size: 0x8, addend: 0x0, symName: __ZN9__gnu_cxx17__normal_iteratorIPNSt7__cxx1112basic_stringIcSt11char_traitsIcESaIcEEESt6vectorIS6_SaIS6_EEEpLEl, symObjAddr: 0x16DC, symBinAddr: 0x1000079A8, symSize: 0x34 }
  - { offsetInCU: 0x9C03, offset: 0x222DF, size: 0x8, addend: 0x0, symName: __ZNSt11_Tuple_implILm0EJP15LiteratureEntrySt14default_deleteIS0_EEEC2IRS1_JS2_I4BookEEvEEOT_DpOT0_, symObjAddr: 0x166C, symBinAddr: 0x100007954, symSize: 0x54 }
  - { offsetInCU: 0x9C6D, offset: 0x22349, size: 0x8, addend: 0x0, symName: __ZSt7forwardIRP15LiteratureEntryEOT_RNSt16remove_referenceIS3_E4typeE, symObjAddr: 0x1658, symBinAddr: 0x100007940, symSize: 0x14 }
  - { offsetInCU: 0x9C75, offset: 0x22351, size: 0x8, addend: 0x0, symName: __ZNSt11_Tuple_implILm0EJP15LiteratureEntrySt14default_deleteIS0_EEEC2IRS1_JS2_I4BookEEvEEOT_DpOT0_, symObjAddr: 0x166C, symBinAddr: 0x100007954, symSize: 0x54 }
  - { offsetInCU: 0x9CFD, offset: 0x223D9, size: 0x8, addend: 0x0, symName: __ZSt3getILm1EJP4BookSt14default_deleteIS0_EEERNSt13tuple_elementIXT_ESt5tupleIJDpT0_EEE4typeERS8_, symObjAddr: 0x163C, symBinAddr: 0x100007924, symSize: 0x1C }
  - { offsetInCU: 0x9D05, offset: 0x223E1, size: 0x8, addend: 0x0, symName: __ZSt7forwardIRP15LiteratureEntryEOT_RNSt16remove_referenceIS3_E4typeE, symObjAddr: 0x1658, symBinAddr: 0x100007940, symSize: 0x14 }
  - { offsetInCU: 0x9D6F, offset: 0x2244B, size: 0x8, addend: 0x0, symName: __ZSt12__get_helperILm0EP4BookJSt14default_deleteIS0_EEERT0_RSt11_Tuple_implIXT_EJS4_DpT1_EE, symObjAddr: 0x1620, symBinAddr: 0x100007908, symSize: 0x1C }
  - { offsetInCU: 0x9D77, offset: 0x22453, size: 0x8, addend: 0x0, symName: __ZSt3getILm1EJP4BookSt14default_deleteIS0_EEERNSt13tuple_elementIXT_ESt5tupleIJDpT0_EEE4typeERS8_, symObjAddr: 0x163C, symBinAddr: 0x100007924, symSize: 0x1C }
  - { offsetInCU: 0x9DA7, offset: 0x22483, size: 0x8, addend: 0x0, symName: __ZNSt5tupleIJP4BookSt14default_deleteIS0_EEEC1ILb1ELb1EEEv, symObjAddr: 0x1600, symBinAddr: 0x1000078E8, symSize: 0x20 }
  - { offsetInCU: 0x9DAF, offset: 0x2248B, size: 0x8, addend: 0x0, symName: __ZSt12__get_helperILm0EP4BookJSt14default_deleteIS0_EEERT0_RSt11_Tuple_implIXT_EJS4_DpT1_EE, symObjAddr: 0x1620, symBinAddr: 0x100007908, symSize: 0x1C }
  - { offsetInCU: 0x9ED1, offset: 0x225AD, size: 0x8, addend: 0x0, symName: __ZSt9__advanceIN9__gnu_cxx17__normal_iteratorIPNSt7__cxx1112basic_stringIcSt11char_traitsIcESaIcEEESt6vectorIS7_SaIS7_EEEElEvRT_T0_St26random_access_iterator_tag, symObjAddr: 0x14EC, symBinAddr: 0x1000078BC, symSize: 0x2C }
  - { offsetInCU: 0x9EC3, offset: 0x2259F, size: 0x8, addend: 0x0, symName: __ZNSt5tupleIJP15LiteratureEntrySt14default_deleteIS0_EEEC1IRS1_S2_I4BookELb1EEEOT_OT0_, symObjAddr: 0x1468, symBinAddr: 0x10000786C, symSize: 0x50 }
  - { offsetInCU: 0x9ECC, offset: 0x225A8, size: 0x8, addend: 0x0, symName: __ZNSt15__uniq_ptr_implI4BookSt14default_deleteIS0_EE7releaseEv, symObjAddr: 0x1434, symBinAddr: 0x100007838, symSize: 0x34 }
  - { offsetInCU: 0x9ED4, offset: 0x225B0, size: 0x8, addend: 0x0, symName: __ZNSt5tupleIJP15LiteratureEntrySt14default_deleteIS0_EEEC1IRS1_S2_I4BookELb1EEEOT_OT0_, symObjAddr: 0x1468, symBinAddr: 0x10000786C, symSize: 0x50 }
  - { offsetInCU: 0x9F0E, offset: 0x225EA, size: 0x8, addend: 0x0, symName: __ZNSt15__uniq_ptr_implI4BookSt14default_deleteIS0_EE10_M_deleterEv, symObjAddr: 0x1418, symBinAddr: 0x10000781C, symSize: 0x1C }
  - { offsetInCU: 0x9F16, offset: 0x225F2, size: 0x8, addend: 0x0, symName: __ZNSt15__uniq_ptr_implI4BookSt14default_deleteIS0_EE7releaseEv, symObjAddr: 0x1434, symBinAddr: 0x100007838, symSize: 0x34 }
  - { offsetInCU: 0x9FDE, offset: 0x226BA, size: 0x8, addend: 0x0, symName: __ZSt3getILm0EJP4BookSt14default_deleteIS0_EEERNSt13tuple_elementIXT_ESt5tupleIJDpT0_EEE4typeERS8_, symObjAddr: 0x13FC, symBinAddr: 0x100007800, symSize: 0x1C }
  - { offsetInCU: 0x9FE6, offset: 0x226C2, size: 0x8, addend: 0x0, symName: __ZNSt15__uniq_ptr_implI4BookSt14default_deleteIS0_EE10_M_deleterEv, symObjAddr: 0x1418, symBinAddr: 0x10000781C, symSize: 0x1C }
  - { offsetInCU: 0xA022, offset: 0x226FE, size: 0x8, addend: 0x0, symName: __ZNSt15__uniq_ptr_implI4BookSt14default_deleteIS0_EEC2EPS0_, symObjAddr: 0x13C0, symBinAddr: 0x1000077C4, symSize: 0x3C }
  - { offsetInCU: 0xA02A, offset: 0x22706, size: 0x8, addend: 0x0, symName: __ZSt3getILm0EJP4BookSt14default_deleteIS0_EEERNSt13tuple_elementIXT_ESt5tupleIJDpT0_EEE4typeERS8_, symObjAddr: 0x13FC, symBinAddr: 0x100007800, symSize: 0x1C }
  - { offsetInCU: 0xA126, offset: 0x22802, size: 0x8, addend: 0x0, symName: __ZSt7advanceIN9__gnu_cxx17__normal_iteratorIPNSt7__cxx1112basic_stringIcSt11char_traitsIcESaIcEEESt6vectorIS7_SaIS7_EEEElEvRT_T0_, symObjAddr: 0x129C, symBinAddr: 0x100007780, symSize: 0x44 }
  - { offsetInCU: 0xA134, offset: 0x22810, size: 0x8, addend: 0x0, symName: __ZNSt15__uniq_ptr_implI15LiteratureEntrySt14default_deleteIS0_EEC2IS1_I4BookEEEPS0_OT_, symObjAddr: 0x11CC, symBinAddr: 0x100007734, symSize: 0x4C }
  - { offsetInCU: 0xA1A4, offset: 0x22880, size: 0x8, addend: 0x0, symName: __ZSt7forwardISt14default_deleteI4BookEEOT_RNSt16remove_referenceIS3_E4typeE, symObjAddr: 0x11B8, symBinAddr: 0x100007720, symSize: 0x14 }
  - { offsetInCU: 0xA1AC, offset: 0x22888, size: 0x8, addend: 0x0, symName: __ZNSt15__uniq_ptr_implI15LiteratureEntrySt14default_deleteIS0_EEC2IS1_I4BookEEEPS0_OT_, symObjAddr: 0x11CC, symBinAddr: 0x100007734, symSize: 0x4C }
  - { offsetInCU: 0xA184, offset: 0x22860, size: 0x8, addend: 0x0, symName: __ZNSt10unique_ptrI4BookSt14default_deleteIS0_EE7releaseEv, symObjAddr: 0x119C, symBinAddr: 0x100007704, symSize: 0x1C }
  - { offsetInCU: 0xA18C, offset: 0x22868, size: 0x8, addend: 0x0, symName: __ZSt7forwardISt14default_deleteI4BookEEOT_RNSt16remove_referenceIS3_E4typeE, symObjAddr: 0x11B8, symBinAddr: 0x100007720, symSize: 0x14 }
  - { offsetInCU: 0xA1B3, offset: 0x2288F, size: 0x8, addend: 0x0, symName: __ZNKSt14default_deleteI4BookEclEPS0_, symObjAddr: 0x1164, symBinAddr: 0x1000076CC, symSize: 0x38 }
  - { offsetInCU: 0xA1BB, offset: 0x22897, size: 0x8, addend: 0x0, symName: __ZNSt10unique_ptrI4BookSt14default_deleteIS0_EE7releaseEv, symObjAddr: 0x119C, symBinAddr: 0x100007704, symSize: 0x1C }
  - { offsetInCU: 0xA23D, offset: 0x22919, size: 0x8, addend: 0x0, symName: __ZSt4moveIRP4BookEONSt16remove_referenceIT_E4typeEOS4_, symObjAddr: 0x1150, symBinAddr: 0x1000076B8, symSize: 0x14 }
  - { offsetInCU: 0xA245, offset: 0x22921, size: 0x8, addend: 0x0, symName: __ZNKSt14default_deleteI4BookEclEPS0_, symObjAddr: 0x1164, symBinAddr: 0x1000076CC, symSize: 0x38 }
  - { offsetInCU: 0xA249, offset: 0x22925, size: 0x8, addend: 0x0, symName: __ZNSt10unique_ptrI4BookSt14default_deleteIS0_EE11get_deleterEv, symObjAddr: 0x1134, symBinAddr: 0x10000769C, symSize: 0x1C }
  - { offsetInCU: 0xA251, offset: 0x2292D, size: 0x8, addend: 0x0, symName: __ZSt4moveIRP4BookEONSt16remove_referenceIT_E4typeEOS4_, symObjAddr: 0x1150, symBinAddr: 0x1000076B8, symSize: 0x14 }
  - { offsetInCU: 0xA278, offset: 0x22954, size: 0x8, addend: 0x0, symName: __ZNSt15__uniq_ptr_implI4BookSt14default_deleteIS0_EE6_M_ptrEv, symObjAddr: 0x1118, symBinAddr: 0x100007680, symSize: 0x1C }
  - { offsetInCU: 0xA280, offset: 0x2295C, size: 0x8, addend: 0x0, symName: __ZNSt10unique_ptrI4BookSt14default_deleteIS0_EE11get_deleterEv, symObjAddr: 0x1134, symBinAddr: 0x10000769C, symSize: 0x1C }
  - { offsetInCU: 0xA31C, offset: 0x229F8, size: 0x8, addend: 0x0, symName: __ZNSt10unique_ptrI4BookSt14default_deleteIS0_EEC1IS2_vEEPS0_, symObjAddr: 0x10F0, symBinAddr: 0x100007658, symSize: 0x28 }
  - { offsetInCU: 0xA324, offset: 0x22A00, size: 0x8, addend: 0x0, symName: __ZNSt15__uniq_ptr_implI4BookSt14default_deleteIS0_EE6_M_ptrEv, symObjAddr: 0x1118, symBinAddr: 0x100007680, symSize: 0x1C }
  - { offsetInCU: 0xA3AC, offset: 0x22A88, size: 0x8, addend: 0x0, symName: __ZNSt15__uniq_ptr_dataI4BookSt14default_deleteIS0_ELb1ELb1EECI1St15__uniq_ptr_implIS0_S2_EEPS0_, symObjAddr: 0x10C8, symBinAddr: 0x100007630, symSize: 0x28 }
  - { offsetInCU: 0xA3B4, offset: 0x22A90, size: 0x8, addend: 0x0, symName: __ZNSt10unique_ptrI4BookSt14default_deleteIS0_EEC1IS2_vEEPS0_, symObjAddr: 0x10F0, symBinAddr: 0x100007658, symSize: 0x28 }
  - { offsetInCU: 0xA3D9, offset: 0x22AB5, size: 0x8, addend: 0x0, symName: __ZSt7forwardIRK4BookEOT_RNSt16remove_referenceIS3_E4typeE, symObjAddr: 0x10B4, symBinAddr: 0x10000761C, symSize: 0x14 }
  - { offsetInCU: 0xA3E1, offset: 0x22ABD, size: 0x8, addend: 0x0, symName: __ZNSt15__uniq_ptr_dataI4BookSt14default_deleteIS0_ELb1ELb1EECI1St15__uniq_ptr_implIS0_S2_EEPS0_, symObjAddr: 0x10C8, symBinAddr: 0x100007630, symSize: 0x28 }
  - { offsetInCU: 0xA4FD, offset: 0x22BD9, size: 0x8, addend: 0x0, symName: __ZSt4nextIN9__gnu_cxx17__normal_iteratorIPNSt7__cxx1112basic_stringIcSt11char_traitsIcESaIcEEESt6vectorIS7_SaIS7_EEEEET_SD_NSt15iterator_traitsISD_E15difference_typeE, symObjAddr: 0xEA8, symBinAddr: 0x1000075F4, symSize: 0x28 }
  - { offsetInCU: 0xA4A8, offset: 0x22B84, size: 0x8, addend: 0x0, symName: __Z17check_nonnegativeIfET_S0_RKNSt7__cxx1112basic_stringIcSt11char_traitsIcESaIcEEE, symObjAddr: 0xC68, symBinAddr: 0x100007544, symSize: 0xB0 }
  - { offsetInCU: 0xA531, offset: 0x22C0D, size: 0x8, addend: 0x0, symName: __ZNSt10unique_ptrI15LiteratureEntrySt14default_deleteIS0_EEC1I4BookS1_IS5_EvEEOS_IT_T0_E, symObjAddr: 0xC18, symBinAddr: 0x1000074F4, symSize: 0x50 }
  - { offsetInCU: 0xA539, offset: 0x22C15, size: 0x8, addend: 0x0, symName: __Z17check_nonnegativeIfET_S0_RKNSt7__cxx1112basic_stringIcSt11char_traitsIcESaIcEEE, symObjAddr: 0xC68, symBinAddr: 0x100007544, symSize: 0xB0 }
  - { offsetInCU: 0xA5E2, offset: 0x22CBE, size: 0x8, addend: 0x0, symName: __ZNSt15__uniq_ptr_dataI15LiteratureEntrySt14default_deleteIS0_ELb1ELb1EECI1St15__uniq_ptr_implIS0_S2_EIS1_I4BookEEEPS0_OT_, symObjAddr: 0xBE8, symBinAddr: 0x1000074C4, symSize: 0x30 }
  - { offsetInCU: 0xA5EA, offset: 0x22CC6, size: 0x8, addend: 0x0, symName: __ZNSt10unique_ptrI15LiteratureEntrySt14default_deleteIS0_EEC1I4BookS1_IS5_EvEEOS_IT_T0_E, symObjAddr: 0xC18, symBinAddr: 0x1000074F4, symSize: 0x50 }
  - { offsetInCU: 0xA628, offset: 0x22D04, size: 0x8, addend: 0x0, symName: __ZNSt10unique_ptrI4BookSt14default_deleteIS0_EED1Ev, symObjAddr: 0xB80, symBinAddr: 0x10000745C, symSize: 0x68 }
  - { offsetInCU: 0xA630, offset: 0x22D0C, size: 0x8, addend: 0x0, symName: __ZNSt15__uniq_ptr_dataI15LiteratureEntrySt14default_deleteIS0_ELb1ELb1EECI1St15__uniq_ptr_implIS0_S2_EIS1_I4BookEEEPS0_OT_, symObjAddr: 0xBE8, symBinAddr: 0x1000074C4, symSize: 0x30 }
  - { offsetInCU: 0xA6C8, offset: 0x22DA4, size: 0x8, addend: 0x0, symName: __ZSt11make_uniqueI4BookJRKS0_EENSt9_MakeUniqIT_E15__single_objectEDpOT0_, symObjAddr: 0xB08, symBinAddr: 0x1000073E4, symSize: 0x78 }
  - { offsetInCU: 0xA6D0, offset: 0x22DAC, size: 0x8, addend: 0x0, symName: __ZNSt10unique_ptrI4BookSt14default_deleteIS0_EED1Ev, symObjAddr: 0xB80, symBinAddr: 0x10000745C, symSize: 0x68 }
  - { offsetInCU: 0xA6E9, offset: 0x22DC5, size: 0x8, addend: 0x0, symName: __ZN4BookC1ERKS_, symObjAddr: 0xA58, symBinAddr: 0x100007334, symSize: 0xB0 }
  - { offsetInCU: 0xA6F1, offset: 0x22DCD, size: 0x8, addend: 0x0, symName: __ZSt11make_uniqueI4BookJRKS0_EENSt9_MakeUniqIT_E15__single_objectEDpOT0_, symObjAddr: 0xB08, symBinAddr: 0x1000073E4, symSize: 0x78 }
  - { offsetInCU: 0xA713, offset: 0x22DEF, size: 0x8, addend: 0x0, symName: __ZNK4Book12print_bibtexEv, symObjAddr: 0x5E8, symBinAddr: 0x1000070C4, symSize: 0x270 }
  - { offsetInCU: 0xA767, offset: 0x22E43, size: 0x8, addend: 0x0, symName: __ZNK4Book10print_dataEv, symObjAddr: 0x4A8, symBinAddr: 0x100006F84, symSize: 0x140 }
  - { offsetInCU: 0xA76F, offset: 0x22E4B, size: 0x8, addend: 0x0, symName: __ZNK4Book12print_bibtexEv, symObjAddr: 0x5E8, symBinAddr: 0x1000070C4, symSize: 0x270 }
  - { offsetInCU: 0xA89B, offset: 0x22F77, size: 0x8, addend: 0x0, symName: __ZN4BookC1ERKNSt7__cxx1112basic_stringIcSt11char_traitsIcESaIcEEESt10unique_ptrISt6vectorIS5_SaIS5_EESt14default_deleteISB_EEiS7_S7_f, symObjAddr: 0x350, symBinAddr: 0x100006E2C, symSize: 0x158 }
  - { offsetInCU: 0xA8A3, offset: 0x22F7F, size: 0x8, addend: 0x0, symName: __ZNK4Book10print_dataEv, symObjAddr: 0x4A8, symBinAddr: 0x100006F84, symSize: 0x140 }
  - { offsetInCU: 0xA917, offset: 0x22FF3, size: 0x8, addend: 0x0, symName: __ZN4BookC2ERKNSt7__cxx1112basic_stringIcSt11char_traitsIcESaIcEEESt10unique_ptrISt6vectorIS5_SaIS5_EESt14default_deleteISB_EEiS7_S7_f, symObjAddr: 0x1F8, symBinAddr: 0x100006CD4, symSize: 0x158 }
  - { offsetInCU: 0xA91F, offset: 0x22FFB, size: 0x8, addend: 0x0, symName: __ZN4BookC1ERKNSt7__cxx1112basic_stringIcSt11char_traitsIcESaIcEEESt10unique_ptrISt6vectorIS5_SaIS5_EESt14default_deleteISB_EEiS7_S7_f, symObjAddr: 0x350, symBinAddr: 0x100006E2C, symSize: 0x158 }
  - { offsetInCU: 0xA90D, offset: 0x22FE9, size: 0x8, addend: 0x0, symName: __ZNK4Book8get_typeB5cxx11Ev, symObjAddr: 0x144, symBinAddr: 0x100006C70, symSize: 0x64 }
  - { offsetInCU: 0xA93C, offset: 0x23018, size: 0x8, addend: 0x0, symName: __ZNK4Book5cloneEv, symObjAddr: 0xF4, symBinAddr: 0x100006C20, symSize: 0x50 }
  - { offsetInCU: 0xA944, offset: 0x23020, size: 0x8, addend: 0x0, symName: __ZNK4Book8get_typeB5cxx11Ev, symObjAddr: 0x144, symBinAddr: 0x100006C70, symSize: 0x64 }
  - { offsetInCU: 0xA99F, offset: 0x2307B, size: 0x8, addend: 0x0, symName: __ZN4BookD0Ev, symObjAddr: 0xCC, symBinAddr: 0x100006BF8, symSize: 0x28 }
  - { offsetInCU: 0xA9A7, offset: 0x23083, size: 0x8, addend: 0x0, symName: __ZNK4Book5cloneEv, symObjAddr: 0xF4, symBinAddr: 0x100006C20, symSize: 0x50 }
  - { offsetInCU: 0xA9CD, offset: 0x230A9, size: 0x8, addend: 0x0, symName: __ZN4BookD1Ev, symObjAddr: 0x84, symBinAddr: 0x100006BB0, symSize: 0x48 }
  - { offsetInCU: 0xA9D5, offset: 0x230B1, size: 0x8, addend: 0x0, symName: __ZN4BookD0Ev, symObjAddr: 0xCC, symBinAddr: 0x100006BF8, symSize: 0x28 }
  - { offsetInCU: 0xAA2E, offset: 0x2310A, size: 0x8, addend: 0x0, symName: __ZN15LiteratureEntryD2Ev, symObjAddr: 0x40, symBinAddr: 0x100006B6C, symSize: 0x44 }
  - { offsetInCU: 0xAA36, offset: 0x23112, size: 0x8, addend: 0x0, symName: __ZN4BookD1Ev, symObjAddr: 0x84, symBinAddr: 0x100006BB0, symSize: 0x48 }
  - { offsetInCU: 0x5111, offset: 0x28239, size: 0x8, addend: 0x0, symName: __ZStL8__ioinit, symObjAddr: 0x36BE0, symBinAddr: 0x10001C607, symSize: 0x0 }
  - { offsetInCU: 0x51BF, offset: 0x282E7, size: 0x8, addend: 0x0, symName: __ZN9__gnu_cxxL21__default_lock_policyE, symObjAddr: 0x1A88, symBinAddr: 0x10000FD88, symSize: 0x0 }
  - { offsetInCU: 0x5227, offset: 0x2834F, size: 0x8, addend: 0x0, symName: __ZN6__pstl9execution2v1L3seqE, symObjAddr: 0x1A8C, symBinAddr: 0x10000FD8C, symSize: 0x0 }
  - { offsetInCU: 0x5241, offset: 0x28369, size: 0x8, addend: 0x0, symName: __ZN6__pstl9execution2v1L3parE, symObjAddr: 0x1A8D, symBinAddr: 0x10000FD8D, symSize: 0x0 }
  - { offsetInCU: 0x5261, offset: 0x28389, size: 0x8, addend: 0x0, symName: __ZN6__pstl9execution2v1L9par_unseqE, symObjAddr: 0x1A8E, symBinAddr: 0x10000FD8E, symSize: 0x0 }
  - { offsetInCU: 0x5277, offset: 0x2839F, size: 0x8, addend: 0x0, symName: __ZN6__pstl9execution2v1L5unseqE, symObjAddr: 0x1A8F, symBinAddr: 0x10000FD8F, symSize: 0x0 }
  - { offsetInCU: 0x92FC, offset: 0x2C424, size: 0x8, addend: 0x0, symName: __GLOBAL__sub_I_Journal.cpp, symObjAddr: 0x1A68, symBinAddr: 0x1000089B0, symSize: 0x1C }
  - { offsetInCU: 0x9325, offset: 0x2C44D, size: 0x8, addend: 0x0, symName: __Z41__static_initialization_and_destruction_0ii, symObjAddr: 0x1A08, symBinAddr: 0x100008950, symSize: 0x60 }
  - { offsetInCU: 0x932D, offset: 0x2C455, size: 0x8, addend: 0x0, symName: __GLOBAL__sub_I_Journal.cpp, symObjAddr: 0x1A68, symBinAddr: 0x1000089B0, symSize: 0x1C }
  - { offsetInCU: 0x93AC, offset: 0x2C4D4, size: 0x8, addend: 0x0, symName: __ZNSt14default_deleteI15LiteratureEntryEC1I7JournalvEERKS_IT_E, symObjAddr: 0x19DC, symBinAddr: 0x100008938, symSize: 0x18 }
  - { offsetInCU: 0x93B4, offset: 0x2C4DC, size: 0x8, addend: 0x0, symName: __ZNSt10_Head_baseILm1ESt14default_deleteI7JournalELb1EE7_M_headERS3_, symObjAddr: 0x19C8, symBinAddr: 0x100008924, symSize: 0x14 }
  - { offsetInCU: 0x93BC, offset: 0x2C4E4, size: 0x8, addend: 0x0, symName: __ZNSt14default_deleteI15LiteratureEntryEC1I7JournalvEERKS_IT_E, symObjAddr: 0x19DC, symBinAddr: 0x100008938, symSize: 0x18 }
  - { offsetInCU: 0x943A, offset: 0x2C562, size: 0x8, addend: 0x0, symName: __ZNSt10_Head_baseILm1ESt14default_deleteI7JournalELb1EEC2Ev, symObjAddr: 0x19B4, symBinAddr: 0x100008910, symSize: 0x14 }
  - { offsetInCU: 0x9442, offset: 0x2C56A, size: 0x8, addend: 0x0, symName: __ZNSt10_Head_baseILm1ESt14default_deleteI7JournalELb1EE7_M_headERS3_, symObjAddr: 0x19C8, symBinAddr: 0x100008924, symSize: 0x14 }
  - { offsetInCU: 0x94C3, offset: 0x2C5EB, size: 0x8, addend: 0x0, symName: __ZNSt10_Head_baseILm1ESt14default_deleteI15LiteratureEntryELb1EEC2IS0_I7JournalEEEOT_, symObjAddr: 0x18E4, symBinAddr: 0x1000088D4, symSize: 0x3C }
  - { offsetInCU: 0x94B4, offset: 0x2C5DC, size: 0x8, addend: 0x0, symName: __ZNSt11_Tuple_implILm1EJSt14default_deleteI7JournalEEE7_M_headERS3_, symObjAddr: 0x18C8, symBinAddr: 0x1000088B8, symSize: 0x1C }
  - { offsetInCU: 0x94BC, offset: 0x2C5E4, size: 0x8, addend: 0x0, symName: __ZNSt10_Head_baseILm1ESt14default_deleteI15LiteratureEntryELb1EEC2IS0_I7JournalEEEOT_, symObjAddr: 0x18E4, symBinAddr: 0x1000088D4, symSize: 0x3C }
  - { offsetInCU: 0x94E6, offset: 0x2C60E, size: 0x8, addend: 0x0, symName: __ZNSt10_Head_baseILm0EP7JournalLb0EE7_M_headERS2_, symObjAddr: 0x18B4, symBinAddr: 0x1000088A4, symSize: 0x14 }
  - { offsetInCU: 0x94EE, offset: 0x2C616, size: 0x8, addend: 0x0, symName: __ZNSt11_Tuple_implILm1EJSt14default_deleteI7JournalEEE7_M_headERS3_, symObjAddr: 0x18C8, symBinAddr: 0x1000088B8, symSize: 0x1C }
  - { offsetInCU: 0x9559, offset: 0x2C681, size: 0x8, addend: 0x0, symName: __ZNSt10_Head_baseILm0EP7JournalLb0EEC2Ev, symObjAddr: 0x1898, symBinAddr: 0x100008888, symSize: 0x1C }
  - { offsetInCU: 0x9561, offset: 0x2C689, size: 0x8, addend: 0x0, symName: __ZNSt10_Head_baseILm0EP7JournalLb0EE7_M_headERS2_, symObjAddr: 0x18B4, symBinAddr: 0x1000088A4, symSize: 0x14 }
  - { offsetInCU: 0x95B2, offset: 0x2C6DA, size: 0x8, addend: 0x0, symName: __ZNSt11_Tuple_implILm1EJSt14default_deleteI7JournalEEEC2Ev, symObjAddr: 0x1878, symBinAddr: 0x100008868, symSize: 0x20 }
  - { offsetInCU: 0x95BA, offset: 0x2C6E2, size: 0x8, addend: 0x0, symName: __ZNSt10_Head_baseILm0EP7JournalLb0EEC2Ev, symObjAddr: 0x1898, symBinAddr: 0x100008888, symSize: 0x1C }
  - { offsetInCU: 0x9631, offset: 0x2C759, size: 0x8, addend: 0x0, symName: __ZNSt11_Tuple_implILm1EJSt14default_deleteI15LiteratureEntryEEEC2IS0_I7JournalEEEOT_, symObjAddr: 0x173C, symBinAddr: 0x100008838, symSize: 0x30 }
  - { offsetInCU: 0x96B2, offset: 0x2C7DA, size: 0x8, addend: 0x0, symName: __ZSt12__get_helperILm1ESt14default_deleteI7JournalEJEERT0_RSt11_Tuple_implIXT_EJS3_DpT1_EE, symObjAddr: 0x1720, symBinAddr: 0x10000881C, symSize: 0x1C }
  - { offsetInCU: 0x96BA, offset: 0x2C7E2, size: 0x8, addend: 0x0, symName: __ZNSt11_Tuple_implILm1EJSt14default_deleteI15LiteratureEntryEEEC2IS0_I7JournalEEEOT_, symObjAddr: 0x173C, symBinAddr: 0x100008838, symSize: 0x30 }
  - { offsetInCU: 0x9682, offset: 0x2C7AA, size: 0x8, addend: 0x0, symName: __ZNSt11_Tuple_implILm0EJP7JournalSt14default_deleteIS0_EEE7_M_headERS4_, symObjAddr: 0x1704, symBinAddr: 0x100008800, symSize: 0x1C }
  - { offsetInCU: 0x968A, offset: 0x2C7B2, size: 0x8, addend: 0x0, symName: __ZSt12__get_helperILm1ESt14default_deleteI7JournalEJEERT0_RSt11_Tuple_implIXT_EJS3_DpT1_EE, symObjAddr: 0x1720, symBinAddr: 0x10000881C, symSize: 0x1C }
  - { offsetInCU: 0x970C, offset: 0x2C834, size: 0x8, addend: 0x0, symName: __ZNSt11_Tuple_implILm0EJP7JournalSt14default_deleteIS0_EEEC2Ev, symObjAddr: 0x16DC, symBinAddr: 0x1000087D8, symSize: 0x28 }
  - { offsetInCU: 0x9714, offset: 0x2C83C, size: 0x8, addend: 0x0, symName: __ZNSt11_Tuple_implILm0EJP7JournalSt14default_deleteIS0_EEE7_M_headERS4_, symObjAddr: 0x1704, symBinAddr: 0x100008800, symSize: 0x1C }
  - { offsetInCU: 0x97B6, offset: 0x2C8DE, size: 0x8, addend: 0x0, symName: __ZNSt11_Tuple_implILm0EJP15LiteratureEntrySt14default_deleteIS0_EEEC2IRS1_JS2_I7JournalEEvEEOT_DpOT0_, symObjAddr: 0x15B0, symBinAddr: 0x100008784, symSize: 0x54 }
  - { offsetInCU: 0x9862, offset: 0x2C98A, size: 0x8, addend: 0x0, symName: __ZSt3getILm1EJP7JournalSt14default_deleteIS0_EEERNSt13tuple_elementIXT_ESt5tupleIJDpT0_EEE4typeERS8_, symObjAddr: 0x1580, symBinAddr: 0x100008768, symSize: 0x1C }
  - { offsetInCU: 0x98D4, offset: 0x2C9FC, size: 0x8, addend: 0x0, symName: __ZSt12__get_helperILm0EP7JournalJSt14default_deleteIS0_EEERT0_RSt11_Tuple_implIXT_EJS4_DpT1_EE, symObjAddr: 0x1564, symBinAddr: 0x10000874C, symSize: 0x1C }
  - { offsetInCU: 0x98DC, offset: 0x2CA04, size: 0x8, addend: 0x0, symName: __ZSt3getILm1EJP7JournalSt14default_deleteIS0_EEERNSt13tuple_elementIXT_ESt5tupleIJDpT0_EEE4typeERS8_, symObjAddr: 0x1580, symBinAddr: 0x100008768, symSize: 0x1C }
  - { offsetInCU: 0x9906, offset: 0x2CA2E, size: 0x8, addend: 0x0, symName: __ZNSt5tupleIJP7JournalSt14default_deleteIS0_EEEC1ILb1ELb1EEEv, symObjAddr: 0x1544, symBinAddr: 0x10000872C, symSize: 0x20 }
  - { offsetInCU: 0x990E, offset: 0x2CA36, size: 0x8, addend: 0x0, symName: __ZSt12__get_helperILm0EP7JournalJSt14default_deleteIS0_EEERT0_RSt11_Tuple_implIXT_EJS4_DpT1_EE, symObjAddr: 0x1564, symBinAddr: 0x10000874C, symSize: 0x1C }
  - { offsetInCU: 0x99B4, offset: 0x2CADC, size: 0x8, addend: 0x0, symName: __ZNSt5tupleIJP15LiteratureEntrySt14default_deleteIS0_EEEC1IRS1_S2_I7JournalELb1EEEOT_OT0_, symObjAddr: 0x13EC, symBinAddr: 0x1000086DC, symSize: 0x50 }
  - { offsetInCU: 0x99BA, offset: 0x2CAE2, size: 0x8, addend: 0x0, symName: __ZNSt15__uniq_ptr_implI7JournalSt14default_deleteIS0_EE7releaseEv, symObjAddr: 0x13B8, symBinAddr: 0x1000086A8, symSize: 0x34 }
  - { offsetInCU: 0x99C2, offset: 0x2CAEA, size: 0x8, addend: 0x0, symName: __ZNSt5tupleIJP15LiteratureEntrySt14default_deleteIS0_EEEC1IRS1_S2_I7JournalELb1EEEOT_OT0_, symObjAddr: 0x13EC, symBinAddr: 0x1000086DC, symSize: 0x50 }
  - { offsetInCU: 0x99FC, offset: 0x2CB24, size: 0x8, addend: 0x0, symName: __ZNSt15__uniq_ptr_implI7JournalSt14default_deleteIS0_EE10_M_deleterEv, symObjAddr: 0x139C, symBinAddr: 0x10000868C, symSize: 0x1C }
  - { offsetInCU: 0x9A04, offset: 0x2CB2C, size: 0x8, addend: 0x0, symName: __ZNSt15__uniq_ptr_implI7JournalSt14default_deleteIS0_EE7releaseEv, symObjAddr: 0x13B8, symBinAddr: 0x1000086A8, symSize: 0x34 }
  - { offsetInCU: 0x9AD5, offset: 0x2CBFD, size: 0x8, addend: 0x0, symName: __ZSt3getILm0EJP7JournalSt14default_deleteIS0_EEERNSt13tuple_elementIXT_ESt5tupleIJDpT0_EEE4typeERS8_, symObjAddr: 0x1380, symBinAddr: 0x100008670, symSize: 0x1C }
  - { offsetInCU: 0x9ADD, offset: 0x2CC05, size: 0x8, addend: 0x0, symName: __ZNSt15__uniq_ptr_implI7JournalSt14default_deleteIS0_EE10_M_deleterEv, symObjAddr: 0x139C, symBinAddr: 0x10000868C, symSize: 0x1C }
  - { offsetInCU: 0x9B13, offset: 0x2CC3B, size: 0x8, addend: 0x0, symName: __ZNSt15__uniq_ptr_implI7JournalSt14default_deleteIS0_EEC2EPS0_, symObjAddr: 0x1344, symBinAddr: 0x100008634, symSize: 0x3C }
  - { offsetInCU: 0x9B1B, offset: 0x2CC43, size: 0x8, addend: 0x0, symName: __ZSt3getILm0EJP7JournalSt14default_deleteIS0_EEERNSt13tuple_elementIXT_ESt5tupleIJDpT0_EEE4typeERS8_, symObjAddr: 0x1380, symBinAddr: 0x100008670, symSize: 0x1C }
  - { offsetInCU: 0x9BB0, offset: 0x2CCD8, size: 0x8, addend: 0x0, symName: __ZNSt15__uniq_ptr_implI15LiteratureEntrySt14default_deleteIS0_EEC2IS1_I7JournalEEEPS0_OT_, symObjAddr: 0x1194, symBinAddr: 0x1000085E8, symSize: 0x4C }
  - { offsetInCU: 0x9C23, offset: 0x2CD4B, size: 0x8, addend: 0x0, symName: __ZSt7forwardISt14default_deleteI7JournalEEOT_RNSt16remove_referenceIS3_E4typeE, symObjAddr: 0x1180, symBinAddr: 0x1000085D4, symSize: 0x14 }
  - { offsetInCU: 0x9C2B, offset: 0x2CD53, size: 0x8, addend: 0x0, symName: __ZNSt15__uniq_ptr_implI15LiteratureEntrySt14default_deleteIS0_EEC2IS1_I7JournalEEEPS0_OT_, symObjAddr: 0x1194, symBinAddr: 0x1000085E8, symSize: 0x4C }
  - { offsetInCU: 0x9BFD, offset: 0x2CD25, size: 0x8, addend: 0x0, symName: __ZNSt10unique_ptrI7JournalSt14default_deleteIS0_EE7releaseEv, symObjAddr: 0x1164, symBinAddr: 0x1000085B8, symSize: 0x1C }
  - { offsetInCU: 0x9C05, offset: 0x2CD2D, size: 0x8, addend: 0x0, symName: __ZSt7forwardISt14default_deleteI7JournalEEOT_RNSt16remove_referenceIS3_E4typeE, symObjAddr: 0x1180, symBinAddr: 0x1000085D4, symSize: 0x14 }
  - { offsetInCU: 0x9C2C, offset: 0x2CD54, size: 0x8, addend: 0x0, symName: __ZNKSt14default_deleteI7JournalEclEPS0_, symObjAddr: 0x112C, symBinAddr: 0x100008580, symSize: 0x38 }
  - { offsetInCU: 0x9C34, offset: 0x2CD5C, size: 0x8, addend: 0x0, symName: __ZNSt10unique_ptrI7JournalSt14default_deleteIS0_EE7releaseEv, symObjAddr: 0x1164, symBinAddr: 0x1000085B8, symSize: 0x1C }
  - { offsetInCU: 0x9CBC, offset: 0x2CDE4, size: 0x8, addend: 0x0, symName: __ZSt4moveIRP7JournalEONSt16remove_referenceIT_E4typeEOS4_, symObjAddr: 0x1118, symBinAddr: 0x10000856C, symSize: 0x14 }
  - { offsetInCU: 0x9CC4, offset: 0x2CDEC, size: 0x8, addend: 0x0, symName: __ZNKSt14default_deleteI7JournalEclEPS0_, symObjAddr: 0x112C, symBinAddr: 0x100008580, symSize: 0x38 }
  - { offsetInCU: 0x9CC2, offset: 0x2CDEA, size: 0x8, addend: 0x0, symName: __ZNSt10unique_ptrI7JournalSt14default_deleteIS0_EE11get_deleterEv, symObjAddr: 0x10FC, symBinAddr: 0x100008550, symSize: 0x1C }
  - { offsetInCU: 0x9CCA, offset: 0x2CDF2, size: 0x8, addend: 0x0, symName: __ZSt4moveIRP7JournalEONSt16remove_referenceIT_E4typeEOS4_, symObjAddr: 0x1118, symBinAddr: 0x10000856C, symSize: 0x14 }
  - { offsetInCU: 0x9CF1, offset: 0x2CE19, size: 0x8, addend: 0x0, symName: __ZNSt15__uniq_ptr_implI7JournalSt14default_deleteIS0_EE6_M_ptrEv, symObjAddr: 0x10E0, symBinAddr: 0x100008534, symSize: 0x1C }
  - { offsetInCU: 0x9CF9, offset: 0x2CE21, size: 0x8, addend: 0x0, symName: __ZNSt10unique_ptrI7JournalSt14default_deleteIS0_EE11get_deleterEv, symObjAddr: 0x10FC, symBinAddr: 0x100008550, symSize: 0x1C }
  - { offsetInCU: 0x9D98, offset: 0x2CEC0, size: 0x8, addend: 0x0, symName: __ZNSt10unique_ptrI7JournalSt14default_deleteIS0_EEC1IS2_vEEPS0_, symObjAddr: 0x10B8, symBinAddr: 0x10000850C, symSize: 0x28 }
  - { offsetInCU: 0x9DA0, offset: 0x2CEC8, size: 0x8, addend: 0x0, symName: __ZNSt15__uniq_ptr_implI7JournalSt14default_deleteIS0_EE6_M_ptrEv, symObjAddr: 0x10E0, symBinAddr: 0x100008534, symSize: 0x1C }
  - { offsetInCU: 0x9E28, offset: 0x2CF50, size: 0x8, addend: 0x0, symName: __ZNSt15__uniq_ptr_dataI7JournalSt14default_deleteIS0_ELb1ELb1EECI1St15__uniq_ptr_implIS0_S2_EEPS0_, symObjAddr: 0x1090, symBinAddr: 0x1000084E4, symSize: 0x28 }
  - { offsetInCU: 0x9E30, offset: 0x2CF58, size: 0x8, addend: 0x0, symName: __ZNSt10unique_ptrI7JournalSt14default_deleteIS0_EEC1IS2_vEEPS0_, symObjAddr: 0x10B8, symBinAddr: 0x10000850C, symSize: 0x28 }
  - { offsetInCU: 0x9E58, offset: 0x2CF80, size: 0x8, addend: 0x0, symName: __ZSt7forwardIRK7JournalEOT_RNSt16remove_referenceIS3_E4typeE, symObjAddr: 0x107C, symBinAddr: 0x1000084D0, symSize: 0x14 }
  - { offsetInCU: 0x9E60, offset: 0x2CF88, size: 0x8, addend: 0x0, symName: __ZNSt15__uniq_ptr_dataI7JournalSt14default_deleteIS0_ELb1ELb1EECI1St15__uniq_ptr_implIS0_S2_EEPS0_, symObjAddr: 0x1090, symBinAddr: 0x1000084E4, symSize: 0x28 }
  - { offsetInCU: 0x9EF3, offset: 0x2D01B, size: 0x8, addend: 0x0, symName: __ZNSt10unique_ptrI15LiteratureEntrySt14default_deleteIS0_EEC1I7JournalS1_IS5_EvEEOS_IT_T0_E, symObjAddr: 0xB54, symBinAddr: 0x100008480, symSize: 0x50 }
  - { offsetInCU: 0x9FA4, offset: 0x2D0CC, size: 0x8, addend: 0x0, symName: __ZNSt15__uniq_ptr_dataI15LiteratureEntrySt14default_deleteIS0_ELb1ELb1EECI1St15__uniq_ptr_implIS0_S2_EIS1_I7JournalEEEPS0_OT_, symObjAddr: 0xB24, symBinAddr: 0x100008450, symSize: 0x30 }
  - { offsetInCU: 0x9FAC, offset: 0x2D0D4, size: 0x8, addend: 0x0, symName: __ZNSt10unique_ptrI15LiteratureEntrySt14default_deleteIS0_EEC1I7JournalS1_IS5_EvEEOS_IT_T0_E, symObjAddr: 0xB54, symBinAddr: 0x100008480, symSize: 0x50 }
  - { offsetInCU: 0x9FEA, offset: 0x2D112, size: 0x8, addend: 0x0, symName: __ZNSt10unique_ptrI7JournalSt14default_deleteIS0_EED1Ev, symObjAddr: 0xABC, symBinAddr: 0x1000083E8, symSize: 0x68 }
  - { offsetInCU: 0x9FF2, offset: 0x2D11A, size: 0x8, addend: 0x0, symName: __ZNSt15__uniq_ptr_dataI15LiteratureEntrySt14default_deleteIS0_ELb1ELb1EECI1St15__uniq_ptr_implIS0_S2_EIS1_I7JournalEEEPS0_OT_, symObjAddr: 0xB24, symBinAddr: 0x100008450, symSize: 0x30 }
  - { offsetInCU: 0xA090, offset: 0x2D1B8, size: 0x8, addend: 0x0, symName: __ZSt11make_uniqueI7JournalJRKS0_EENSt9_MakeUniqIT_E15__single_objectEDpOT0_, symObjAddr: 0xA44, symBinAddr: 0x100008370, symSize: 0x78 }
  - { offsetInCU: 0xA098, offset: 0x2D1C0, size: 0x8, addend: 0x0, symName: __ZNSt10unique_ptrI7JournalSt14default_deleteIS0_EED1Ev, symObjAddr: 0xABC, symBinAddr: 0x1000083E8, symSize: 0x68 }
  - { offsetInCU: 0xA0AB, offset: 0x2D1D3, size: 0x8, addend: 0x0, symName: __ZN7JournalC1ERKS_, symObjAddr: 0x9B4, symBinAddr: 0x1000082E0, symSize: 0x90 }
  - { offsetInCU: 0xA0B3, offset: 0x2D1DB, size: 0x8, addend: 0x0, symName: __ZSt11make_uniqueI7JournalJRKS0_EENSt9_MakeUniqIT_E15__single_objectEDpOT0_, symObjAddr: 0xA44, symBinAddr: 0x100008370, symSize: 0x78 }
  - { offsetInCU: 0xA0D2, offset: 0x2D1FA, size: 0x8, addend: 0x0, symName: __ZNK7Journal10print_dataEv, symObjAddr: 0x544, symBinAddr: 0x100008070, symSize: 0x270 }
  - { offsetInCU: 0xA262, offset: 0x2D38A, size: 0x8, addend: 0x0, symName: __ZN7JournalC1ERKNSt7__cxx1112basic_stringIcSt11char_traitsIcESaIcEEESt10unique_ptrISt6vectorIS5_SaIS5_EESt14default_deleteISB_EEifS5_i, symObjAddr: 0x398, symBinAddr: 0x100007EC4, symSize: 0x1AC }
  - { offsetInCU: 0xA26A, offset: 0x2D392, size: 0x8, addend: 0x0, symName: __ZNK7Journal10print_dataEv, symObjAddr: 0x544, symBinAddr: 0x100008070, symSize: 0x270 }
  - { offsetInCU: 0xA2E1, offset: 0x2D409, size: 0x8, addend: 0x0, symName: __ZN7JournalC2ERKNSt7__cxx1112basic_stringIcSt11char_traitsIcESaIcEEESt10unique_ptrISt6vectorIS5_SaIS5_EESt14default_deleteISB_EEifS5_i, symObjAddr: 0x1EC, symBinAddr: 0x100007D18, symSize: 0x1AC }
  - { offsetInCU: 0xA2E9, offset: 0x2D411, size: 0x8, addend: 0x0, symName: __ZN7JournalC1ERKNSt7__cxx1112basic_stringIcSt11char_traitsIcESaIcEEESt10unique_ptrISt6vectorIS5_SaIS5_EESt14default_deleteISB_EEifS5_i, symObjAddr: 0x398, symBinAddr: 0x100007EC4, symSize: 0x1AC }
  - { offsetInCU: 0xA2D9, offset: 0x2D401, size: 0x8, addend: 0x0, symName: __ZNK7Journal8get_typeB5cxx11Ev, symObjAddr: 0x138, symBinAddr: 0x100007CB4, symSize: 0x64 }
  - { offsetInCU: 0xA308, offset: 0x2D430, size: 0x8, addend: 0x0, symName: __ZNK7Journal5cloneEv, symObjAddr: 0xE8, symBinAddr: 0x100007C64, symSize: 0x50 }
  - { offsetInCU: 0xA310, offset: 0x2D438, size: 0x8, addend: 0x0, symName: __ZNK7Journal8get_typeB5cxx11Ev, symObjAddr: 0x138, symBinAddr: 0x100007CB4, symSize: 0x64 }
  - { offsetInCU: 0xA36E, offset: 0x2D496, size: 0x8, addend: 0x0, symName: __ZN7JournalD0Ev, symObjAddr: 0xC0, symBinAddr: 0x100007C3C, symSize: 0x28 }
  - { offsetInCU: 0xA376, offset: 0x2D49E, size: 0x8, addend: 0x0, symName: __ZNK7Journal5cloneEv, symObjAddr: 0xE8, symBinAddr: 0x100007C64, symSize: 0x50 }
  - { offsetInCU: 0xA39C, offset: 0x2D4C4, size: 0x8, addend: 0x0, symName: __ZN7JournalD1Ev, symObjAddr: 0x84, symBinAddr: 0x100007C00, symSize: 0x3C }
  - { offsetInCU: 0xA3A4, offset: 0x2D4CC, size: 0x8, addend: 0x0, symName: __ZN7JournalD0Ev, symObjAddr: 0xC0, symBinAddr: 0x100007C3C, symSize: 0x28 }
  - { offsetInCU: 0x5111, offset: 0x325FC, size: 0x8, addend: 0x0, symName: __ZStL8__ioinit, symObjAddr: 0x49690, symBinAddr: 0x10001C608, symSize: 0x0 }
  - { offsetInCU: 0x51BF, offset: 0x326AA, size: 0x8, addend: 0x0, symName: __ZN9__gnu_cxxL21__default_lock_policyE, symObjAddr: 0x3A90, symBinAddr: 0x10000FDA0, symSize: 0x0 }
  - { offsetInCU: 0x5227, offset: 0x32712, size: 0x8, addend: 0x0, symName: __ZN6__pstl9execution2v1L3seqE, symObjAddr: 0x3A94, symBinAddr: 0x10000FDA4, symSize: 0x0 }
  - { offsetInCU: 0x5241, offset: 0x3272C, size: 0x8, addend: 0x0, symName: __ZN6__pstl9execution2v1L3parE, symObjAddr: 0x3A95, symBinAddr: 0x10000FDA5, symSize: 0x0 }
  - { offsetInCU: 0x5261, offset: 0x3274C, size: 0x8, addend: 0x0, symName: __ZN6__pstl9execution2v1L9par_unseqE, symObjAddr: 0x3A96, symBinAddr: 0x10000FDA6, symSize: 0x0 }
  - { offsetInCU: 0x5277, offset: 0x32762, size: 0x8, addend: 0x0, symName: __ZN6__pstl9execution2v1L5unseqE, symObjAddr: 0x3A97, symBinAddr: 0x10000FDA7, symSize: 0x0 }
  - { offsetInCU: 0x99C7, offset: 0x36EB2, size: 0x8, addend: 0x0, symName: __GLOBAL__sub_I_Thesis.cpp, symObjAddr: 0x3A70, symBinAddr: 0x10000A004, symSize: 0x1C }
  - { offsetInCU: 0x99F1, offset: 0x36EDC, size: 0x8, addend: 0x0, symName: __Z41__static_initialization_and_destruction_0ii, symObjAddr: 0x3A10, symBinAddr: 0x100009FA4, symSize: 0x60 }
  - { offsetInCU: 0x99F9, offset: 0x36EE4, size: 0x8, addend: 0x0, symName: __GLOBAL__sub_I_Thesis.cpp, symObjAddr: 0x3A70, symBinAddr: 0x10000A004, symSize: 0x1C }
  - { offsetInCU: 0x9A77, offset: 0x36F62, size: 0x8, addend: 0x0, symName: __ZNSt14default_deleteI15LiteratureEntryEC1I6ThesisvEERKS_IT_E, symObjAddr: 0x3868, symBinAddr: 0x100009F8C, symSize: 0x18 }
  - { offsetInCU: 0x9A80, offset: 0x36F6B, size: 0x8, addend: 0x0, symName: __ZNSt10_Head_baseILm1ESt14default_deleteI6ThesisELb1EE7_M_headERS3_, symObjAddr: 0x3854, symBinAddr: 0x100009F78, symSize: 0x14 }
  - { offsetInCU: 0x9A88, offset: 0x36F73, size: 0x8, addend: 0x0, symName: __ZNSt14default_deleteI15LiteratureEntryEC1I6ThesisvEERKS_IT_E, symObjAddr: 0x3868, symBinAddr: 0x100009F8C, symSize: 0x18 }
  - { offsetInCU: 0x9B05, offset: 0x36FF0, size: 0x8, addend: 0x0, symName: __ZNSt10_Head_baseILm1ESt14default_deleteI6ThesisELb1EEC2Ev, symObjAddr: 0x3840, symBinAddr: 0x100009F64, symSize: 0x14 }
  - { offsetInCU: 0x9B0D, offset: 0x36FF8, size: 0x8, addend: 0x0, symName: __ZNSt10_Head_baseILm1ESt14default_deleteI6ThesisELb1EE7_M_headERS3_, symObjAddr: 0x3854, symBinAddr: 0x100009F78, symSize: 0x14 }
  - { offsetInCU: 0x9B8E, offset: 0x37079, size: 0x8, addend: 0x0, symName: __ZNSt10_Head_baseILm1ESt14default_deleteI15LiteratureEntryELb1EEC2IS0_I6ThesisEEEOT_, symObjAddr: 0x35C8, symBinAddr: 0x100009F28, symSize: 0x3C }
  - { offsetInCU: 0x9B80, offset: 0x3706B, size: 0x8, addend: 0x0, symName: __ZNSt11_Tuple_implILm1EJSt14default_deleteI6ThesisEEE7_M_headERS3_, symObjAddr: 0x35AC, symBinAddr: 0x100009F0C, symSize: 0x1C }
  - { offsetInCU: 0x9B88, offset: 0x37073, size: 0x8, addend: 0x0, symName: __ZNSt10_Head_baseILm1ESt14default_deleteI15LiteratureEntryELb1EEC2IS0_I6ThesisEEEOT_, symObjAddr: 0x35C8, symBinAddr: 0x100009F28, symSize: 0x3C }
  - { offsetInCU: 0x9BB2, offset: 0x3709D, size: 0x8, addend: 0x0, symName: __ZNSt10_Head_baseILm0EP6ThesisLb0EE7_M_headERS2_, symObjAddr: 0x3598, symBinAddr: 0x100009EF8, symSize: 0x14 }
  - { offsetInCU: 0x9BBA, offset: 0x370A5, size: 0x8, addend: 0x0, symName: __ZNSt11_Tuple_implILm1EJSt14default_deleteI6ThesisEEE7_M_headERS3_, symObjAddr: 0x35AC, symBinAddr: 0x100009F0C, symSize: 0x1C }
  - { offsetInCU: 0x9C24, offset: 0x3710F, size: 0x8, addend: 0x0, symName: __ZNSt10_Head_baseILm0EP6ThesisLb0EEC2Ev, symObjAddr: 0x357C, symBinAddr: 0x100009EDC, symSize: 0x1C }
  - { offsetInCU: 0x9C2C, offset: 0x37117, size: 0x8, addend: 0x0, symName: __ZNSt10_Head_baseILm0EP6ThesisLb0EE7_M_headERS2_, symObjAddr: 0x3598, symBinAddr: 0x100009EF8, symSize: 0x14 }
  - { offsetInCU: 0x9C7D, offset: 0x37168, size: 0x8, addend: 0x0, symName: __ZNSt11_Tuple_implILm1EJSt14default_deleteI6ThesisEEEC2Ev, symObjAddr: 0x355C, symBinAddr: 0x100009EBC, symSize: 0x20 }
  - { offsetInCU: 0x9C85, offset: 0x37170, size: 0x8, addend: 0x0, symName: __ZNSt10_Head_baseILm0EP6ThesisLb0EEC2Ev, symObjAddr: 0x357C, symBinAddr: 0x100009EDC, symSize: 0x1C }
  - { offsetInCU: 0x9CFC, offset: 0x371E7, size: 0x8, addend: 0x0, symName: __ZNSt11_Tuple_implILm1EJSt14default_deleteI15LiteratureEntryEEEC2IS0_I6ThesisEEEOT_, symObjAddr: 0x3168, symBinAddr: 0x100009E8C, symSize: 0x30 }
  - { offsetInCU: 0x9D7C, offset: 0x37267, size: 0x8, addend: 0x0, symName: __ZSt12__get_helperILm1ESt14default_deleteI6ThesisEJEERT0_RSt11_Tuple_implIXT_EJS3_DpT1_EE, symObjAddr: 0x314C, symBinAddr: 0x100009E70, symSize: 0x1C }
  - { offsetInCU: 0x9D84, offset: 0x3726F, size: 0x8, addend: 0x0, symName: __ZNSt11_Tuple_implILm1EJSt14default_deleteI15LiteratureEntryEEEC2IS0_I6ThesisEEEOT_, symObjAddr: 0x3168, symBinAddr: 0x100009E8C, symSize: 0x30 }
  - { offsetInCU: 0x9D4E, offset: 0x37239, size: 0x8, addend: 0x0, symName: __ZNSt11_Tuple_implILm0EJP6ThesisSt14default_deleteIS0_EEE7_M_headERS4_, symObjAddr: 0x3130, symBinAddr: 0x100009E54, symSize: 0x1C }
  - { offsetInCU: 0x9D56, offset: 0x37241, size: 0x8, addend: 0x0, symName: __ZSt12__get_helperILm1ESt14default_deleteI6ThesisEJEERT0_RSt11_Tuple_implIXT_EJS3_DpT1_EE, symObjAddr: 0x314C, symBinAddr: 0x100009E70, symSize: 0x1C }
  - { offsetInCU: 0x9DD7, offset: 0x372C2, size: 0x8, addend: 0x0, symName: __ZNSt11_Tuple_implILm0EJP6ThesisSt14default_deleteIS0_EEEC2Ev, symObjAddr: 0x3108, symBinAddr: 0x100009E2C, symSize: 0x28 }
  - { offsetInCU: 0x9DDF, offset: 0x372CA, size: 0x8, addend: 0x0, symName: __ZNSt11_Tuple_implILm0EJP6ThesisSt14default_deleteIS0_EEE7_M_headERS4_, symObjAddr: 0x3130, symBinAddr: 0x100009E54, symSize: 0x1C }
  - { offsetInCU: 0x9DD0, offset: 0x372BB, size: 0x8, addend: 0x0, symName: __ZSt9__find_ifIN9__gnu_cxx17__normal_iteratorIPNSt7__cxx1112basic_stringIcSt11char_traitsIcESaIcEEESt6vectorIS7_SaIS7_EEEENS0_5__ops10_Iter_predIZN6Thesis17remove_supervisorERKS7_EUlSH_E_EEET_SK_SK_T0_St26random_access_iterator_tag, symObjAddr: 0x2EA8, symBinAddr: 0x100009C90, symSize: 0x19C }
  - { offsetInCU: 0x9F1E, offset: 0x37409, size: 0x8, addend: 0x0, symName: __ZNSt11_Tuple_implILm0EJP15LiteratureEntrySt14default_deleteIS0_EEEC2IRS1_JS2_I6ThesisEEvEEOT_DpOT0_, symObjAddr: 0x2C18, symBinAddr: 0x100009C3C, symSize: 0x54 }
  - { offsetInCU: 0x9FC8, offset: 0x374B3, size: 0x8, addend: 0x0, symName: __ZSt3getILm1EJP6ThesisSt14default_deleteIS0_EEERNSt13tuple_elementIXT_ESt5tupleIJDpT0_EEE4typeERS8_, symObjAddr: 0x2BE8, symBinAddr: 0x100009C20, symSize: 0x1C }
  - { offsetInCU: 0xA03A, offset: 0x37525, size: 0x8, addend: 0x0, symName: __ZSt12__get_helperILm0EP6ThesisJSt14default_deleteIS0_EEERT0_RSt11_Tuple_implIXT_EJS4_DpT1_EE, symObjAddr: 0x2BCC, symBinAddr: 0x100009C04, symSize: 0x1C }
  - { offsetInCU: 0xA042, offset: 0x3752D, size: 0x8, addend: 0x0, symName: __ZSt3getILm1EJP6ThesisSt14default_deleteIS0_EEERNSt13tuple_elementIXT_ESt5tupleIJDpT0_EEE4typeERS8_, symObjAddr: 0x2BE8, symBinAddr: 0x100009C20, symSize: 0x1C }
  - { offsetInCU: 0xA06E, offset: 0x37559, size: 0x8, addend: 0x0, symName: __ZNSt5tupleIJP6ThesisSt14default_deleteIS0_EEEC1ILb1ELb1EEEv, symObjAddr: 0x2BAC, symBinAddr: 0x100009BE4, symSize: 0x20 }
  - { offsetInCU: 0xA076, offset: 0x37561, size: 0x8, addend: 0x0, symName: __ZSt12__get_helperILm0EP6ThesisJSt14default_deleteIS0_EEERT0_RSt11_Tuple_implIXT_EJS4_DpT1_EE, symObjAddr: 0x2BCC, symBinAddr: 0x100009C04, symSize: 0x1C }
  - { offsetInCU: 0xA06E, offset: 0x37559, size: 0x8, addend: 0x0, symName: __ZN9__gnu_cxx5__ops10_Iter_predIZN6Thesis17remove_supervisorERKNSt7__cxx1112basic_stringIcSt11char_traitsIcESaIcEEEEUlSA_E_EclINS_17__normal_iteratorIPS8_St6vectorIS8_SaIS8_EEEEEEbT_, symObjAddr: 0x2A08, symBinAddr: 0x100009BA8, symSize: 0x3C }
  - { offsetInCU: 0xA0C7, offset: 0x375B2, size: 0x8, addend: 0x0, symName: __ZSt9__find_ifIN9__gnu_cxx17__normal_iteratorIPNSt7__cxx1112basic_stringIcSt11char_traitsIcESaIcEEESt6vectorIS7_SaIS7_EEEENS0_5__ops10_Iter_predIZN6Thesis17remove_supervisorERKS7_EUlSH_E_EEET_SK_SK_T0_, symObjAddr: 0x2984, symBinAddr: 0x100009B68, symSize: 0x40 }
  - { offsetInCU: 0xA166, offset: 0x37651, size: 0x8, addend: 0x0, symName: __ZN9__gnu_cxx5__ops10_Iter_predIZN6Thesis17remove_supervisorERKNSt7__cxx1112basic_stringIcSt11char_traitsIcESaIcEEEEUlSA_E_EC1ESB_, symObjAddr: 0x2950, symBinAddr: 0x100009B34, symSize: 0x34 }
  - { offsetInCU: 0xA16E, offset: 0x37659, size: 0x8, addend: 0x0, symName: __ZSt9__find_ifIN9__gnu_cxx17__normal_iteratorIPNSt7__cxx1112basic_stringIcSt11char_traitsIcESaIcEEESt6vectorIS7_SaIS7_EEEENS0_5__ops10_Iter_predIZN6Thesis17remove_supervisorERKS7_EUlSH_E_EEET_SK_SK_T0_, symObjAddr: 0x2984, symBinAddr: 0x100009B68, symSize: 0x40 }
  - { offsetInCU: 0xA1E9, offset: 0x376D4, size: 0x8, addend: 0x0, symName: __ZSt4moveIRZN6Thesis17remove_supervisorERKNSt7__cxx1112basic_stringIcSt11char_traitsIcESaIcEEEEUlS8_E_EONSt16remove_referenceIT_E4typeEOSC_, symObjAddr: 0x293C, symBinAddr: 0x100009B20, symSize: 0x14 }
  - { offsetInCU: 0xA1F1, offset: 0x376DC, size: 0x8, addend: 0x0, symName: __ZN9__gnu_cxx5__ops10_Iter_predIZN6Thesis17remove_supervisorERKNSt7__cxx1112basic_stringIcSt11char_traitsIcESaIcEEEEUlSA_E_EC1ESB_, symObjAddr: 0x2950, symBinAddr: 0x100009B34, symSize: 0x34 }
  - { offsetInCU: 0xA2A4, offset: 0x3778F, size: 0x8, addend: 0x0, symName: __ZNSt5tupleIJP15LiteratureEntrySt14default_deleteIS0_EEEC1IRS1_S2_I6ThesisELb1EEEOT_OT0_, symObjAddr: 0x23E4, symBinAddr: 0x100009AD0, symSize: 0x50 }
  - { offsetInCU: 0xA2AB, offset: 0x37796, size: 0x8, addend: 0x0, symName: __ZNSt15__uniq_ptr_implI6ThesisSt14default_deleteIS0_EE7releaseEv, symObjAddr: 0x23B0, symBinAddr: 0x100009A9C, symSize: 0x34 }
  - { offsetInCU: 0xA2B3, offset: 0x3779E, size: 0x8, addend: 0x0, symName: __ZNSt5tupleIJP15LiteratureEntrySt14default_deleteIS0_EEEC1IRS1_S2_I6ThesisELb1EEEOT_OT0_, symObjAddr: 0x23E4, symBinAddr: 0x100009AD0, symSize: 0x50 }
  - { offsetInCU: 0xA2ED, offset: 0x377D8, size: 0x8, addend: 0x0, symName: __ZNSt15__uniq_ptr_implI6ThesisSt14default_deleteIS0_EE10_M_deleterEv, symObjAddr: 0x2394, symBinAddr: 0x100009A80, symSize: 0x1C }
  - { offsetInCU: 0xA2F5, offset: 0x377E0, size: 0x8, addend: 0x0, symName: __ZNSt15__uniq_ptr_implI6ThesisSt14default_deleteIS0_EE7releaseEv, symObjAddr: 0x23B0, symBinAddr: 0x100009A9C, symSize: 0x34 }
  - { offsetInCU: 0xA3C3, offset: 0x378AE, size: 0x8, addend: 0x0, symName: __ZSt3getILm0EJP6ThesisSt14default_deleteIS0_EEERNSt13tuple_elementIXT_ESt5tupleIJDpT0_EEE4typeERS8_, symObjAddr: 0x2378, symBinAddr: 0x100009A64, symSize: 0x1C }
  - { offsetInCU: 0xA3CB, offset: 0x378B6, size: 0x8, addend: 0x0, symName: __ZNSt15__uniq_ptr_implI6ThesisSt14default_deleteIS0_EE10_M_deleterEv, symObjAddr: 0x2394, symBinAddr: 0x100009A80, symSize: 0x1C }
  - { offsetInCU: 0xA403, offset: 0x378EE, size: 0x8, addend: 0x0, symName: __ZNSt15__uniq_ptr_implI6ThesisSt14default_deleteIS0_EEC2EPS0_, symObjAddr: 0x233C, symBinAddr: 0x100009A28, symSize: 0x3C }
  - { offsetInCU: 0xA40B, offset: 0x378F6, size: 0x8, addend: 0x0, symName: __ZSt3getILm0EJP6ThesisSt14default_deleteIS0_EEERNSt13tuple_elementIXT_ESt5tupleIJDpT0_EEE4typeERS8_, symObjAddr: 0x2378, symBinAddr: 0x100009A64, symSize: 0x1C }
  - { offsetInCU: 0xA4E4, offset: 0x379CF, size: 0x8, addend: 0x0, symName: __ZSt11__remove_ifIN9__gnu_cxx17__normal_iteratorIPNSt7__cxx1112basic_stringIcSt11char_traitsIcESaIcEEESt6vectorIS7_SaIS7_EEEENS0_5__ops10_Iter_predIZN6Thesis17remove_supervisorERKS7_EUlSH_E_EEET_SK_SK_T0_, symObjAddr: 0x1FB4, symBinAddr: 0x100009950, symSize: 0xD8 }
  - { offsetInCU: 0xA4E4, offset: 0x379CF, size: 0x8, addend: 0x0, symName: __ZN9__gnu_cxx5__ops11__pred_iterIZN6Thesis17remove_supervisorERKNSt7__cxx1112basic_stringIcSt11char_traitsIcESaIcEEEEUlSA_E_EENS0_10_Iter_predIT_EESD_, symObjAddr: 0x1F84, symBinAddr: 0x100009920, symSize: 0x30 }
  - { offsetInCU: 0xA4EC, offset: 0x379D7, size: 0x8, addend: 0x0, symName: __ZSt11__remove_ifIN9__gnu_cxx17__normal_iteratorIPNSt7__cxx1112basic_stringIcSt11char_traitsIcESaIcEEESt6vectorIS7_SaIS7_EEEENS0_5__ops10_Iter_predIZN6Thesis17remove_supervisorERKS7_EUlSH_E_EEET_SK_SK_T0_, symObjAddr: 0x1FB4, symBinAddr: 0x100009950, symSize: 0xD8 }
  - { offsetInCU: 0xA579, offset: 0x37A64, size: 0x8, addend: 0x0, symName: __ZNSt15__uniq_ptr_implI15LiteratureEntrySt14default_deleteIS0_EEC2IS1_I6ThesisEEEPS0_OT_, symObjAddr: 0x1A5C, symBinAddr: 0x1000098D4, symSize: 0x4C }
  - { offsetInCU: 0xA5EB, offset: 0x37AD6, size: 0x8, addend: 0x0, symName: __ZSt7forwardISt14default_deleteI6ThesisEEOT_RNSt16remove_referenceIS3_E4typeE, symObjAddr: 0x1A48, symBinAddr: 0x1000098C0, symSize: 0x14 }
  - { offsetInCU: 0xA5F3, offset: 0x37ADE, size: 0x8, addend: 0x0, symName: __ZNSt15__uniq_ptr_implI15LiteratureEntrySt14default_deleteIS0_EEC2IS1_I6ThesisEEEPS0_OT_, symObjAddr: 0x1A5C, symBinAddr: 0x1000098D4, symSize: 0x4C }
  - { offsetInCU: 0xA5C7, offset: 0x37AB2, size: 0x8, addend: 0x0, symName: __ZNSt10unique_ptrI6ThesisSt14default_deleteIS0_EE7releaseEv, symObjAddr: 0x1A2C, symBinAddr: 0x1000098A4, symSize: 0x1C }
  - { offsetInCU: 0xA5CF, offset: 0x37ABA, size: 0x8, addend: 0x0, symName: __ZSt7forwardISt14default_deleteI6ThesisEEOT_RNSt16remove_referenceIS3_E4typeE, symObjAddr: 0x1A48, symBinAddr: 0x1000098C0, symSize: 0x14 }
  - { offsetInCU: 0xA5F6, offset: 0x37AE1, size: 0x8, addend: 0x0, symName: __ZNKSt14default_deleteI6ThesisEclEPS0_, symObjAddr: 0x19F4, symBinAddr: 0x10000986C, symSize: 0x38 }
  - { offsetInCU: 0xA5FE, offset: 0x37AE9, size: 0x8, addend: 0x0, symName: __ZNSt10unique_ptrI6ThesisSt14default_deleteIS0_EE7releaseEv, symObjAddr: 0x1A2C, symBinAddr: 0x1000098A4, symSize: 0x1C }
  - { offsetInCU: 0xA684, offset: 0x37B6F, size: 0x8, addend: 0x0, symName: __ZSt4moveIRP6ThesisEONSt16remove_referenceIT_E4typeEOS4_, symObjAddr: 0x19E0, symBinAddr: 0x100009858, symSize: 0x14 }
  - { offsetInCU: 0xA68C, offset: 0x37B77, size: 0x8, addend: 0x0, symName: __ZNKSt14default_deleteI6ThesisEclEPS0_, symObjAddr: 0x19F4, symBinAddr: 0x10000986C, symSize: 0x38 }
  - { offsetInCU: 0xA68C, offset: 0x37B77, size: 0x8, addend: 0x0, symName: __ZNSt10unique_ptrI6ThesisSt14default_deleteIS0_EE11get_deleterEv, symObjAddr: 0x19C4, symBinAddr: 0x10000983C, symSize: 0x1C }
  - { offsetInCU: 0xA694, offset: 0x37B7F, size: 0x8, addend: 0x0, symName: __ZSt4moveIRP6ThesisEONSt16remove_referenceIT_E4typeEOS4_, symObjAddr: 0x19E0, symBinAddr: 0x100009858, symSize: 0x14 }
  - { offsetInCU: 0xA6BB, offset: 0x37BA6, size: 0x8, addend: 0x0, symName: __ZNSt15__uniq_ptr_implI6ThesisSt14default_deleteIS0_EE6_M_ptrEv, symObjAddr: 0x19A8, symBinAddr: 0x100009820, symSize: 0x1C }
  - { offsetInCU: 0xA6C3, offset: 0x37BAE, size: 0x8, addend: 0x0, symName: __ZNSt10unique_ptrI6ThesisSt14default_deleteIS0_EE11get_deleterEv, symObjAddr: 0x19C4, symBinAddr: 0x10000983C, symSize: 0x1C }
  - { offsetInCU: 0xA761, offset: 0x37C4C, size: 0x8, addend: 0x0, symName: __ZNSt10unique_ptrI6ThesisSt14default_deleteIS0_EEC1IS2_vEEPS0_, symObjAddr: 0x1980, symBinAddr: 0x1000097F8, symSize: 0x28 }
  - { offsetInCU: 0xA769, offset: 0x37C54, size: 0x8, addend: 0x0, symName: __ZNSt15__uniq_ptr_implI6ThesisSt14default_deleteIS0_EE6_M_ptrEv, symObjAddr: 0x19A8, symBinAddr: 0x100009820, symSize: 0x1C }
  - { offsetInCU: 0xA7F1, offset: 0x37CDC, size: 0x8, addend: 0x0, symName: __ZNSt15__uniq_ptr_dataI6ThesisSt14default_deleteIS0_ELb1ELb1EECI1St15__uniq_ptr_implIS0_S2_EEPS0_, symObjAddr: 0x1958, symBinAddr: 0x1000097D0, symSize: 0x28 }
  - { offsetInCU: 0xA7F9, offset: 0x37CE4, size: 0x8, addend: 0x0, symName: __ZNSt10unique_ptrI6ThesisSt14default_deleteIS0_EEC1IS2_vEEPS0_, symObjAddr: 0x1980, symBinAddr: 0x1000097F8, symSize: 0x28 }
  - { offsetInCU: 0xA820, offset: 0x37D0B, size: 0x8, addend: 0x0, symName: __ZSt7forwardIRK6ThesisEOT_RNSt16remove_referenceIS3_E4typeE, symObjAddr: 0x1944, symBinAddr: 0x1000097BC, symSize: 0x14 }
  - { offsetInCU: 0xA828, offset: 0x37D13, size: 0x8, addend: 0x0, symName: __ZNSt15__uniq_ptr_dataI6ThesisSt14default_deleteIS0_ELb1ELb1EECI1St15__uniq_ptr_implIS0_S2_EEPS0_, symObjAddr: 0x1958, symBinAddr: 0x1000097D0, symSize: 0x28 }
  - { offsetInCU: 0xA8E1, offset: 0x37DCC, size: 0x8, addend: 0x0, symName: __ZSt9remove_ifIN9__gnu_cxx17__normal_iteratorIPNSt7__cxx1112basic_stringIcSt11char_traitsIcESaIcEEESt6vectorIS7_SaIS7_EEEEZN6Thesis17remove_supervisorERKS7_EUlSF_E_ET_SH_SH_T0_, symObjAddr: 0x15C0, symBinAddr: 0x100009788, symSize: 0x34 }
  - { offsetInCU: 0xA8E4, offset: 0x37DCF, size: 0x8, addend: 0x0, symName: __ZSt4moveIR6ThesisEONSt16remove_referenceIT_E4typeEOS3_, symObjAddr: 0x141C, symBinAddr: 0x100009774, symSize: 0x14 }
  - { offsetInCU: 0xA98D, offset: 0x37E78, size: 0x8, addend: 0x0, symName: __ZNSt10unique_ptrI15LiteratureEntrySt14default_deleteIS0_EEC1I6ThesisS1_IS5_EvEEOS_IT_T0_E, symObjAddr: 0x1208, symBinAddr: 0x100009724, symSize: 0x50 }
  - { offsetInCU: 0xAA3E, offset: 0x37F29, size: 0x8, addend: 0x0, symName: __ZNSt15__uniq_ptr_dataI15LiteratureEntrySt14default_deleteIS0_ELb1ELb1EECI1St15__uniq_ptr_implIS0_S2_EIS1_I6ThesisEEEPS0_OT_, symObjAddr: 0x11D8, symBinAddr: 0x1000096F4, symSize: 0x30 }
  - { offsetInCU: 0xAA46, offset: 0x37F31, size: 0x8, addend: 0x0, symName: __ZNSt10unique_ptrI15LiteratureEntrySt14default_deleteIS0_EEC1I6ThesisS1_IS5_EvEEOS_IT_T0_E, symObjAddr: 0x1208, symBinAddr: 0x100009724, symSize: 0x50 }
  - { offsetInCU: 0xAA84, offset: 0x37F6F, size: 0x8, addend: 0x0, symName: __ZNSt10unique_ptrI6ThesisSt14default_deleteIS0_EED1Ev, symObjAddr: 0x1170, symBinAddr: 0x10000968C, symSize: 0x68 }
  - { offsetInCU: 0xAA8C, offset: 0x37F77, size: 0x8, addend: 0x0, symName: __ZNSt15__uniq_ptr_dataI15LiteratureEntrySt14default_deleteIS0_ELb1ELb1EECI1St15__uniq_ptr_implIS0_S2_EIS1_I6ThesisEEEPS0_OT_, symObjAddr: 0x11D8, symBinAddr: 0x1000096F4, symSize: 0x30 }
  - { offsetInCU: 0xAB28, offset: 0x38013, size: 0x8, addend: 0x0, symName: __ZSt11make_uniqueI6ThesisJRKS0_EENSt9_MakeUniqIT_E15__single_objectEDpOT0_, symObjAddr: 0x10F8, symBinAddr: 0x100009614, symSize: 0x78 }
  - { offsetInCU: 0xAB30, offset: 0x3801B, size: 0x8, addend: 0x0, symName: __ZNSt10unique_ptrI6ThesisSt14default_deleteIS0_EED1Ev, symObjAddr: 0x1170, symBinAddr: 0x10000968C, symSize: 0x68 }
  - { offsetInCU: 0xABBA, offset: 0x380A5, size: 0x8, addend: 0x0, symName: __ZNSt10unique_ptrISt6vectorINSt7__cxx1112basic_stringIcSt11char_traitsIcESaIcEEESaIS6_EESt14default_deleteIS8_EEC1ISA_vEEDn, symObjAddr: 0x1064, symBinAddr: 0x1000095E8, symSize: 0x2C }
  - { offsetInCU: 0xAC40, offset: 0x3812B, size: 0x8, addend: 0x0, symName: __ZNSt15__uniq_ptr_dataISt6vectorINSt7__cxx1112basic_stringIcSt11char_traitsIcESaIcEEESaIS6_EESt14default_deleteIS8_ELb1ELb1EECI1St15__uniq_ptr_implIS8_SA_EEv, symObjAddr: 0x1044, symBinAddr: 0x1000095C8, symSize: 0x20 }
  - { offsetInCU: 0xAC48, offset: 0x38133, size: 0x8, addend: 0x0, symName: __ZNSt10unique_ptrISt6vectorINSt7__cxx1112basic_stringIcSt11char_traitsIcESaIcEEESaIS6_EESt14default_deleteIS8_EEC1ISA_vEEDn, symObjAddr: 0x1064, symBinAddr: 0x1000095E8, symSize: 0x2C }
  - { offsetInCU: 0xAC63, offset: 0x3814E, size: 0x8, addend: 0x0, symName: __ZNSt15__uniq_ptr_implISt6vectorINSt7__cxx1112basic_stringIcSt11char_traitsIcESaIcEEESaIS6_EESt14default_deleteIS8_EEC2Ev, symObjAddr: 0x1024, symBinAddr: 0x1000095A8, symSize: 0x20 }
  - { offsetInCU: 0xAC6B, offset: 0x38156, size: 0x8, addend: 0x0, symName: __ZNSt15__uniq_ptr_dataISt6vectorINSt7__cxx1112basic_stringIcSt11char_traitsIcESaIcEEESaIS6_EESt14default_deleteIS8_ELb1ELb1EECI1St15__uniq_ptr_implIS8_SA_EEv, symObjAddr: 0x1044, symBinAddr: 0x1000095C8, symSize: 0x20 }
  - { offsetInCU: 0xAC17, offset: 0x38102, size: 0x8, addend: 0x0, symName: __ZNK6Thesis12print_bibtexEv, symObjAddr: 0xC1C, symBinAddr: 0x100009338, symSize: 0x270 }
  - { offsetInCU: 0xAC6B, offset: 0x38156, size: 0x8, addend: 0x0, symName: __ZNK6Thesis10print_dataEv, symObjAddr: 0xADC, symBinAddr: 0x1000091F8, symSize: 0x140 }
  - { offsetInCU: 0xAC73, offset: 0x3815E, size: 0x8, addend: 0x0, symName: __ZNK6Thesis12print_bibtexEv, symObjAddr: 0xC1C, symBinAddr: 0x100009338, symSize: 0x270 }
  - { offsetInCU: 0xACF5, offset: 0x381E0, size: 0x8, addend: 0x0, symName: __ZN6Thesis17remove_supervisorERKNSt7__cxx1112basic_stringIcSt11char_traitsIcESaIcEEE, symObjAddr: 0xA30, symBinAddr: 0x10000914C, symSize: 0xAC }
  - { offsetInCU: 0xACFD, offset: 0x381E8, size: 0x8, addend: 0x0, symName: __ZNK6Thesis10print_dataEv, symObjAddr: 0xADC, symBinAddr: 0x1000091F8, symSize: 0x140 }
  - { offsetInCU: 0xADB3, offset: 0x3829E, size: 0x8, addend: 0x0, symName: __ZZN6Thesis17remove_supervisorERKNSt7__cxx1112basic_stringIcSt11char_traitsIcESaIcEEEENKUlS7_E_clES7_, symObjAddr: 0xA00, symBinAddr: 0x10000911C, symSize: 0x30 }
  - { offsetInCU: 0xADBB, offset: 0x382A6, size: 0x8, addend: 0x0, symName: __ZN6Thesis17remove_supervisorERKNSt7__cxx1112basic_stringIcSt11char_traitsIcESaIcEEE, symObjAddr: 0xA30, symBinAddr: 0x10000914C, symSize: 0xAC }
  - { offsetInCU: 0xAE26, offset: 0x38311, size: 0x8, addend: 0x0, symName: __ZN6Thesis14add_supervisorERKNSt7__cxx1112basic_stringIcSt11char_traitsIcESaIcEEE, symObjAddr: 0x9D0, symBinAddr: 0x1000090EC, symSize: 0x30 }
  - { offsetInCU: 0xAE2E, offset: 0x38319, size: 0x8, addend: 0x0, symName: __ZZN6Thesis17remove_supervisorERKNSt7__cxx1112basic_stringIcSt11char_traitsIcESaIcEEEENKUlS7_E_clES7_, symObjAddr: 0xA00, symBinAddr: 0x10000911C, symSize: 0x30 }
  - { offsetInCU: 0xAE68, offset: 0x38353, size: 0x8, addend: 0x0, symName: __ZN6ThesisaSEOS_, symObjAddr: 0x940, symBinAddr: 0x10000905C, symSize: 0x90 }
  - { offsetInCU: 0xAE70, offset: 0x3835B, size: 0x8, addend: 0x0, symName: __ZN6Thesis14add_supervisorERKNSt7__cxx1112basic_stringIcSt11char_traitsIcESaIcEEE, symObjAddr: 0x9D0, symBinAddr: 0x1000090EC, symSize: 0x30 }
  - { offsetInCU: 0xAEAA, offset: 0x38395, size: 0x8, addend: 0x0, symName: __ZN6ThesisaSERKS_, symObjAddr: 0x8AC, symBinAddr: 0x100008FC8, symSize: 0x94 }
  - { offsetInCU: 0xAEB2, offset: 0x3839D, size: 0x8, addend: 0x0, symName: __ZN6ThesisaSEOS_, symObjAddr: 0x940, symBinAddr: 0x10000905C, symSize: 0x90 }
  - { offsetInCU: 0xAF27, offset: 0x38412, size: 0x8, addend: 0x0, symName: __ZN6ThesisC1EOS_, symObjAddr: 0x7F8, symBinAddr: 0x100008F14, symSize: 0xB4 }
  - { offsetInCU: 0xAF2F, offset: 0x3841A, size: 0x8, addend: 0x0, symName: __ZN6ThesisaSERKS_, symObjAddr: 0x8AC, symBinAddr: 0x100008FC8, symSize: 0x94 }
  - { offsetInCU: 0xAF61, offset: 0x3844C, size: 0x8, addend: 0x0, symName: __ZN6ThesisC2EOS_, symObjAddr: 0x744, symBinAddr: 0x100008E60, symSize: 0xB4 }
  - { offsetInCU: 0xAF69, offset: 0x38454, size: 0x8, addend: 0x0, symName: __ZN6ThesisC1EOS_, symObjAddr: 0x7F8, symBinAddr: 0x100008F14, symSize: 0xB4 }
  - { offsetInCU: 0xAFC6, offset: 0x384B1, size: 0x8, addend: 0x0, symName: __ZN6ThesisC1ERKS_, symObjAddr: 0x65C, symBinAddr: 0x100008D78, symSize: 0xE8 }
  - { offsetInCU: 0xAFCE, offset: 0x384B9, size: 0x8, addend: 0x0, symName: __ZN6ThesisC2EOS_, symObjAddr: 0x744, symBinAddr: 0x100008E60, symSize: 0xB4 }
  - { offsetInCU: 0xB000, offset: 0x384EB, size: 0x8, addend: 0x0, symName: __ZN6ThesisC2ERKS_, symObjAddr: 0x574, symBinAddr: 0x100008C90, symSize: 0xE8 }
  - { offsetInCU: 0xB008, offset: 0x384F3, size: 0x8, addend: 0x0, symName: __ZN6ThesisC1ERKS_, symObjAddr: 0x65C, symBinAddr: 0x100008D78, symSize: 0xE8 }
  - { offsetInCU: 0xB11D, offset: 0x38608, size: 0x8, addend: 0x0, symName: __ZN6ThesisC1ERKNSt7__cxx1112basic_stringIcSt11char_traitsIcESaIcEEESt10unique_ptrISt6vectorIS5_SaIS5_EESt14default_deleteISB_EEiS7_SE_, symObjAddr: 0x454, symBinAddr: 0x100008BC0, symSize: 0xD0 }
  - { offsetInCU: 0xB189, offset: 0x38674, size: 0x8, addend: 0x0, symName: __ZN6ThesisC2ERKNSt7__cxx1112basic_stringIcSt11char_traitsIcESaIcEEESt10unique_ptrISt6vectorIS5_SaIS5_EESt14default_deleteISB_EEiS7_SE_, symObjAddr: 0x384, symBinAddr: 0x100008AF0, symSize: 0xD0 }
  - { offsetInCU: 0xB191, offset: 0x3867C, size: 0x8, addend: 0x0, symName: __ZN6ThesisC1ERKNSt7__cxx1112basic_stringIcSt11char_traitsIcESaIcEEESt10unique_ptrISt6vectorIS5_SaIS5_EESt14default_deleteISB_EEiS7_SE_, symObjAddr: 0x454, symBinAddr: 0x100008BC0, symSize: 0xD0 }
  - { offsetInCU: 0xB16E, offset: 0x38659, size: 0x8, addend: 0x0, symName: __ZNK6Thesis8get_typeB5cxx11Ev, symObjAddr: 0x2D0, symBinAddr: 0x100008A8C, symSize: 0x64 }
  - { offsetInCU: 0xB19D, offset: 0x38688, size: 0x8, addend: 0x0, symName: __ZNK6Thesis5cloneEv, symObjAddr: 0x280, symBinAddr: 0x100008A3C, symSize: 0x50 }
  - { offsetInCU: 0xB1A5, offset: 0x38690, size: 0x8, addend: 0x0, symName: __ZNK6Thesis8get_typeB5cxx11Ev, symObjAddr: 0x2D0, symBinAddr: 0x100008A8C, symSize: 0x64 }
  - { offsetInCU: 0xB202, offset: 0x386ED, size: 0x8, addend: 0x0, symName: __ZN6ThesisD0Ev, symObjAddr: 0x258, symBinAddr: 0x100008A14, symSize: 0x28 }
  - { offsetInCU: 0xB20A, offset: 0x386F5, size: 0x8, addend: 0x0, symName: __ZNK6Thesis5cloneEv, symObjAddr: 0x280, symBinAddr: 0x100008A3C, symSize: 0x50 }
  - { offsetInCU: 0xB230, offset: 0x3871B, size: 0x8, addend: 0x0, symName: __ZN6ThesisD1Ev, symObjAddr: 0x210, symBinAddr: 0x1000089CC, symSize: 0x48 }
  - { offsetInCU: 0xB238, offset: 0x38723, size: 0x8, addend: 0x0, symName: __ZN6ThesisD0Ev, symObjAddr: 0x258, symBinAddr: 0x100008A14, symSize: 0x28 }
  - { offsetInCU: 0x52F1, offset: 0x3DA34, size: 0x8, addend: 0x0, symName: __ZStL8__ioinit, symObjAddr: 0x6D6D8, symBinAddr: 0x10001C609, symSize: 0x0 }
  - { offsetInCU: 0x539F, offset: 0x3DAE2, size: 0x8, addend: 0x0, symName: __ZN9__gnu_cxxL21__default_lock_policyE, symObjAddr: 0x71F4, symBinAddr: 0x10000FDB0, symSize: 0x0 }
  - { offsetInCU: 0x5407, offset: 0x3DB4A, size: 0x8, addend: 0x0, symName: __ZN6__pstl9execution2v1L3seqE, symObjAddr: 0x71F8, symBinAddr: 0x10000FDB4, symSize: 0x0 }
  - { offsetInCU: 0x5421, offset: 0x3DB64, size: 0x8, addend: 0x0, symName: __ZN6__pstl9execution2v1L3parE, symObjAddr: 0x71F9, symBinAddr: 0x10000FDB5, symSize: 0x0 }
  - { offsetInCU: 0x5441, offset: 0x3DB84, size: 0x8, addend: 0x0, symName: __ZN6__pstl9execution2v1L9par_unseqE, symObjAddr: 0x71FA, symBinAddr: 0x10000FDB6, symSize: 0x0 }
  - { offsetInCU: 0x5457, offset: 0x3DB9A, size: 0x8, addend: 0x0, symName: __ZN6__pstl9execution2v1L5unseqE, symObjAddr: 0x71FB, symBinAddr: 0x10000FDB7, symSize: 0x0 }
  - { offsetInCU: 0xAECE, offset: 0x43611, size: 0x8, addend: 0x0, symName: __GLOBAL__sub_I_LiteratureDatabase.cpp, symObjAddr: 0x7020, symBinAddr: 0x10000E45C, symSize: 0x1C }
  - { offsetInCU: 0xAEEC, offset: 0x4362F, size: 0x8, addend: 0x0, symName: __Z41__static_initialization_and_destruction_0ii, symObjAddr: 0x6FC0, symBinAddr: 0x10000E3FC, symSize: 0x60 }
  - { offsetInCU: 0xAEF4, offset: 0x43637, size: 0x8, addend: 0x0, symName: __GLOBAL__sub_I_LiteratureDatabase.cpp, symObjAddr: 0x7020, symBinAddr: 0x10000E45C, symSize: 0x1C }
  - { offsetInCU: 0xAF90, offset: 0x436D3, size: 0x8, addend: 0x0, symName: __ZSt7forwardISt14default_deleteI15LiteratureEntryEEOT_RNSt16remove_referenceIS3_E4typeE, symObjAddr: 0x6FAC, symBinAddr: 0x10000E3E8, symSize: 0x14 }
  - { offsetInCU: 0xAF98, offset: 0x436DB, size: 0x8, addend: 0x0, symName: __Z41__static_initialization_and_destruction_0ii, symObjAddr: 0x6FC0, symBinAddr: 0x10000E3FC, symSize: 0x60 }
  - { offsetInCU: 0xAF63, offset: 0x436A6, size: 0x8, addend: 0x0, symName: __ZNSt15__uniq_ptr_implI15LiteratureEntrySt14default_deleteIS0_EE7releaseEv, symObjAddr: 0x6F78, symBinAddr: 0x10000E3B4, symSize: 0x34 }
  - { offsetInCU: 0xAF6B, offset: 0x436AE, size: 0x8, addend: 0x0, symName: __ZSt7forwardISt14default_deleteI15LiteratureEntryEEOT_RNSt16remove_referenceIS3_E4typeE, symObjAddr: 0x6FAC, symBinAddr: 0x10000E3E8, symSize: 0x14 }
  - { offsetInCU: 0xAFA5, offset: 0x436E8, size: 0x8, addend: 0x0, symName: __ZNSt15__uniq_ptr_implI15LiteratureEntrySt14default_deleteIS0_EE5resetEPS0_, symObjAddr: 0x6F18, symBinAddr: 0x10000E354, symSize: 0x60 }
  - { offsetInCU: 0xAFAD, offset: 0x436F0, size: 0x8, addend: 0x0, symName: __ZNSt15__uniq_ptr_implI15LiteratureEntrySt14default_deleteIS0_EE7releaseEv, symObjAddr: 0x6F78, symBinAddr: 0x10000E3B4, symSize: 0x34 }
  - { offsetInCU: 0xAFFA, offset: 0x4373D, size: 0x8, addend: 0x0, symName: __ZNSt15__uniq_ptr_implI15LiteratureEntrySt14default_deleteIS0_EEaSEOS3_, symObjAddr: 0x6E74, symBinAddr: 0x10000E310, symSize: 0x44 }
  - { offsetInCU: 0xB133, offset: 0x43876, size: 0x8, addend: 0x0, symName: __ZSt19__relocate_object_aISt10unique_ptrI15LiteratureEntrySt14default_deleteIS1_EES4_SaIS4_EEvPT_PT0_RT1_, symObjAddr: 0x6E28, symBinAddr: 0x10000E2C4, symSize: 0x4C }
  - { offsetInCU: 0xB13B, offset: 0x4387E, size: 0x8, addend: 0x0, symName: __ZNSt15__uniq_ptr_implI15LiteratureEntrySt14default_deleteIS0_EEaSEOS3_, symObjAddr: 0x6E74, symBinAddr: 0x10000E310, symSize: 0x44 }
  - { offsetInCU: 0xB0C2, offset: 0x43805, size: 0x8, addend: 0x0, symName: __ZNK9__gnu_cxx13new_allocatorISt10unique_ptrI15LiteratureEntrySt14default_deleteIS2_EEE8max_sizeEv, symObjAddr: 0x6E0C, symBinAddr: 0x10000E2A8, symSize: 0x1C }
  - { offsetInCU: 0xB0CA, offset: 0x4380D, size: 0x8, addend: 0x0, symName: __ZSt19__relocate_object_aISt10unique_ptrI15LiteratureEntrySt14default_deleteIS1_EES4_SaIS4_EEvPT_PT0_RT1_, symObjAddr: 0x6E28, symBinAddr: 0x10000E2C4, symSize: 0x4C }
  - { offsetInCU: 0xB0F1, offset: 0x43834, size: 0x8, addend: 0x0, symName: __ZNSt11__copy_moveILb1ELb0ESt26random_access_iterator_tagE8__copy_mIPSt10unique_ptrI15LiteratureEntrySt14default_deleteIS4_EES8_EET0_T_SA_S9_, symObjAddr: 0x6D58, symBinAddr: 0x10000E22C, symSize: 0x7C }
  - { offsetInCU: 0xB19C, offset: 0x438DF, size: 0x8, addend: 0x0, symName: __ZNSt10unique_ptrI15LiteratureEntrySt14default_deleteIS0_EEaSEOS3_, symObjAddr: 0x6D30, symBinAddr: 0x10000E204, symSize: 0x28 }
  - { offsetInCU: 0xB1A4, offset: 0x438E7, size: 0x8, addend: 0x0, symName: __ZNSt11__copy_moveILb1ELb0ESt26random_access_iterator_tagE8__copy_mIPSt10unique_ptrI15LiteratureEntrySt14default_deleteIS4_EES8_EET0_T_SA_S9_, symObjAddr: 0x6D58, symBinAddr: 0x10000E22C, symSize: 0x7C }
  - { offsetInCU: 0xB1D7, offset: 0x4391A, size: 0x8, addend: 0x0, symName: __ZNSt15__uniq_ptr_dataI15LiteratureEntrySt14default_deleteIS0_ELb1ELb1EEaSEOS3_, symObjAddr: 0x6D08, symBinAddr: 0x10000E1DC, symSize: 0x28 }
  - { offsetInCU: 0xB1DF, offset: 0x43922, size: 0x8, addend: 0x0, symName: __ZNSt10unique_ptrI15LiteratureEntrySt14default_deleteIS0_EEaSEOS3_, symObjAddr: 0x6D30, symBinAddr: 0x10000E204, symSize: 0x28 }
  - { offsetInCU: 0xB309, offset: 0x43A4C, size: 0x8, addend: 0x0, symName: __ZSt14__relocate_a_1IPSt10unique_ptrI15LiteratureEntrySt14default_deleteIS1_EES5_SaIS4_EET0_T_S8_S7_RT1_, symObjAddr: 0x6C84, symBinAddr: 0x10000E158, symSize: 0x84 }
  - { offsetInCU: 0xB311, offset: 0x43A54, size: 0x8, addend: 0x0, symName: __ZNSt15__uniq_ptr_dataI15LiteratureEntrySt14default_deleteIS0_ELb1ELb1EEaSEOS3_, symObjAddr: 0x6D08, symBinAddr: 0x10000E1DC, symSize: 0x28 }
  - { offsetInCU: 0xB350, offset: 0x43A93, size: 0x8, addend: 0x0, symName: __ZSt12__niter_baseIPSt10unique_ptrI15LiteratureEntrySt14default_deleteIS1_EEET_S6_, symObjAddr: 0x6C70, symBinAddr: 0x10000E144, symSize: 0x14 }
  - { offsetInCU: 0xB358, offset: 0x43A9B, size: 0x8, addend: 0x0, symName: __ZSt14__relocate_a_1IPSt10unique_ptrI15LiteratureEntrySt14default_deleteIS1_EES5_SaIS4_EET0_T_S8_S7_RT1_, symObjAddr: 0x6C84, symBinAddr: 0x10000E158, symSize: 0x84 }
  - { offsetInCU: 0xB314, offset: 0x43A57, size: 0x8, addend: 0x0, symName: __ZNSt16allocator_traitsISaISt10unique_ptrI15LiteratureEntrySt14default_deleteIS1_EEEE8max_sizeERKS5_, symObjAddr: 0x6C54, symBinAddr: 0x10000E128, symSize: 0x1C }
  - { offsetInCU: 0xB31C, offset: 0x43A5F, size: 0x8, addend: 0x0, symName: __ZSt12__niter_baseIPSt10unique_ptrI15LiteratureEntrySt14default_deleteIS1_EEET_S6_, symObjAddr: 0x6C70, symBinAddr: 0x10000E144, symSize: 0x14 }
  - { offsetInCU: 0xB346, offset: 0x43A89, size: 0x8, addend: 0x0, symName: __ZNSt10_Head_baseILm0EP15LiteratureEntryLb0EE7_M_headERKS2_, symObjAddr: 0x6B0C, symBinAddr: 0x10000E114, symSize: 0x14 }
  - { offsetInCU: 0xB43A, offset: 0x43B7D, size: 0x8, addend: 0x0, symName: __ZSt14__copy_move_a2ILb1EPSt10unique_ptrI15LiteratureEntrySt14default_deleteIS1_EES5_ET1_T0_S7_S6_, symObjAddr: 0x6AE0, symBinAddr: 0x10000E0E8, symSize: 0x2C }
  - { offsetInCU: 0xB442, offset: 0x43B85, size: 0x8, addend: 0x0, symName: __ZNSt10_Head_baseILm0EP15LiteratureEntryLb0EE7_M_headERKS2_, symObjAddr: 0x6B0C, symBinAddr: 0x10000E114, symSize: 0x14 }
  - { offsetInCU: 0xB487, offset: 0x43BCA, size: 0x8, addend: 0x0, symName: __ZSt10_ConstructINSt7__cxx1112basic_stringIcSt11char_traitsIcESaIcEEEJEEvPT_DpOT0_, symObjAddr: 0x6AB4, symBinAddr: 0x10000E0BC, symSize: 0x2C }
  - { offsetInCU: 0xB48F, offset: 0x43BD2, size: 0x8, addend: 0x0, symName: __ZSt14__copy_move_a2ILb1EPSt10unique_ptrI15LiteratureEntrySt14default_deleteIS1_EES5_ET1_T0_S7_S6_, symObjAddr: 0x6AE0, symBinAddr: 0x10000E0E8, symSize: 0x2C }
  - { offsetInCU: 0xB545, offset: 0x43C88, size: 0x8, addend: 0x0, symName: __ZSt12__relocate_aIPSt10unique_ptrI15LiteratureEntrySt14default_deleteIS1_EES5_SaIS4_EET0_T_S8_S7_RT1_, symObjAddr: 0x6A58, symBinAddr: 0x10000E060, symSize: 0x5C }
  - { offsetInCU: 0xB54D, offset: 0x43C90, size: 0x8, addend: 0x0, symName: __ZSt10_ConstructINSt7__cxx1112basic_stringIcSt11char_traitsIcESaIcEEEJEEvPT_DpOT0_, symObjAddr: 0x6AB4, symBinAddr: 0x10000E0BC, symSize: 0x2C }
  - { offsetInCU: 0xB4F4, offset: 0x43C37, size: 0x8, addend: 0x0, symName: __ZN9__gnu_cxx13new_allocatorISt10unique_ptrI15LiteratureEntrySt14default_deleteIS2_EEE8allocateEmPKv, symObjAddr: 0x69E0, symBinAddr: 0x10000DFE8, symSize: 0x78 }
  - { offsetInCU: 0xB4FC, offset: 0x43C3F, size: 0x8, addend: 0x0, symName: __ZSt12__relocate_aIPSt10unique_ptrI15LiteratureEntrySt14default_deleteIS1_EES5_SaIS4_EET0_T_S8_S7_RT1_, symObjAddr: 0x6A58, symBinAddr: 0x10000E060, symSize: 0x5C }
  - { offsetInCU: 0xB554, offset: 0x43C97, size: 0x8, addend: 0x0, symName: __ZNK9__gnu_cxx13new_allocatorISt10unique_ptrI15LiteratureEntrySt14default_deleteIS2_EEE11_M_max_sizeEv, symObjAddr: 0x69CC, symBinAddr: 0x10000DFD4, symSize: 0x14 }
  - { offsetInCU: 0xB55C, offset: 0x43C9F, size: 0x8, addend: 0x0, symName: __ZN9__gnu_cxx13new_allocatorISt10unique_ptrI15LiteratureEntrySt14default_deleteIS2_EEE8allocateEmPKv, symObjAddr: 0x69E0, symBinAddr: 0x10000DFE8, symSize: 0x78 }
  - { offsetInCU: 0xB583, offset: 0x43CC6, size: 0x8, addend: 0x0, symName: __ZNSt6vectorISt10unique_ptrI15LiteratureEntrySt14default_deleteIS1_EESaIS4_EE11_S_max_sizeERKS5_, symObjAddr: 0x6994, symBinAddr: 0x10000DF9C, symSize: 0x38 }
  - { offsetInCU: 0xB58B, offset: 0x43CCE, size: 0x8, addend: 0x0, symName: __ZNK9__gnu_cxx13new_allocatorISt10unique_ptrI15LiteratureEntrySt14default_deleteIS2_EEE11_M_max_sizeEv, symObjAddr: 0x69CC, symBinAddr: 0x10000DFD4, symSize: 0x14 }
  - { offsetInCU: 0xB64E, offset: 0x43D91, size: 0x8, addend: 0x0, symName: __ZNSt11_Tuple_implILm1EJSt14default_deleteI15LiteratureEntryEEEC2EOS3_, symObjAddr: 0x697C, symBinAddr: 0x10000DF84, symSize: 0x18 }
  - { offsetInCU: 0xB656, offset: 0x43D99, size: 0x8, addend: 0x0, symName: __ZNSt6vectorISt10unique_ptrI15LiteratureEntrySt14default_deleteIS1_EESaIS4_EE11_S_max_sizeERKS5_, symObjAddr: 0x6994, symBinAddr: 0x10000DF9C, symSize: 0x38 }
  - { offsetInCU: 0xB6F6, offset: 0x43E39, size: 0x8, addend: 0x0, symName: __ZSt4moveIRSt5tupleIJP15LiteratureEntrySt14default_deleteIS1_EEEEONSt16remove_referenceIT_E4typeEOS8_, symObjAddr: 0x6968, symBinAddr: 0x10000DF70, symSize: 0x14 }
  - { offsetInCU: 0xB6FE, offset: 0x43E41, size: 0x8, addend: 0x0, symName: __ZNSt11_Tuple_implILm1EJSt14default_deleteI15LiteratureEntryEEEC2EOS3_, symObjAddr: 0x697C, symBinAddr: 0x10000DF84, symSize: 0x18 }
  - { offsetInCU: 0xB6B3, offset: 0x43DF6, size: 0x8, addend: 0x0, symName: __ZNSt11_Tuple_implILm0EJP15LiteratureEntrySt14default_deleteIS0_EEE7_M_headERKS4_, symObjAddr: 0x665C, symBinAddr: 0x10000DF54, symSize: 0x1C }
  - { offsetInCU: 0xB81B, offset: 0x43F5E, size: 0x8, addend: 0x0, symName: __ZSt12__niter_wrapIN9__gnu_cxx17__normal_iteratorIPSt10unique_ptrI15LiteratureEntrySt14default_deleteIS3_EESt6vectorIS6_SaIS6_EEEES7_ET_SC_T0_, symObjAddr: 0x6620, symBinAddr: 0x10000DF18, symSize: 0x3C }
  - { offsetInCU: 0xB823, offset: 0x43F66, size: 0x8, addend: 0x0, symName: __ZNSt11_Tuple_implILm0EJP15LiteratureEntrySt14default_deleteIS0_EEE7_M_headERKS4_, symObjAddr: 0x665C, symBinAddr: 0x10000DF54, symSize: 0x1C }
  - { offsetInCU: 0xB815, offset: 0x43F58, size: 0x8, addend: 0x0, symName: __ZSt14__copy_move_a1ILb1EPSt10unique_ptrI15LiteratureEntrySt14default_deleteIS1_EES5_ET1_T0_S7_S6_, symObjAddr: 0x65F4, symBinAddr: 0x10000DEEC, symSize: 0x2C }
  - { offsetInCU: 0xB81D, offset: 0x43F60, size: 0x8, addend: 0x0, symName: __ZSt12__niter_wrapIN9__gnu_cxx17__normal_iteratorIPSt10unique_ptrI15LiteratureEntrySt14default_deleteIS3_EESt6vectorIS6_SaIS6_EEEES7_ET_SC_T0_, symObjAddr: 0x6620, symBinAddr: 0x10000DF18, symSize: 0x3C }
  - { offsetInCU: 0xB8D3, offset: 0x44016, size: 0x8, addend: 0x0, symName: __ZSt12__niter_baseIPSt10unique_ptrI15LiteratureEntrySt14default_deleteIS1_EESt6vectorIS4_SaIS4_EEET_N9__gnu_cxx17__normal_iteratorIS9_T0_EE, symObjAddr: 0x65D4, symBinAddr: 0x10000DECC, symSize: 0x20 }
  - { offsetInCU: 0xB8DB, offset: 0x4401E, size: 0x8, addend: 0x0, symName: __ZSt14__copy_move_a1ILb1EPSt10unique_ptrI15LiteratureEntrySt14default_deleteIS1_EES5_ET1_T0_S7_S6_, symObjAddr: 0x65F4, symBinAddr: 0x10000DEEC, symSize: 0x2C }
  - { offsetInCU: 0xB83A, offset: 0x43F7D, size: 0x8, addend: 0x0, symName: __ZNSt27__uninitialized_default_n_1ILb0EE18__uninit_default_nIPNSt7__cxx1112basic_stringIcSt11char_traitsIcESaIcEEEmEET_S9_T0_, symObjAddr: 0x657C, symBinAddr: 0x10000DE74, symSize: 0x58 }
  - { offsetInCU: 0xB842, offset: 0x43F85, size: 0x8, addend: 0x0, symName: __ZSt12__niter_baseIPSt10unique_ptrI15LiteratureEntrySt14default_deleteIS1_EESt6vectorIS4_SaIS4_EEET_N9__gnu_cxx17__normal_iteratorIS9_T0_EE, symObjAddr: 0x65D4, symBinAddr: 0x10000DECC, symSize: 0x20 }
  - { offsetInCU: 0xB943, offset: 0x44086, size: 0x8, addend: 0x0, symName: __ZNSt12_Vector_baseISt10unique_ptrI15LiteratureEntrySt14default_deleteIS1_EESaIS4_EE12_Vector_implC1ERKS5_, symObjAddr: 0x6530, symBinAddr: 0x10000DE44, symSize: 0x30 }
  - { offsetInCU: 0xB993, offset: 0x440D6, size: 0x8, addend: 0x0, symName: __ZN9__gnu_cxx13new_allocatorISt10unique_ptrI15LiteratureEntrySt14default_deleteIS2_EEEC2ERKS6_, symObjAddr: 0x6518, symBinAddr: 0x10000DE2C, symSize: 0x18 }
  - { offsetInCU: 0xB99B, offset: 0x440DE, size: 0x8, addend: 0x0, symName: __ZNSt12_Vector_baseISt10unique_ptrI15LiteratureEntrySt14default_deleteIS1_EESaIS4_EE12_Vector_implC1ERKS5_, symObjAddr: 0x6530, symBinAddr: 0x10000DE44, symSize: 0x30 }
  - { offsetInCU: 0xB96E, offset: 0x440B1, size: 0x8, addend: 0x0, symName: __ZNSt6vectorISt10unique_ptrI15LiteratureEntrySt14default_deleteIS1_EESaIS4_EE14_S_do_relocateEPS4_S7_S7_RS5_St17integral_constantIbLb1EE, symObjAddr: 0x64E0, symBinAddr: 0x10000DDF4, symSize: 0x38 }
  - { offsetInCU: 0xB976, offset: 0x440B9, size: 0x8, addend: 0x0, symName: __ZN9__gnu_cxx13new_allocatorISt10unique_ptrI15LiteratureEntrySt14default_deleteIS2_EEEC2ERKS6_, symObjAddr: 0x6518, symBinAddr: 0x10000DE2C, symSize: 0x18 }
  - { offsetInCU: 0xB9E8, offset: 0x4412B, size: 0x8, addend: 0x0, symName: __ZNSt16allocator_traitsISaISt10unique_ptrI15LiteratureEntrySt14default_deleteIS1_EEEE8allocateERS5_m, symObjAddr: 0x64B8, symBinAddr: 0x10000DDCC, symSize: 0x28 }
  - { offsetInCU: 0xB9F0, offset: 0x44133, size: 0x8, addend: 0x0, symName: __ZNSt6vectorISt10unique_ptrI15LiteratureEntrySt14default_deleteIS1_EESaIS4_EE14_S_do_relocateEPS4_S7_S7_RS5_St17integral_constantIbLb1EE, symObjAddr: 0x64E0, symBinAddr: 0x10000DDF4, symSize: 0x38 }
  - { offsetInCU: 0xBA2E, offset: 0x44171, size: 0x8, addend: 0x0, symName: __ZNKSt6vectorISt10unique_ptrI15LiteratureEntrySt14default_deleteIS1_EESaIS4_EE8max_sizeEv, symObjAddr: 0x6498, symBinAddr: 0x10000DDAC, symSize: 0x20 }
  - { offsetInCU: 0xBA36, offset: 0x44179, size: 0x8, addend: 0x0, symName: __ZNSt16allocator_traitsISaISt10unique_ptrI15LiteratureEntrySt14default_deleteIS1_EEEE8allocateERS5_m, symObjAddr: 0x64B8, symBinAddr: 0x10000DDCC, symSize: 0x28 }
  - { offsetInCU: 0xBACF, offset: 0x44212, size: 0x8, addend: 0x0, symName: __ZNSt15__uniq_ptr_implI15LiteratureEntrySt14default_deleteIS0_EEC2EOS3_, symObjAddr: 0x6450, symBinAddr: 0x10000DD64, symSize: 0x48 }
  - { offsetInCU: 0xBAD7, offset: 0x4421A, size: 0x8, addend: 0x0, symName: __ZNKSt6vectorISt10unique_ptrI15LiteratureEntrySt14default_deleteIS1_EESaIS4_EE8max_sizeEv, symObjAddr: 0x6498, symBinAddr: 0x10000DDAC, symSize: 0x20 }
  - { offsetInCU: 0xBB23, offset: 0x44266, size: 0x8, addend: 0x0, symName: __ZNSt5tupleIJP15LiteratureEntrySt14default_deleteIS0_EEEC1EOS4_, symObjAddr: 0x6428, symBinAddr: 0x10000DD3C, symSize: 0x28 }
  - { offsetInCU: 0xBB2B, offset: 0x4426E, size: 0x8, addend: 0x0, symName: __ZNSt15__uniq_ptr_implI15LiteratureEntrySt14default_deleteIS0_EEC2EOS3_, symObjAddr: 0x6450, symBinAddr: 0x10000DD64, symSize: 0x48 }
  - { offsetInCU: 0xBB8A, offset: 0x442CD, size: 0x8, addend: 0x0, symName: __ZNSt11_Tuple_implILm0EJP15LiteratureEntrySt14default_deleteIS0_EEEC2EOS4_, symObjAddr: 0x63F0, symBinAddr: 0x10000DD04, symSize: 0x38 }
  - { offsetInCU: 0xBB92, offset: 0x442D5, size: 0x8, addend: 0x0, symName: __ZNSt5tupleIJP15LiteratureEntrySt14default_deleteIS0_EEEC1EOS4_, symObjAddr: 0x6428, symBinAddr: 0x10000DD3C, symSize: 0x28 }
  - { offsetInCU: 0xBBEC, offset: 0x4432F, size: 0x8, addend: 0x0, symName: __ZSt12__get_helperILm0EP15LiteratureEntryJSt14default_deleteIS0_EEERKT0_RKSt11_Tuple_implIXT_EJS4_DpT1_EE, symObjAddr: 0x6020, symBinAddr: 0x10000DCE8, symSize: 0x1C }
  - { offsetInCU: 0xBBE2, offset: 0x44325, size: 0x8, addend: 0x0, symName: __ZN9__gnu_cxx13new_allocatorISt10unique_ptrI15LiteratureEntrySt14default_deleteIS2_EEE7destroyIS5_EEvPT_, symObjAddr: 0x5FFC, symBinAddr: 0x10000DCC4, symSize: 0x24 }
  - { offsetInCU: 0xBBEA, offset: 0x4432D, size: 0x8, addend: 0x0, symName: __ZSt12__get_helperILm0EP15LiteratureEntryJSt14default_deleteIS0_EEERKT0_RKSt11_Tuple_implIXT_EJS4_DpT1_EE, symObjAddr: 0x6020, symBinAddr: 0x10000DCE8, symSize: 0x1C }
  - { offsetInCU: 0xBDC7, offset: 0x4450A, size: 0x8, addend: 0x0, symName: __ZSt13__copy_move_aILb1EN9__gnu_cxx17__normal_iteratorIPSt10unique_ptrI15LiteratureEntrySt14default_deleteIS3_EESt6vectorIS6_SaIS6_EEEESB_ET1_T0_SD_SC_, symObjAddr: 0x5F9C, symBinAddr: 0x10000DC64, symSize: 0x60 }
  - { offsetInCU: 0xBDCF, offset: 0x44512, size: 0x8, addend: 0x0, symName: __ZN9__gnu_cxx13new_allocatorISt10unique_ptrI15LiteratureEntrySt14default_deleteIS2_EEE7destroyIS5_EEvPT_, symObjAddr: 0x5FFC, symBinAddr: 0x10000DCC4, symSize: 0x24 }
  - { offsetInCU: 0xBDCE, offset: 0x44511, size: 0x8, addend: 0x0, symName: __ZSt12__miter_baseIN9__gnu_cxx17__normal_iteratorIPSt10unique_ptrI15LiteratureEntrySt14default_deleteIS3_EESt6vectorIS6_SaIS6_EEEEET_SC_, symObjAddr: 0x5F88, symBinAddr: 0x10000DC50, symSize: 0x14 }
  - { offsetInCU: 0xBDD6, offset: 0x44519, size: 0x8, addend: 0x0, symName: __ZSt13__copy_move_aILb1EN9__gnu_cxx17__normal_iteratorIPSt10unique_ptrI15LiteratureEntrySt14default_deleteIS3_EESt6vectorIS6_SaIS6_EEEESB_ET1_T0_SD_SC_, symObjAddr: 0x5F9C, symBinAddr: 0x10000DC64, symSize: 0x60 }
  - { offsetInCU: 0xBDC1, offset: 0x44504, size: 0x8, addend: 0x0, symName: __ZSt25__uninitialized_default_nIPNSt7__cxx1112basic_stringIcSt11char_traitsIcESaIcEEEmET_S7_T0_, symObjAddr: 0x5F5C, symBinAddr: 0x10000DC24, symSize: 0x2C }
  - { offsetInCU: 0xBDC9, offset: 0x4450C, size: 0x8, addend: 0x0, symName: __ZSt12__miter_baseIN9__gnu_cxx17__normal_iteratorIPSt10unique_ptrI15LiteratureEntrySt14default_deleteIS3_EESt6vectorIS6_SaIS6_EEEEET_SC_, symObjAddr: 0x5F88, symBinAddr: 0x10000DC50, symSize: 0x14 }
  - { offsetInCU: 0xBE37, offset: 0x4457A, size: 0x8, addend: 0x0, symName: __ZSt4moveIRSaISt10unique_ptrI15LiteratureEntrySt14default_deleteIS1_EEEEONSt16remove_referenceIT_E4typeEOS8_, symObjAddr: 0x5F2C, symBinAddr: 0x10000DC10, symSize: 0x14 }
  - { offsetInCU: 0xBDE1, offset: 0x44524, size: 0x8, addend: 0x0, symName: __ZNSt12_Vector_baseISt10unique_ptrI15LiteratureEntrySt14default_deleteIS1_EESaIS4_EE17_Vector_impl_data12_M_copy_dataERKS7_, symObjAddr: 0x5EE4, symBinAddr: 0x10000DBC8, symSize: 0x48 }
  - { offsetInCU: 0xBDE9, offset: 0x4452C, size: 0x8, addend: 0x0, symName: __ZSt4moveIRSaISt10unique_ptrI15LiteratureEntrySt14default_deleteIS1_EEEEONSt16remove_referenceIT_E4typeEOS8_, symObjAddr: 0x5F2C, symBinAddr: 0x10000DC10, symSize: 0x14 }
  - { offsetInCU: 0xBEAA, offset: 0x445ED, size: 0x8, addend: 0x0, symName: __ZNSt12_Vector_baseISt10unique_ptrI15LiteratureEntrySt14default_deleteIS1_EESaIS4_EEC2ERKS5_, symObjAddr: 0x5EBC, symBinAddr: 0x10000DBA0, symSize: 0x28 }
  - { offsetInCU: 0xBEB2, offset: 0x445F5, size: 0x8, addend: 0x0, symName: __ZNSt12_Vector_baseISt10unique_ptrI15LiteratureEntrySt14default_deleteIS1_EESaIS4_EE17_Vector_impl_data12_M_copy_dataERKS7_, symObjAddr: 0x5EE4, symBinAddr: 0x10000DBC8, symSize: 0x48 }
  - { offsetInCU: 0xBEF9, offset: 0x4463C, size: 0x8, addend: 0x0, symName: __ZNSaISt10unique_ptrI15LiteratureEntrySt14default_deleteIS0_EEEC1ERKS4_, symObjAddr: 0x5E94, symBinAddr: 0x10000DB78, symSize: 0x28 }
  - { offsetInCU: 0xBF01, offset: 0x44644, size: 0x8, addend: 0x0, symName: __ZNSt12_Vector_baseISt10unique_ptrI15LiteratureEntrySt14default_deleteIS1_EESaIS4_EEC2ERKS5_, symObjAddr: 0x5EBC, symBinAddr: 0x10000DBA0, symSize: 0x28 }
  - { offsetInCU: 0xBF33, offset: 0x44676, size: 0x8, addend: 0x0, symName: __ZNSaISt10unique_ptrI15LiteratureEntrySt14default_deleteIS0_EEEC2ERKS4_, symObjAddr: 0x5E6C, symBinAddr: 0x10000DB50, symSize: 0x28 }
  - { offsetInCU: 0xBF3B, offset: 0x4467E, size: 0x8, addend: 0x0, symName: __ZNSaISt10unique_ptrI15LiteratureEntrySt14default_deleteIS0_EEEC1ERKS4_, symObjAddr: 0x5E94, symBinAddr: 0x10000DB78, symSize: 0x28 }
  - { offsetInCU: 0xBF25, offset: 0x44668, size: 0x8, addend: 0x0, symName: __ZNKSt12_Vector_baseISt10unique_ptrI15LiteratureEntrySt14default_deleteIS1_EESaIS4_EE19_M_get_Tp_allocatorEv, symObjAddr: 0x5E58, symBinAddr: 0x10000DB3C, symSize: 0x14 }
  - { offsetInCU: 0xBF2D, offset: 0x44670, size: 0x8, addend: 0x0, symName: __ZNSaISt10unique_ptrI15LiteratureEntrySt14default_deleteIS0_EEEC2ERKS4_, symObjAddr: 0x5E6C, symBinAddr: 0x10000DB50, symSize: 0x28 }
  - { offsetInCU: 0xBF54, offset: 0x44697, size: 0x8, addend: 0x0, symName: __ZNK9__gnu_cxx17__normal_iteratorIPSt10unique_ptrI15LiteratureEntrySt14default_deleteIS2_EESt6vectorIS5_SaIS5_EEEdeEv, symObjAddr: 0x5E40, symBinAddr: 0x10000DB24, symSize: 0x18 }
  - { offsetInCU: 0xBF5C, offset: 0x4469F, size: 0x8, addend: 0x0, symName: __ZNKSt12_Vector_baseISt10unique_ptrI15LiteratureEntrySt14default_deleteIS1_EESaIS4_EE19_M_get_Tp_allocatorEv, symObjAddr: 0x5E58, symBinAddr: 0x10000DB3C, symSize: 0x14 }
  - { offsetInCU: 0xBF83, offset: 0x446C6, size: 0x8, addend: 0x0, symName: __ZNK9__gnu_cxx17__normal_iteratorIPSt10unique_ptrI15LiteratureEntrySt14default_deleteIS2_EESt6vectorIS5_SaIS5_EEEmiEl, symObjAddr: 0x5DFC, symBinAddr: 0x10000DAE0, symSize: 0x44 }
  - { offsetInCU: 0xBF8B, offset: 0x446CE, size: 0x8, addend: 0x0, symName: __ZNK9__gnu_cxx17__normal_iteratorIPSt10unique_ptrI15LiteratureEntrySt14default_deleteIS2_EESt6vectorIS5_SaIS5_EEEdeEv, symObjAddr: 0x5E40, symBinAddr: 0x10000DB24, symSize: 0x18 }
  - { offsetInCU: 0xBFC6, offset: 0x44709, size: 0x8, addend: 0x0, symName: __ZNSt6vectorISt10unique_ptrI15LiteratureEntrySt14default_deleteIS1_EESaIS4_EE11_S_relocateEPS4_S7_S7_RS5_, symObjAddr: 0x5DC8, symBinAddr: 0x10000DAAC, symSize: 0x34 }
  - { offsetInCU: 0xBFCE, offset: 0x44711, size: 0x8, addend: 0x0, symName: __ZNK9__gnu_cxx17__normal_iteratorIPSt10unique_ptrI15LiteratureEntrySt14default_deleteIS2_EESt6vectorIS5_SaIS5_EEEmiEl, symObjAddr: 0x5DFC, symBinAddr: 0x10000DAE0, symSize: 0x44 }
  - { offsetInCU: 0xC034, offset: 0x44777, size: 0x8, addend: 0x0, symName: __ZNSt12_Vector_baseISt10unique_ptrI15LiteratureEntrySt14default_deleteIS1_EESaIS4_EE11_M_allocateEm, symObjAddr: 0x5D90, symBinAddr: 0x10000DA74, symSize: 0x38 }
  - { offsetInCU: 0xC03C, offset: 0x4477F, size: 0x8, addend: 0x0, symName: __ZNSt6vectorISt10unique_ptrI15LiteratureEntrySt14default_deleteIS1_EESaIS4_EE11_S_relocateEPS4_S7_S7_RS5_, symObjAddr: 0x5DC8, symBinAddr: 0x10000DAAC, symSize: 0x34 }
  - { offsetInCU: 0xC172, offset: 0x448B5, size: 0x8, addend: 0x0, symName: __ZN9__gnu_cxxmiIPSt10unique_ptrI15LiteratureEntrySt14default_deleteIS2_EESt6vectorIS5_SaIS5_EEEENS_17__normal_iteratorIT_T0_E15difference_typeERKSD_SG_, symObjAddr: 0x5D50, symBinAddr: 0x10000DA34, symSize: 0x40 }
  - { offsetInCU: 0xC17A, offset: 0x448BD, size: 0x8, addend: 0x0, symName: __ZNSt12_Vector_baseISt10unique_ptrI15LiteratureEntrySt14default_deleteIS1_EESaIS4_EE11_M_allocateEm, symObjAddr: 0x5D90, symBinAddr: 0x10000DA74, symSize: 0x38 }
  - { offsetInCU: 0xC0EE, offset: 0x44831, size: 0x8, addend: 0x0, symName: __ZNKSt6vectorISt10unique_ptrI15LiteratureEntrySt14default_deleteIS1_EESaIS4_EE12_M_check_lenEmPKc, symObjAddr: 0x5C84, symBinAddr: 0x10000D968, symSize: 0xCC }
  - { offsetInCU: 0xC0F6, offset: 0x44839, size: 0x8, addend: 0x0, symName: __ZN9__gnu_cxxmiIPSt10unique_ptrI15LiteratureEntrySt14default_deleteIS2_EESt6vectorIS5_SaIS5_EEEENS_17__normal_iteratorIT_T0_E15difference_typeERKSD_SG_, symObjAddr: 0x5D50, symBinAddr: 0x10000DA34, symSize: 0x40 }
  - { offsetInCU: 0xC159, offset: 0x4489C, size: 0x8, addend: 0x0, symName: __ZN9__gnu_cxx13new_allocatorISt10unique_ptrI15LiteratureEntrySt14default_deleteIS2_EEE9constructIS5_JS5_EEEvPT_DpOT0_, symObjAddr: 0x5C38, symBinAddr: 0x10000D91C, symSize: 0x4C }
  - { offsetInCU: 0xC161, offset: 0x448A4, size: 0x8, addend: 0x0, symName: __ZNKSt6vectorISt10unique_ptrI15LiteratureEntrySt14default_deleteIS1_EESaIS4_EE12_M_check_lenEmPKc, symObjAddr: 0x5C84, symBinAddr: 0x10000D968, symSize: 0xCC }
  - { offsetInCU: 0xC22D, offset: 0x44970, size: 0x8, addend: 0x0, symName: __ZNSt10unique_ptrI15LiteratureEntrySt14default_deleteIS0_EEC1EOS3_, symObjAddr: 0x5C10, symBinAddr: 0x10000D8F4, symSize: 0x28 }
  - { offsetInCU: 0xC235, offset: 0x44978, size: 0x8, addend: 0x0, symName: __ZN9__gnu_cxx13new_allocatorISt10unique_ptrI15LiteratureEntrySt14default_deleteIS2_EEE9constructIS5_JS5_EEEvPT_DpOT0_, symObjAddr: 0x5C38, symBinAddr: 0x10000D91C, symSize: 0x4C }
  - { offsetInCU: 0xC296, offset: 0x449D9, size: 0x8, addend: 0x0, symName: __ZNSt15__uniq_ptr_dataI15LiteratureEntrySt14default_deleteIS0_ELb1ELb1EEC1EOS3_, symObjAddr: 0x5BE8, symBinAddr: 0x10000D8CC, symSize: 0x28 }
  - { offsetInCU: 0xC29E, offset: 0x449E1, size: 0x8, addend: 0x0, symName: __ZNSt10unique_ptrI15LiteratureEntrySt14default_deleteIS0_EEC1EOS3_, symObjAddr: 0x5C10, symBinAddr: 0x10000D8F4, symSize: 0x28 }
  - { offsetInCU: 0xC312, offset: 0x44A55, size: 0x8, addend: 0x0, symName: __ZSt3getILm0EJP15LiteratureEntrySt14default_deleteIS0_EEERKNSt13tuple_elementIXT_ESt5tupleIJDpT0_EEE4typeERKS8_, symObjAddr: 0x576C, symBinAddr: 0x10000D8B0, symSize: 0x1C }
  - { offsetInCU: 0xC308, offset: 0x44A4B, size: 0x8, addend: 0x0, symName: __ZNSt16allocator_traitsISaISt10unique_ptrI15LiteratureEntrySt14default_deleteIS1_EEEE7destroyIS4_EEvRS5_PT_, symObjAddr: 0x5744, symBinAddr: 0x10000D888, symSize: 0x28 }
  - { offsetInCU: 0xC310, offset: 0x44A53, size: 0x8, addend: 0x0, symName: __ZSt3getILm0EJP15LiteratureEntrySt14default_deleteIS0_EEERKNSt13tuple_elementIXT_ESt5tupleIJDpT0_EEE4typeERKS8_, symObjAddr: 0x576C, symBinAddr: 0x10000D8B0, symSize: 0x1C }
  - { offsetInCU: 0xC4D3, offset: 0x44C16, size: 0x8, addend: 0x0, symName: __ZSt4moveIN9__gnu_cxx17__normal_iteratorIPSt10unique_ptrI15LiteratureEntrySt14default_deleteIS3_EESt6vectorIS6_SaIS6_EEEESB_ET0_T_SD_SC_, symObjAddr: 0x56FC, symBinAddr: 0x10000D840, symSize: 0x48 }
  - { offsetInCU: 0xC4DB, offset: 0x44C1E, size: 0x8, addend: 0x0, symName: __ZNSt16allocator_traitsISaISt10unique_ptrI15LiteratureEntrySt14default_deleteIS1_EEEE7destroyIS4_EEvRS5_PT_, symObjAddr: 0x5744, symBinAddr: 0x10000D888, symSize: 0x28 }
  - { offsetInCU: 0xC4C5, offset: 0x44C08, size: 0x8, addend: 0x0, symName: __ZN9__gnu_cxxneIPSt10unique_ptrI15LiteratureEntrySt14default_deleteIS2_EESt6vectorIS5_SaIS5_EEEEbRKNS_17__normal_iteratorIT_T0_EESF_, symObjAddr: 0x56B8, symBinAddr: 0x10000D7FC, symSize: 0x44 }
  - { offsetInCU: 0xC4CD, offset: 0x44C10, size: 0x8, addend: 0x0, symName: __ZSt4moveIN9__gnu_cxx17__normal_iteratorIPSt10unique_ptrI15LiteratureEntrySt14default_deleteIS3_EESt6vectorIS6_SaIS6_EEEESB_ET0_T_SD_SC_, symObjAddr: 0x56FC, symBinAddr: 0x10000D840, symSize: 0x48 }
  - { offsetInCU: 0xC530, offset: 0x44C73, size: 0x8, addend: 0x0, symName: __ZSt27__uninitialized_default_n_aIPNSt7__cxx1112basic_stringIcSt11char_traitsIcESaIcEEEmS5_ET_S7_T0_RSaIT1_E, symObjAddr: 0x5628, symBinAddr: 0x10000D7D4, symSize: 0x28 }
  - { offsetInCU: 0xC56F, offset: 0x44CB2, size: 0x8, addend: 0x0, symName: __ZSt15__alloc_on_moveISaISt10unique_ptrI15LiteratureEntrySt14default_deleteIS1_EEEEvRT_S7_, symObjAddr: 0x553C, symBinAddr: 0x10000D7B0, symSize: 0x24 }
  - { offsetInCU: 0xC527, offset: 0x44C6A, size: 0x8, addend: 0x0, symName: __ZNSt12_Vector_baseISt10unique_ptrI15LiteratureEntrySt14default_deleteIS1_EESaIS4_EE17_Vector_impl_data12_M_swap_dataERS7_, symObjAddr: 0x54F0, symBinAddr: 0x10000D764, symSize: 0x4C }
  - { offsetInCU: 0xC52F, offset: 0x44C72, size: 0x8, addend: 0x0, symName: __ZSt15__alloc_on_moveISaISt10unique_ptrI15LiteratureEntrySt14default_deleteIS1_EEEEvRT_S7_, symObjAddr: 0x553C, symBinAddr: 0x10000D7B0, symSize: 0x24 }
  - { offsetInCU: 0xC5FC, offset: 0x44D3F, size: 0x8, addend: 0x0, symName: __ZNSt6vectorISt10unique_ptrI15LiteratureEntrySt14default_deleteIS1_EESaIS4_EEC1ERKS5_, symObjAddr: 0x54C8, symBinAddr: 0x10000D73C, symSize: 0x28 }
  - { offsetInCU: 0xC604, offset: 0x44D47, size: 0x8, addend: 0x0, symName: __ZNSt12_Vector_baseISt10unique_ptrI15LiteratureEntrySt14default_deleteIS1_EESaIS4_EE17_Vector_impl_data12_M_swap_dataERS7_, symObjAddr: 0x54F0, symBinAddr: 0x10000D764, symSize: 0x4C }
  - { offsetInCU: 0xC5E0, offset: 0x44D23, size: 0x8, addend: 0x0, symName: __ZNKSt12_Vector_baseISt10unique_ptrI15LiteratureEntrySt14default_deleteIS1_EESaIS4_EE13get_allocatorEv, symObjAddr: 0x5490, symBinAddr: 0x10000D704, symSize: 0x38 }
  - { offsetInCU: 0xC5E8, offset: 0x44D2B, size: 0x8, addend: 0x0, symName: __ZNSt6vectorISt10unique_ptrI15LiteratureEntrySt14default_deleteIS1_EESaIS4_EEC1ERKS5_, symObjAddr: 0x54C8, symBinAddr: 0x10000D73C, symSize: 0x28 }
  - { offsetInCU: 0xC60F, offset: 0x44D52, size: 0x8, addend: 0x0, symName: __ZNSt6vectorISt10unique_ptrI15LiteratureEntrySt14default_deleteIS1_EESaIS4_EE4backEv, symObjAddr: 0x5458, symBinAddr: 0x10000D6CC, symSize: 0x38 }
  - { offsetInCU: 0xC617, offset: 0x44D5A, size: 0x8, addend: 0x0, symName: __ZNKSt12_Vector_baseISt10unique_ptrI15LiteratureEntrySt14default_deleteIS1_EESaIS4_EE13get_allocatorEv, symObjAddr: 0x5490, symBinAddr: 0x10000D704, symSize: 0x38 }
  - { offsetInCU: 0xC63E, offset: 0x44D81, size: 0x8, addend: 0x0, symName: __ZNSt6vectorISt10unique_ptrI15LiteratureEntrySt14default_deleteIS1_EESaIS4_EE17_M_realloc_insertIJS4_EEEvN9__gnu_cxx17__normal_iteratorIPS4_S6_EEDpOT_, symObjAddr: 0x52E0, symBinAddr: 0x10000D554, symSize: 0x178 }
  - { offsetInCU: 0xC646, offset: 0x44D89, size: 0x8, addend: 0x0, symName: __ZNSt6vectorISt10unique_ptrI15LiteratureEntrySt14default_deleteIS1_EESaIS4_EE4backEv, symObjAddr: 0x5458, symBinAddr: 0x10000D6CC, symSize: 0x38 }
  - { offsetInCU: 0xC71D, offset: 0x44E60, size: 0x8, addend: 0x0, symName: __ZNSt6vectorISt10unique_ptrI15LiteratureEntrySt14default_deleteIS1_EESaIS4_EE3endEv, symObjAddr: 0x52B8, symBinAddr: 0x10000D52C, symSize: 0x28 }
  - { offsetInCU: 0xC725, offset: 0x44E68, size: 0x8, addend: 0x0, symName: __ZNSt6vectorISt10unique_ptrI15LiteratureEntrySt14default_deleteIS1_EESaIS4_EE17_M_realloc_insertIJS4_EEEvN9__gnu_cxx17__normal_iteratorIPS4_S6_EEDpOT_, symObjAddr: 0x52E0, symBinAddr: 0x10000D554, symSize: 0x178 }
  - { offsetInCU: 0xC74C, offset: 0x44E8F, size: 0x8, addend: 0x0, symName: __ZNSt16allocator_traitsISaISt10unique_ptrI15LiteratureEntrySt14default_deleteIS1_EEEE9constructIS4_JS4_EEEvRS5_PT_DpOT0_, symObjAddr: 0x5280, symBinAddr: 0x10000D4F4, symSize: 0x38 }
  - { offsetInCU: 0xC754, offset: 0x44E97, size: 0x8, addend: 0x0, symName: __ZNSt6vectorISt10unique_ptrI15LiteratureEntrySt14default_deleteIS1_EESaIS4_EE3endEv, symObjAddr: 0x52B8, symBinAddr: 0x10000D52C, symSize: 0x28 }
  - { offsetInCU: 0xC85A, offset: 0x44F9D, size: 0x8, addend: 0x0, symName: __ZSt7forwardISt10unique_ptrI15LiteratureEntrySt14default_deleteIS1_EEEOT_RNSt16remove_referenceIS5_E4typeE, symObjAddr: 0x526C, symBinAddr: 0x10000D4E0, symSize: 0x14 }
  - { offsetInCU: 0xC862, offset: 0x44FA5, size: 0x8, addend: 0x0, symName: __ZNSt16allocator_traitsISaISt10unique_ptrI15LiteratureEntrySt14default_deleteIS1_EEEE9constructIS4_JS4_EEEvRS5_PT_DpOT0_, symObjAddr: 0x5280, symBinAddr: 0x10000D4F4, symSize: 0x38 }
  - { offsetInCU: 0xC888, offset: 0x44FCB, size: 0x8, addend: 0x0, symName: __ZN9__gnu_cxx13new_allocatorISt10unique_ptrI15LiteratureEntrySt14default_deleteIS2_EEEC2Ev, symObjAddr: 0x5200, symBinAddr: 0x10000D4CC, symSize: 0x14 }
  - { offsetInCU: 0xC85B, offset: 0x44F9E, size: 0x8, addend: 0x0, symName: __ZNKSt15__uniq_ptr_implI15LiteratureEntrySt14default_deleteIS0_EE6_M_ptrEv, symObjAddr: 0x4B5C, symBinAddr: 0x10000D4AC, symSize: 0x20 }
  - { offsetInCU: 0xC88A, offset: 0x44FCD, size: 0x8, addend: 0x0, symName: __ZNSt6vectorISt10unique_ptrI15LiteratureEntrySt14default_deleteIS1_EESaIS4_EE8_M_eraseEN9__gnu_cxx17__normal_iteratorIPS4_S6_EE, symObjAddr: 0x4AB0, symBinAddr: 0x10000D400, symSize: 0xAC }
  - { offsetInCU: 0xC892, offset: 0x44FD5, size: 0x8, addend: 0x0, symName: __ZNKSt15__uniq_ptr_implI15LiteratureEntrySt14default_deleteIS0_EE6_M_ptrEv, symObjAddr: 0x4B5C, symBinAddr: 0x10000D4AC, symSize: 0x20 }
  - { offsetInCU: 0xC9CE, offset: 0x45111, size: 0x8, addend: 0x0, symName: __ZN9__gnu_cxxmiIPKSt10unique_ptrI15LiteratureEntrySt14default_deleteIS2_EESt6vectorIS5_SaIS5_EEEENS_17__normal_iteratorIT_T0_E15difference_typeERKSE_SH_, symObjAddr: 0x4A70, symBinAddr: 0x10000D3C0, symSize: 0x40 }
  - { offsetInCU: 0xC9D6, offset: 0x45119, size: 0x8, addend: 0x0, symName: __ZNSt6vectorISt10unique_ptrI15LiteratureEntrySt14default_deleteIS1_EESaIS4_EE8_M_eraseEN9__gnu_cxx17__normal_iteratorIPS4_S6_EE, symObjAddr: 0x4AB0, symBinAddr: 0x10000D400, symSize: 0xAC }
  - { offsetInCU: 0xC943, offset: 0x45086, size: 0x8, addend: 0x0, symName: __ZNKSt6vectorISt10unique_ptrI15LiteratureEntrySt14default_deleteIS1_EESaIS4_EE6cbeginEv, symObjAddr: 0x4A4C, symBinAddr: 0x10000D39C, symSize: 0x24 }
  - { offsetInCU: 0xC94B, offset: 0x4508E, size: 0x8, addend: 0x0, symName: __ZN9__gnu_cxxmiIPKSt10unique_ptrI15LiteratureEntrySt14default_deleteIS2_EESt6vectorIS5_SaIS5_EEEENS_17__normal_iteratorIT_T0_E15difference_typeERKSE_SH_, symObjAddr: 0x4A70, symBinAddr: 0x10000D3C0, symSize: 0x40 }
  - { offsetInCU: 0xC972, offset: 0x450B5, size: 0x8, addend: 0x0, symName: __ZNK9__gnu_cxx17__normal_iteratorIPSt10unique_ptrI15LiteratureEntrySt14default_deleteIS2_EESt6vectorIS5_SaIS5_EEE4baseEv, symObjAddr: 0x4A38, symBinAddr: 0x10000D388, symSize: 0x14 }
  - { offsetInCU: 0xC97A, offset: 0x450BD, size: 0x8, addend: 0x0, symName: __ZNKSt6vectorISt10unique_ptrI15LiteratureEntrySt14default_deleteIS1_EESaIS4_EE6cbeginEv, symObjAddr: 0x4A4C, symBinAddr: 0x10000D39C, symSize: 0x24 }
  - { offsetInCU: 0xCA44, offset: 0x45187, size: 0x8, addend: 0x0, symName: __ZN9__gnu_cxx17__normal_iteratorIPSt10unique_ptrI15LiteratureEntrySt14default_deleteIS2_EESt6vectorIS5_SaIS5_EEEC1ERKS6_, symObjAddr: 0x4A10, symBinAddr: 0x10000D360, symSize: 0x28 }
  - { offsetInCU: 0xCA4C, offset: 0x4518F, size: 0x8, addend: 0x0, symName: __ZNK9__gnu_cxx17__normal_iteratorIPSt10unique_ptrI15LiteratureEntrySt14default_deleteIS2_EESt6vectorIS5_SaIS5_EEE4baseEv, symObjAddr: 0x4A38, symBinAddr: 0x10000D388, symSize: 0x14 }
  - { offsetInCU: 0xCA4C, offset: 0x4518F, size: 0x8, addend: 0x0, symName: __ZSt7forwardIfEOT_RNSt16remove_referenceIS0_E4typeE, symObjAddr: 0x4954, symBinAddr: 0x10000D34C, symSize: 0x14 }
  - { offsetInCU: 0xCB52, offset: 0x45295, size: 0x8, addend: 0x0, symName: __ZSt7forwardISt10unique_ptrISt6vectorINSt7__cxx1112basic_stringIcSt11char_traitsIcESaIcEEESaIS7_EESt14default_deleteIS9_EEEOT_RNSt16remove_referenceISD_E4typeE, symObjAddr: 0x4940, symBinAddr: 0x10000D338, symSize: 0x14 }
  - { offsetInCU: 0xCB5A, offset: 0x4529D, size: 0x8, addend: 0x0, symName: __ZSt7forwardIfEOT_RNSt16remove_referenceIS0_E4typeE, symObjAddr: 0x4954, symBinAddr: 0x10000D34C, symSize: 0x14 }
  - { offsetInCU: 0xCB4E, offset: 0x45291, size: 0x8, addend: 0x0, symName: __ZSt7forwardIRNSt7__cxx1112basic_stringIcSt11char_traitsIcESaIcEEEEOT_RNSt16remove_referenceIS7_E4typeE, symObjAddr: 0x492C, symBinAddr: 0x10000D324, symSize: 0x14 }
  - { offsetInCU: 0xCB56, offset: 0x45299, size: 0x8, addend: 0x0, symName: __ZSt7forwardISt10unique_ptrISt6vectorINSt7__cxx1112basic_stringIcSt11char_traitsIcESaIcEEESaIS7_EESt14default_deleteIS9_EEEOT_RNSt16remove_referenceISD_E4typeE, symObjAddr: 0x4940, symBinAddr: 0x10000D338, symSize: 0x14 }
  - { offsetInCU: 0xCBC1, offset: 0x45304, size: 0x8, addend: 0x0, symName: __ZSt7forwardISt6vectorINSt7__cxx1112basic_stringIcSt11char_traitsIcESaIcEEESaIS6_EEEOT_RNSt16remove_referenceIS9_E4typeE, symObjAddr: 0x48C8, symBinAddr: 0x10000D310, symSize: 0x14 }
  - { offsetInCU: 0xCB5F, offset: 0x452A2, size: 0x8, addend: 0x0, symName: __ZNSt6vectorINSt7__cxx1112basic_stringIcSt11char_traitsIcESaIcEEESaIS5_EE21_M_default_initializeEm, symObjAddr: 0x483C, symBinAddr: 0x10000D2C0, symSize: 0x50 }
  - { offsetInCU: 0xCBA2, offset: 0x452E5, size: 0x8, addend: 0x0, symName: __ZNSt6vectorINSt7__cxx1112basic_stringIcSt11char_traitsIcESaIcEEESaIS5_EE17_S_check_init_lenEmRKS6_, symObjAddr: 0x4780, symBinAddr: 0x10000D258, symSize: 0x68 }
  - { offsetInCU: 0xCC58, offset: 0x4539B, size: 0x8, addend: 0x0, symName: __ZN9__gnu_cxx13new_allocatorINSt7__cxx1112basic_stringIcSt11char_traitsIcESaIcEEEEC2Ev, symObjAddr: 0x476C, symBinAddr: 0x10000D244, symSize: 0x14 }
  - { offsetInCU: 0xCC60, offset: 0x453A3, size: 0x8, addend: 0x0, symName: __ZNSt6vectorINSt7__cxx1112basic_stringIcSt11char_traitsIcESaIcEEESaIS5_EE17_S_check_init_lenEmRKS6_, symObjAddr: 0x4780, symBinAddr: 0x10000D258, symSize: 0x68 }
  - { offsetInCU: 0xCC2F, offset: 0x45372, size: 0x8, addend: 0x0, symName: __ZNSt6vectorISt10unique_ptrI15LiteratureEntrySt14default_deleteIS1_EESaIS4_EE15_M_erase_at_endEPS4_, symObjAddr: 0x46F8, symBinAddr: 0x10000D1D0, symSize: 0x74 }
  - { offsetInCU: 0xCC37, offset: 0x4537A, size: 0x8, addend: 0x0, symName: __ZN9__gnu_cxx13new_allocatorINSt7__cxx1112basic_stringIcSt11char_traitsIcESaIcEEEEC2Ev, symObjAddr: 0x476C, symBinAddr: 0x10000D244, symSize: 0x14 }
  - { offsetInCU: 0xCC98, offset: 0x453DB, size: 0x8, addend: 0x0, symName: __ZNSt6vectorISt10unique_ptrI15LiteratureEntrySt14default_deleteIS1_EESaIS4_EE14_M_move_assignEOS6_St17integral_constantIbLb1EE, symObjAddr: 0x4670, symBinAddr: 0x10000D148, symSize: 0x88 }
  - { offsetInCU: 0xCCA0, offset: 0x453E3, size: 0x8, addend: 0x0, symName: __ZNSt6vectorISt10unique_ptrI15LiteratureEntrySt14default_deleteIS1_EESaIS4_EE15_M_erase_at_endEPS4_, symObjAddr: 0x46F8, symBinAddr: 0x10000D1D0, symSize: 0x74 }
  - { offsetInCU: 0xCCFB, offset: 0x4543E, size: 0x8, addend: 0x0, symName: __ZNSt6vectorISt10unique_ptrI15LiteratureEntrySt14default_deleteIS1_EESaIS4_EE12emplace_backIJS4_EEERS4_DpOT_, symObjAddr: 0x45D0, symBinAddr: 0x10000D0A8, symSize: 0xA0 }
  - { offsetInCU: 0xCD03, offset: 0x45446, size: 0x8, addend: 0x0, symName: __ZNSt6vectorISt10unique_ptrI15LiteratureEntrySt14default_deleteIS1_EESaIS4_EE14_M_move_assignEOS6_St17integral_constantIbLb1EE, symObjAddr: 0x4670, symBinAddr: 0x10000D148, symSize: 0x88 }
  - { offsetInCU: 0xCDCF, offset: 0x45512, size: 0x8, addend: 0x0, symName: __ZNSt12_Vector_baseISt10unique_ptrI15LiteratureEntrySt14default_deleteIS1_EESaIS4_EE17_Vector_impl_dataC1Ev, symObjAddr: 0x4514, symBinAddr: 0x10000D07C, symSize: 0x2C }
  - { offsetInCU: 0xCDFD, offset: 0x45540, size: 0x8, addend: 0x0, symName: __ZNSt12_Vector_baseISt10unique_ptrI15LiteratureEntrySt14default_deleteIS1_EESaIS4_EE17_Vector_impl_dataC2Ev, symObjAddr: 0x44E8, symBinAddr: 0x10000D050, symSize: 0x2C }
  - { offsetInCU: 0xCE05, offset: 0x45548, size: 0x8, addend: 0x0, symName: __ZNSt12_Vector_baseISt10unique_ptrI15LiteratureEntrySt14default_deleteIS1_EESaIS4_EE17_Vector_impl_dataC1Ev, symObjAddr: 0x4514, symBinAddr: 0x10000D07C, symSize: 0x2C }
  - { offsetInCU: 0xCE1C, offset: 0x4555F, size: 0x8, addend: 0x0, symName: __ZNSaISt10unique_ptrI15LiteratureEntrySt14default_deleteIS0_EEEC2Ev, symObjAddr: 0x44C8, symBinAddr: 0x10000D030, symSize: 0x20 }
  - { offsetInCU: 0xCE24, offset: 0x45567, size: 0x8, addend: 0x0, symName: __ZNSt12_Vector_baseISt10unique_ptrI15LiteratureEntrySt14default_deleteIS1_EESaIS4_EE17_Vector_impl_dataC2Ev, symObjAddr: 0x44E8, symBinAddr: 0x10000D050, symSize: 0x2C }
  - { offsetInCU: 0xCE06, offset: 0x45549, size: 0x8, addend: 0x0, symName: __ZNK9__gnu_cxx17__normal_iteratorIPKSt10unique_ptrI15LiteratureEntrySt14default_deleteIS2_EESt6vectorIS5_SaIS5_EEE4baseEv, symObjAddr: 0x44B4, symBinAddr: 0x10000D01C, symSize: 0x14 }
  - { offsetInCU: 0xCE0E, offset: 0x45551, size: 0x8, addend: 0x0, symName: __ZNSaISt10unique_ptrI15LiteratureEntrySt14default_deleteIS0_EEEC2Ev, symObjAddr: 0x44C8, symBinAddr: 0x10000D030, symSize: 0x20 }
  - { offsetInCU: 0xCED9, offset: 0x4561C, size: 0x8, addend: 0x0, symName: __ZN9__gnu_cxx17__normal_iteratorIPKSt10unique_ptrI15LiteratureEntrySt14default_deleteIS2_EESt6vectorIS5_SaIS5_EEEC1ERKS7_, symObjAddr: 0x448C, symBinAddr: 0x10000CFF4, symSize: 0x28 }
  - { offsetInCU: 0xCEE1, offset: 0x45624, size: 0x8, addend: 0x0, symName: __ZNK9__gnu_cxx17__normal_iteratorIPKSt10unique_ptrI15LiteratureEntrySt14default_deleteIS2_EESt6vectorIS5_SaIS5_EEE4baseEv, symObjAddr: 0x44B4, symBinAddr: 0x10000D01C, symSize: 0x14 }
  - { offsetInCU: 0xCF2E, offset: 0x45671, size: 0x8, addend: 0x0, symName: __ZNSt12_Vector_baseINSt7__cxx1112basic_stringIcSt11char_traitsIcESaIcEEESaIS5_EE17_Vector_impl_dataC2EOS8_, symObjAddr: 0x441C, symBinAddr: 0x10000CF84, symSize: 0x70 }
  - { offsetInCU: 0xCF36, offset: 0x45679, size: 0x8, addend: 0x0, symName: __ZN9__gnu_cxx17__normal_iteratorIPKSt10unique_ptrI15LiteratureEntrySt14default_deleteIS2_EESt6vectorIS5_SaIS5_EEEC1ERKS7_, symObjAddr: 0x448C, symBinAddr: 0x10000CFF4, symSize: 0x28 }
  - { offsetInCU: 0xD00C, offset: 0x4574F, size: 0x8, addend: 0x0, symName: __ZSt4moveIRNSt12_Vector_baseINSt7__cxx1112basic_stringIcSt11char_traitsIcESaIcEEESaIS6_EE12_Vector_implEEONSt16remove_referenceIT_E4typeEOSC_, symObjAddr: 0x43B8, symBinAddr: 0x10000CF70, symSize: 0x14 }
  - { offsetInCU: 0xCF5B, offset: 0x4569E, size: 0x8, addend: 0x0, symName: __ZNKSt10unique_ptrI15LiteratureEntrySt14default_deleteIS0_EE3getEv, symObjAddr: 0x3A44, symBinAddr: 0x10000CF54, symSize: 0x1C }
  - { offsetInCU: 0xD01F, offset: 0x45762, size: 0x8, addend: 0x0, symName: __ZSt4moveIRSt10unique_ptrI15LiteratureEntrySt14default_deleteIS1_EEEONSt16remove_referenceIT_E4typeEOS7_, symObjAddr: 0x3A30, symBinAddr: 0x10000CF40, symSize: 0x14 }
  - { offsetInCU: 0xD027, offset: 0x4576A, size: 0x8, addend: 0x0, symName: __ZNKSt10unique_ptrI15LiteratureEntrySt14default_deleteIS0_EE3getEv, symObjAddr: 0x3A44, symBinAddr: 0x10000CF54, symSize: 0x1C }
  - { offsetInCU: 0xCFDE, offset: 0x45721, size: 0x8, addend: 0x0, symName: __ZNSt6vectorISt10unique_ptrI15LiteratureEntrySt14default_deleteIS1_EESaIS4_EE5eraseEN9__gnu_cxx17__normal_iteratorIPKS4_S6_EE, symObjAddr: 0x39DC, symBinAddr: 0x10000CEEC, symSize: 0x54 }
  - { offsetInCU: 0xCFE6, offset: 0x45729, size: 0x8, addend: 0x0, symName: __ZSt4moveIRSt10unique_ptrI15LiteratureEntrySt14default_deleteIS1_EEEONSt16remove_referenceIT_E4typeEOS7_, symObjAddr: 0x3A30, symBinAddr: 0x10000CF40, symSize: 0x14 }
  - { offsetInCU: 0xD11D, offset: 0x45860, size: 0x8, addend: 0x0, symName: __ZN9__gnu_cxx17__normal_iteratorIPKSt10unique_ptrI15LiteratureEntrySt14default_deleteIS2_EESt6vectorIS5_SaIS5_EEEC1IPS5_EERKNS0_IT_NS_11__enable_ifIXsrSt10__are_sameISE_SD_E7__valueESA_E6__typeEEE, symObjAddr: 0x39AC, symBinAddr: 0x10000CEBC, symSize: 0x30 }
  - { offsetInCU: 0xD125, offset: 0x45868, size: 0x8, addend: 0x0, symName: __ZNSt6vectorISt10unique_ptrI15LiteratureEntrySt14default_deleteIS1_EESaIS4_EE5eraseEN9__gnu_cxx17__normal_iteratorIPKS4_S6_EE, symObjAddr: 0x39DC, symBinAddr: 0x10000CEEC, symSize: 0x54 }
  - { offsetInCU: 0xD09F, offset: 0x457E2, size: 0x8, addend: 0x0, symName: __ZNK9__gnu_cxx17__normal_iteratorIPSt10unique_ptrI15LiteratureEntrySt14default_deleteIS2_EESt6vectorIS5_SaIS5_EEEplEl, symObjAddr: 0x396C, symBinAddr: 0x10000CE7C, symSize: 0x40 }
  - { offsetInCU: 0xD0A7, offset: 0x457EA, size: 0x8, addend: 0x0, symName: __ZN9__gnu_cxx17__normal_iteratorIPKSt10unique_ptrI15LiteratureEntrySt14default_deleteIS2_EESt6vectorIS5_SaIS5_EEEC1IPS5_EERKNS0_IT_NS_11__enable_ifIXsrSt10__are_sameISE_SD_E7__valueESA_E6__typeEEE, symObjAddr: 0x39AC, symBinAddr: 0x10000CEBC, symSize: 0x30 }
  - { offsetInCU: 0xD0E2, offset: 0x45825, size: 0x8, addend: 0x0, symName: __ZNSt6vectorISt10unique_ptrI15LiteratureEntrySt14default_deleteIS1_EESaIS4_EE5beginEv, symObjAddr: 0x3948, symBinAddr: 0x10000CE58, symSize: 0x24 }
  - { offsetInCU: 0xD0EA, offset: 0x4582D, size: 0x8, addend: 0x0, symName: __ZNK9__gnu_cxx17__normal_iteratorIPSt10unique_ptrI15LiteratureEntrySt14default_deleteIS2_EESt6vectorIS5_SaIS5_EEEplEl, symObjAddr: 0x396C, symBinAddr: 0x10000CE7C, symSize: 0x40 }
  - { offsetInCU: 0xD111, offset: 0x45854, size: 0x8, addend: 0x0, symName: __ZNKSt6vectorISt10unique_ptrI15LiteratureEntrySt14default_deleteIS1_EESaIS4_EE4sizeEv, symObjAddr: 0x3920, symBinAddr: 0x10000CE30, symSize: 0x28 }
  - { offsetInCU: 0xD119, offset: 0x4585C, size: 0x8, addend: 0x0, symName: __ZNSt6vectorISt10unique_ptrI15LiteratureEntrySt14default_deleteIS1_EESaIS4_EE5beginEv, symObjAddr: 0x3948, symBinAddr: 0x10000CE58, symSize: 0x24 }
  - { offsetInCU: 0xD6F1, offset: 0x45E34, size: 0x8, addend: 0x0, symName: __ZSt11make_uniqueI6ThesisJRNSt7__cxx1112basic_stringIcSt11char_traitsIcESaIcEEESt10unique_ptrISt6vectorIS6_SaIS6_EESt14default_deleteISB_EEiS7_SE_EENSt9_MakeUniqIT_E15__single_objectEDpOT0_, symObjAddr: 0x3804, symBinAddr: 0x10000CD14, symSize: 0x11C }
  - { offsetInCU: 0xD6F9, offset: 0x45E3C, size: 0x8, addend: 0x0, symName: __ZNKSt6vectorISt10unique_ptrI15LiteratureEntrySt14default_deleteIS1_EESaIS4_EE4sizeEv, symObjAddr: 0x3920, symBinAddr: 0x10000CE30, symSize: 0x28 }
  - { offsetInCU: 0xD600, offset: 0x45D43, size: 0x8, addend: 0x0, symName: __ZSt11make_uniqueI7JournalJRNSt7__cxx1112basic_stringIcSt11char_traitsIcESaIcEEESt10unique_ptrISt6vectorIS6_SaIS6_EESt14default_deleteISB_EEifS7_iEENSt9_MakeUniqIT_E15__single_objectEDpOT0_, symObjAddr: 0x36C4, symBinAddr: 0x10000CBD4, symSize: 0x140 }
  - { offsetInCU: 0xD608, offset: 0x45D4B, size: 0x8, addend: 0x0, symName: __ZSt11make_uniqueI6ThesisJRNSt7__cxx1112basic_stringIcSt11char_traitsIcESaIcEEESt10unique_ptrISt6vectorIS6_SaIS6_EESt14default_deleteISB_EEiS7_SE_EENSt9_MakeUniqIT_E15__single_objectEDpOT0_, symObjAddr: 0x3804, symBinAddr: 0x10000CD14, symSize: 0x11C }
  - { offsetInCU: 0xD70F, offset: 0x45E52, size: 0x8, addend: 0x0, symName: __ZSt11make_uniqueI4BookJRNSt7__cxx1112basic_stringIcSt11char_traitsIcESaIcEEESt10unique_ptrISt6vectorIS6_SaIS6_EESt14default_deleteISB_EEiS7_S7_fEENSt9_MakeUniqIT_E15__single_objectEDpOT0_, symObjAddr: 0x35A8, symBinAddr: 0x10000CAB8, symSize: 0x11C }
  - { offsetInCU: 0xD717, offset: 0x45E5A, size: 0x8, addend: 0x0, symName: __ZSt11make_uniqueI7JournalJRNSt7__cxx1112basic_stringIcSt11char_traitsIcESaIcEEESt10unique_ptrISt6vectorIS6_SaIS6_EESt14default_deleteISB_EEifS7_iEENSt9_MakeUniqIT_E15__single_objectEDpOT0_, symObjAddr: 0x36C4, symBinAddr: 0x10000CBD4, symSize: 0x140 }
  - { offsetInCU: 0xD5DC, offset: 0x45D1F, size: 0x8, addend: 0x0, symName: __ZSt11make_uniqueISt6vectorINSt7__cxx1112basic_stringIcSt11char_traitsIcESaIcEEESaIS6_EEJS8_EENSt9_MakeUniqIT_E15__single_objectEDpOT0_, symObjAddr: 0x34E8, symBinAddr: 0x10000CA5C, symSize: 0x5C }
  - { offsetInCU: 0xD4AA, offset: 0x45BED, size: 0x8, addend: 0x0, symName: __ZNSt6vectorINSt7__cxx1112basic_stringIcSt11char_traitsIcESaIcEEESaIS5_EEixEm, symObjAddr: 0x34C0, symBinAddr: 0x10000CA34, symSize: 0x28 }
  - { offsetInCU: 0xD4B2, offset: 0x45BF5, size: 0x8, addend: 0x0, symName: __ZSt11make_uniqueISt6vectorINSt7__cxx1112basic_stringIcSt11char_traitsIcESaIcEEESaIS6_EEJS8_EENSt9_MakeUniqIT_E15__single_objectEDpOT0_, symObjAddr: 0x34E8, symBinAddr: 0x10000CA5C, symSize: 0x5C }
  - { offsetInCU: 0xD57B, offset: 0x45CBE, size: 0x8, addend: 0x0, symName: __ZNSt6vectorINSt7__cxx1112basic_stringIcSt11char_traitsIcESaIcEEESaIS5_EEC1EmRKS6_, symObjAddr: 0x3388, symBinAddr: 0x10000C9CC, symSize: 0x68 }
  - { offsetInCU: 0xD5C7, offset: 0x45D0A, size: 0x8, addend: 0x0, symName: __ZNSaINSt7__cxx1112basic_stringIcSt11char_traitsIcESaIcEEEEC1Ev, symObjAddr: 0x3368, symBinAddr: 0x10000C9AC, symSize: 0x20 }
  - { offsetInCU: 0xD5CF, offset: 0x45D12, size: 0x8, addend: 0x0, symName: __ZNSt6vectorINSt7__cxx1112basic_stringIcSt11char_traitsIcESaIcEEESaIS5_EEC1EmRKS6_, symObjAddr: 0x3388, symBinAddr: 0x10000C9CC, symSize: 0x68 }
  - { offsetInCU: 0xD5F5, offset: 0x45D38, size: 0x8, addend: 0x0, symName: __ZNSaINSt7__cxx1112basic_stringIcSt11char_traitsIcESaIcEEEEC2Ev, symObjAddr: 0x3348, symBinAddr: 0x10000C98C, symSize: 0x20 }
  - { offsetInCU: 0xD5FD, offset: 0x45D40, size: 0x8, addend: 0x0, symName: __ZNSaINSt7__cxx1112basic_stringIcSt11char_traitsIcESaIcEEEEC1Ev, symObjAddr: 0x3368, symBinAddr: 0x10000C9AC, symSize: 0x20 }
  - { offsetInCU: 0xD675, offset: 0x45DB8, size: 0x8, addend: 0x0, symName: __ZSteqIcSt11char_traitsIcESaIcEEbRKNSt7__cxx1112basic_stringIT_T0_T1_EEPKS5_, symObjAddr: 0x3318, symBinAddr: 0x10000C95C, symSize: 0x30 }
  - { offsetInCU: 0xD67D, offset: 0x45DC0, size: 0x8, addend: 0x0, symName: __ZNSaINSt7__cxx1112basic_stringIcSt11char_traitsIcESaIcEEEEC2Ev, symObjAddr: 0x3348, symBinAddr: 0x10000C98C, symSize: 0x20 }
  - { offsetInCU: 0xD667, offset: 0x45DAA, size: 0x8, addend: 0x0, symName: __ZNSt6vectorISt10unique_ptrI15LiteratureEntrySt14default_deleteIS1_EESaIS4_EE5clearEv, symObjAddr: 0x32EC, symBinAddr: 0x10000C930, symSize: 0x2C }
  - { offsetInCU: 0xD66F, offset: 0x45DB2, size: 0x8, addend: 0x0, symName: __ZSteqIcSt11char_traitsIcESaIcEEbRKNSt7__cxx1112basic_stringIT_T0_T1_EEPKS5_, symObjAddr: 0x3318, symBinAddr: 0x10000C95C, symSize: 0x30 }
  - { offsetInCU: 0xD696, offset: 0x45DD9, size: 0x8, addend: 0x0, symName: __ZNSt6vectorISt10unique_ptrI15LiteratureEntrySt14default_deleteIS1_EESaIS4_EEaSEOS6_, symObjAddr: 0x32A8, symBinAddr: 0x10000C8EC, symSize: 0x44 }
  - { offsetInCU: 0xD69E, offset: 0x45DE1, size: 0x8, addend: 0x0, symName: __ZNSt6vectorISt10unique_ptrI15LiteratureEntrySt14default_deleteIS1_EESaIS4_EE5clearEv, symObjAddr: 0x32EC, symBinAddr: 0x10000C930, symSize: 0x2C }
  - { offsetInCU: 0xD7A2, offset: 0x45EE5, size: 0x8, addend: 0x0, symName: __ZSt4moveIRSt6vectorISt10unique_ptrI15LiteratureEntrySt14default_deleteIS2_EESaIS5_EEEONSt16remove_referenceIT_E4typeEOSA_, symObjAddr: 0x3294, symBinAddr: 0x10000C8D8, symSize: 0x14 }
  - { offsetInCU: 0xD7AA, offset: 0x45EED, size: 0x8, addend: 0x0, symName: __ZNSt6vectorISt10unique_ptrI15LiteratureEntrySt14default_deleteIS1_EESaIS4_EEaSEOS6_, symObjAddr: 0x32A8, symBinAddr: 0x10000C8EC, symSize: 0x44 }
  - { offsetInCU: 0xD741, offset: 0x45E84, size: 0x8, addend: 0x0, symName: __ZNSt6vectorISt10unique_ptrI15LiteratureEntrySt14default_deleteIS1_EESaIS4_EE9push_backEOS4_, symObjAddr: 0x3264, symBinAddr: 0x10000C8A8, symSize: 0x30 }
  - { offsetInCU: 0xD749, offset: 0x45E8C, size: 0x8, addend: 0x0, symName: __ZSt4moveIRSt6vectorISt10unique_ptrI15LiteratureEntrySt14default_deleteIS2_EESaIS5_EEEONSt16remove_referenceIT_E4typeEOSA_, symObjAddr: 0x3294, symBinAddr: 0x10000C8D8, symSize: 0x14 }
  - { offsetInCU: 0xD784, offset: 0x45EC7, size: 0x8, addend: 0x0, symName: __ZNKSt10unique_ptrI15LiteratureEntrySt14default_deleteIS0_EEcvbEv, symObjAddr: 0x323C, symBinAddr: 0x10000C880, symSize: 0x28 }
  - { offsetInCU: 0xD78C, offset: 0x45ECF, size: 0x8, addend: 0x0, symName: __ZNSt6vectorISt10unique_ptrI15LiteratureEntrySt14default_deleteIS1_EESaIS4_EE9push_backEOS4_, symObjAddr: 0x3264, symBinAddr: 0x10000C8A8, symSize: 0x30 }
  - { offsetInCU: 0xD81E, offset: 0x45F61, size: 0x8, addend: 0x0, symName: __ZNSaISt10unique_ptrI15LiteratureEntrySt14default_deleteIS0_EEED1Ev, symObjAddr: 0x317C, symBinAddr: 0x10000C860, symSize: 0x20 }
  - { offsetInCU: 0xD888, offset: 0x45FCB, size: 0x8, addend: 0x0, symName: __ZNSt12_Vector_baseISt10unique_ptrI15LiteratureEntrySt14default_deleteIS1_EESaIS4_EE12_Vector_implC1Ev, symObjAddr: 0x3134, symBinAddr: 0x10000C838, symSize: 0x28 }
  - { offsetInCU: 0xD84F, offset: 0x45F92, size: 0x8, addend: 0x0, symName: __ZNKSt10unique_ptrI15LiteratureEntrySt14default_deleteIS0_EEdeEv, symObjAddr: 0x3110, symBinAddr: 0x10000C814, symSize: 0x24 }
  - { offsetInCU: 0xD857, offset: 0x45F9A, size: 0x8, addend: 0x0, symName: __ZNSt12_Vector_baseISt10unique_ptrI15LiteratureEntrySt14default_deleteIS1_EESaIS4_EE12_Vector_implC1Ev, symObjAddr: 0x3134, symBinAddr: 0x10000C838, symSize: 0x28 }
  - { offsetInCU: 0xD87E, offset: 0x45FC1, size: 0x8, addend: 0x0, symName: __ZNK9__gnu_cxx17__normal_iteratorIPKSt10unique_ptrI15LiteratureEntrySt14default_deleteIS2_EESt6vectorIS5_SaIS5_EEEdeEv, symObjAddr: 0x30F8, symBinAddr: 0x10000C7FC, symSize: 0x18 }
  - { offsetInCU: 0xD886, offset: 0x45FC9, size: 0x8, addend: 0x0, symName: __ZNKSt10unique_ptrI15LiteratureEntrySt14default_deleteIS0_EEdeEv, symObjAddr: 0x3110, symBinAddr: 0x10000C814, symSize: 0x24 }
  - { offsetInCU: 0xD8AD, offset: 0x45FF0, size: 0x8, addend: 0x0, symName: __ZN9__gnu_cxx17__normal_iteratorIPKSt10unique_ptrI15LiteratureEntrySt14default_deleteIS2_EESt6vectorIS5_SaIS5_EEEppEv, symObjAddr: 0x30D0, symBinAddr: 0x10000C7D4, symSize: 0x28 }
  - { offsetInCU: 0xD8B5, offset: 0x45FF8, size: 0x8, addend: 0x0, symName: __ZNK9__gnu_cxx17__normal_iteratorIPKSt10unique_ptrI15LiteratureEntrySt14default_deleteIS2_EESt6vectorIS5_SaIS5_EEEdeEv, symObjAddr: 0x30F8, symBinAddr: 0x10000C7FC, symSize: 0x18 }
  - { offsetInCU: 0xD9CC, offset: 0x4610F, size: 0x8, addend: 0x0, symName: __ZN9__gnu_cxxneIPKSt10unique_ptrI15LiteratureEntrySt14default_deleteIS2_EESt6vectorIS5_SaIS5_EEEEbRKNS_17__normal_iteratorIT_T0_EESG_, symObjAddr: 0x308C, symBinAddr: 0x10000C790, symSize: 0x44 }
  - { offsetInCU: 0xD9D4, offset: 0x46117, size: 0x8, addend: 0x0, symName: __ZN9__gnu_cxx17__normal_iteratorIPKSt10unique_ptrI15LiteratureEntrySt14default_deleteIS2_EESt6vectorIS5_SaIS5_EEEppEv, symObjAddr: 0x30D0, symBinAddr: 0x10000C7D4, symSize: 0x28 }
  - { offsetInCU: 0xD949, offset: 0x4608C, size: 0x8, addend: 0x0, symName: __ZNKSt6vectorISt10unique_ptrI15LiteratureEntrySt14default_deleteIS1_EESaIS4_EE3endEv, symObjAddr: 0x3064, symBinAddr: 0x10000C768, symSize: 0x28 }
  - { offsetInCU: 0xD951, offset: 0x46094, size: 0x8, addend: 0x0, symName: __ZN9__gnu_cxxneIPKSt10unique_ptrI15LiteratureEntrySt14default_deleteIS2_EESt6vectorIS5_SaIS5_EEEEbRKNS_17__normal_iteratorIT_T0_EESG_, symObjAddr: 0x308C, symBinAddr: 0x10000C790, symSize: 0x44 }
  - { offsetInCU: 0xD978, offset: 0x460BB, size: 0x8, addend: 0x0, symName: __ZNKSt6vectorISt10unique_ptrI15LiteratureEntrySt14default_deleteIS1_EESaIS4_EE5beginEv, symObjAddr: 0x3040, symBinAddr: 0x10000C744, symSize: 0x24 }
  - { offsetInCU: 0xD980, offset: 0x460C3, size: 0x8, addend: 0x0, symName: __ZNKSt6vectorISt10unique_ptrI15LiteratureEntrySt14default_deleteIS1_EESaIS4_EE3endEv, symObjAddr: 0x3064, symBinAddr: 0x10000C768, symSize: 0x28 }
  - { offsetInCU: 0xDA37, offset: 0x4617A, size: 0x8, addend: 0x0, symName: __ZNSt12_Vector_baseINSt7__cxx1112basic_stringIcSt11char_traitsIcESaIcEEESaIS5_EE12_Vector_implC1EOS8_, symObjAddr: 0x2FF0, symBinAddr: 0x10000C6F4, symSize: 0x50 }
  - { offsetInCU: 0xDA3F, offset: 0x46182, size: 0x8, addend: 0x0, symName: __ZNKSt6vectorISt10unique_ptrI15LiteratureEntrySt14default_deleteIS1_EESaIS4_EE5beginEv, symObjAddr: 0x3040, symBinAddr: 0x10000C744, symSize: 0x24 }
  - { offsetInCU: 0xDB59, offset: 0x4629C, size: 0x8, addend: 0x0, symName: __ZNSt12_Vector_baseINSt7__cxx1112basic_stringIcSt11char_traitsIcESaIcEEESaIS5_EE12_Vector_implC1Ev, symObjAddr: 0x2E68, symBinAddr: 0x10000C6CC, symSize: 0x28 }
  - { offsetInCU: 0xDB24, offset: 0x46267, size: 0x8, addend: 0x0, symName: __ZNKSt10unique_ptrI15LiteratureEntrySt14default_deleteIS0_EEptEv, symObjAddr: 0x2E4C, symBinAddr: 0x10000C6B0, symSize: 0x1C }
  - { offsetInCU: 0xDB2C, offset: 0x4626F, size: 0x8, addend: 0x0, symName: __ZNSt12_Vector_baseINSt7__cxx1112basic_stringIcSt11char_traitsIcESaIcEEESaIS5_EE12_Vector_implC1Ev, symObjAddr: 0x2E68, symBinAddr: 0x10000C6CC, symSize: 0x28 }
  - { offsetInCU: 0xDB53, offset: 0x46296, size: 0x8, addend: 0x0, symName: __ZNSt6vectorISt10unique_ptrI15LiteratureEntrySt14default_deleteIS1_EESaIS4_EEixEm, symObjAddr: 0x2E24, symBinAddr: 0x10000C688, symSize: 0x28 }
  - { offsetInCU: 0xDB5B, offset: 0x4629E, size: 0x8, addend: 0x0, symName: __ZNKSt10unique_ptrI15LiteratureEntrySt14default_deleteIS0_EEptEv, symObjAddr: 0x2E4C, symBinAddr: 0x10000C6B0, symSize: 0x1C }
  - { offsetInCU: 0xDBDB, offset: 0x4631E, size: 0x8, addend: 0x0, symName: __ZSt7forwardIiEOT_RNSt16remove_referenceIS0_E4typeE, symObjAddr: 0x2874, symBinAddr: 0x10000C674, symSize: 0x14 }
  - { offsetInCU: 0xDC3B, offset: 0x4637E, size: 0x8, addend: 0x0, symName: __ZN9__gnu_cxx6__stoaIffcJEEET0_PFT_PKT1_PPS3_DpT2_EPKcS5_PmS9_, symObjAddr: 0x26C4, symBinAddr: 0x10000C574, symSize: 0x100 }
  - { offsetInCU: 0xDDB9, offset: 0x464FC, size: 0x8, addend: 0x0, symName: __ZZN9__gnu_cxx6__stoaIffcJEEET0_PFT_PKT1_PPS3_DpT2_EPKcS5_PmS9_EN11_Save_errnoC1Ev, symObjAddr: 0x2630, symBinAddr: 0x10000C4E0, symSize: 0x30 }
  - { offsetInCU: 0xDDC1, offset: 0x46504, size: 0x8, addend: 0x0, symName: __ZZN9__gnu_cxx6__stoaIffcJEEET0_PFT_PKT1_PPS3_DpT2_EPKcS5_PmS9_EN11_Save_errnoD1Ev, symObjAddr: 0x2660, symBinAddr: 0x10000C510, symSize: 0x4C }
  - { offsetInCU: 0xDDE8, offset: 0x4652B, size: 0x8, addend: 0x0, symName: __ZZN9__gnu_cxx6__stoaIffcJEEET0_PFT_PKT1_PPS3_DpT2_EPKcS5_PmS9_EN11_Save_errnoD1Ev, symObjAddr: 0x2660, symBinAddr: 0x10000C510, symSize: 0x4C }
  - { offsetInCU: 0xDDF0, offset: 0x46533, size: 0x8, addend: 0x0, symName: __ZZN9__gnu_cxx6__stoaIffcJEEET0_PFT_PKT1_PPS3_DpT2_EPKcS5_PmS9_EN10_Range_chk6_S_chkEfSt17integral_constantIbLb0EE, symObjAddr: 0x26AC, symBinAddr: 0x10000C55C, symSize: 0x18 }
  - { offsetInCU: 0xDE5B, offset: 0x4659E, size: 0x8, addend: 0x0, symName: __ZZN9__gnu_cxx6__stoaIffcJEEET0_PFT_PKT1_PPS3_DpT2_EPKcS5_PmS9_EN10_Range_chk6_S_chkEfSt17integral_constantIbLb0EE, symObjAddr: 0x26AC, symBinAddr: 0x10000C55C, symSize: 0x18 }
  - { offsetInCU: 0xDE63, offset: 0x465A6, size: 0x8, addend: 0x0, symName: __ZN9__gnu_cxx6__stoaIffcJEEET0_PFT_PKT1_PPS3_DpT2_EPKcS5_PmS9_, symObjAddr: 0x26C4, symBinAddr: 0x10000C574, symSize: 0x100 }
  - { offsetInCU: 0xDEF4, offset: 0x46637, size: 0x8, addend: 0x0, symName: __ZN9__gnu_cxx6__stoaIlicJiEEET0_PFT_PKT1_PPS3_DpT2_EPKcS5_PmS9_, symObjAddr: 0x2530, symBinAddr: 0x10000C3E0, symSize: 0x100 }
  - { offsetInCU: 0xDEFC, offset: 0x4663F, size: 0x8, addend: 0x0, symName: __ZZN9__gnu_cxx6__stoaIffcJEEET0_PFT_PKT1_PPS3_DpT2_EPKcS5_PmS9_EN11_Save_errnoC1Ev, symObjAddr: 0x2630, symBinAddr: 0x10000C4E0, symSize: 0x30 }
  - { offsetInCU: 0xE072, offset: 0x467B5, size: 0x8, addend: 0x0, symName: __ZZN9__gnu_cxx6__stoaIlicJiEEET0_PFT_PKT1_PPS3_DpT2_EPKcS5_PmS9_EN11_Save_errnoC1Ev, symObjAddr: 0x2474, symBinAddr: 0x10000C324, symSize: 0x30 }
  - { offsetInCU: 0xE07A, offset: 0x467BD, size: 0x8, addend: 0x0, symName: __ZZN9__gnu_cxx6__stoaIlicJiEEET0_PFT_PKT1_PPS3_DpT2_EPKcS5_PmS9_EN11_Save_errnoD1Ev, symObjAddr: 0x24A4, symBinAddr: 0x10000C354, symSize: 0x4C }
  - { offsetInCU: 0xE0A1, offset: 0x467E4, size: 0x8, addend: 0x0, symName: __ZZN9__gnu_cxx6__stoaIlicJiEEET0_PFT_PKT1_PPS3_DpT2_EPKcS5_PmS9_EN11_Save_errnoD1Ev, symObjAddr: 0x24A4, symBinAddr: 0x10000C354, symSize: 0x4C }
  - { offsetInCU: 0xE0A9, offset: 0x467EC, size: 0x8, addend: 0x0, symName: __ZZN9__gnu_cxx6__stoaIlicJiEEET0_PFT_PKT1_PPS3_DpT2_EPKcS5_PmS9_EN10_Range_chk6_S_chkElSt17integral_constantIbLb1EE, symObjAddr: 0x24F0, symBinAddr: 0x10000C3A0, symSize: 0x40 }
  - { offsetInCU: 0xE13D, offset: 0x46880, size: 0x8, addend: 0x0, symName: __ZZN9__gnu_cxx6__stoaIlicJiEEET0_PFT_PKT1_PPS3_DpT2_EPKcS5_PmS9_EN10_Range_chk6_S_chkElSt17integral_constantIbLb1EE, symObjAddr: 0x24F0, symBinAddr: 0x10000C3A0, symSize: 0x40 }
  - { offsetInCU: 0xE145, offset: 0x46888, size: 0x8, addend: 0x0, symName: __ZN9__gnu_cxx6__stoaIlicJiEEET0_PFT_PKT1_PPS3_DpT2_EPKcS5_PmS9_, symObjAddr: 0x2530, symBinAddr: 0x10000C3E0, symSize: 0x100 }
  - { offsetInCU: 0xE150, offset: 0x46893, size: 0x8, addend: 0x0, symName: __ZN18LiteratureDatabase22get_average_book_priceEv, symObjAddr: 0x22DC, symBinAddr: 0x10000C214, symSize: 0x110 }
  - { offsetInCU: 0xE1CE, offset: 0x46911, size: 0x8, addend: 0x0, symName: __ZN18LiteratureDatabase17remove_supervisorEiNSt7__cxx1112basic_stringIcSt11char_traitsIcESaIcEEE, symObjAddr: 0x2224, symBinAddr: 0x10000C15C, symSize: 0xB8 }
  - { offsetInCU: 0xE1D6, offset: 0x46919, size: 0x8, addend: 0x0, symName: __ZN18LiteratureDatabase22get_average_book_priceEv, symObjAddr: 0x22DC, symBinAddr: 0x10000C214, symSize: 0x110 }
  - { offsetInCU: 0xE228, offset: 0x4696B, size: 0x8, addend: 0x0, symName: __ZN18LiteratureDatabase14add_supervisorEiNSt7__cxx1112basic_stringIcSt11char_traitsIcESaIcEEE, symObjAddr: 0x216C, symBinAddr: 0x10000C0A4, symSize: 0xB8 }
  - { offsetInCU: 0xE230, offset: 0x46973, size: 0x8, addend: 0x0, symName: __ZN18LiteratureDatabase17remove_supervisorEiNSt7__cxx1112basic_stringIcSt11char_traitsIcESaIcEEE, symObjAddr: 0x2224, symBinAddr: 0x10000C15C, symSize: 0xB8 }
  - { offsetInCU: 0xE282, offset: 0x469C5, size: 0x8, addend: 0x0, symName: __ZN18LiteratureDatabase14set_universityEiNSt7__cxx1112basic_stringIcSt11char_traitsIcESaIcEEE, symObjAddr: 0x20B4, symBinAddr: 0x10000BFEC, symSize: 0xB8 }
  - { offsetInCU: 0xE28A, offset: 0x469CD, size: 0x8, addend: 0x0, symName: __ZN18LiteratureDatabase14add_supervisorEiNSt7__cxx1112basic_stringIcSt11char_traitsIcESaIcEEE, symObjAddr: 0x216C, symBinAddr: 0x10000C0A4, symSize: 0xB8 }
  - { offsetInCU: 0xE2DC, offset: 0x46A1F, size: 0x8, addend: 0x0, symName: __ZN18LiteratureDatabase18set_number_volumesEii, symObjAddr: 0x1FFC, symBinAddr: 0x10000BF34, symSize: 0xB8 }
  - { offsetInCU: 0xE2E4, offset: 0x46A27, size: 0x8, addend: 0x0, symName: __ZN18LiteratureDatabase14set_universityEiNSt7__cxx1112basic_stringIcSt11char_traitsIcESaIcEEE, symObjAddr: 0x20B4, symBinAddr: 0x10000BFEC, symSize: 0xB8 }
  - { offsetInCU: 0xE335, offset: 0x46A78, size: 0x8, addend: 0x0, symName: __ZN18LiteratureDatabase9set_scopeEiNSt7__cxx1112basic_stringIcSt11char_traitsIcESaIcEEE, symObjAddr: 0x1F0C, symBinAddr: 0x10000BE44, symSize: 0xF0 }
  - { offsetInCU: 0xE33D, offset: 0x46A80, size: 0x8, addend: 0x0, symName: __ZN18LiteratureDatabase18set_number_volumesEii, symObjAddr: 0x1FFC, symBinAddr: 0x10000BF34, symSize: 0xB8 }
  - { offsetInCU: 0xE392, offset: 0x46AD5, size: 0x8, addend: 0x0, symName: __ZN18LiteratureDatabase17set_impact_factorEif, symObjAddr: 0x1E54, symBinAddr: 0x10000BD8C, symSize: 0xB8 }
  - { offsetInCU: 0xE39A, offset: 0x46ADD, size: 0x8, addend: 0x0, symName: __ZN18LiteratureDatabase9set_scopeEiNSt7__cxx1112basic_stringIcSt11char_traitsIcESaIcEEE, symObjAddr: 0x1F0C, symBinAddr: 0x10000BE44, symSize: 0xF0 }
  - { offsetInCU: 0xE3EB, offset: 0x46B2E, size: 0x8, addend: 0x0, symName: __ZN18LiteratureDatabase9set_priceEif, symObjAddr: 0x1D9C, symBinAddr: 0x10000BCD4, symSize: 0xB8 }
  - { offsetInCU: 0xE3F3, offset: 0x46B36, size: 0x8, addend: 0x0, symName: __ZN18LiteratureDatabase17set_impact_factorEif, symObjAddr: 0x1E54, symBinAddr: 0x10000BD8C, symSize: 0xB8 }
  - { offsetInCU: 0xE444, offset: 0x46B87, size: 0x8, addend: 0x0, symName: __ZN18LiteratureDatabase11set_subjectEiNSt7__cxx1112basic_stringIcSt11char_traitsIcESaIcEEE, symObjAddr: 0x1CE4, symBinAddr: 0x10000BC1C, symSize: 0xB8 }
  - { offsetInCU: 0xE44C, offset: 0x46B8F, size: 0x8, addend: 0x0, symName: __ZN18LiteratureDatabase9set_priceEif, symObjAddr: 0x1D9C, symBinAddr: 0x10000BCD4, symSize: 0xB8 }
  - { offsetInCU: 0xE49E, offset: 0x46BE1, size: 0x8, addend: 0x0, symName: __ZN18LiteratureDatabase13set_publisherEiNSt7__cxx1112basic_stringIcSt11char_traitsIcESaIcEEE, symObjAddr: 0x1C2C, symBinAddr: 0x10000BB64, symSize: 0xB8 }
  - { offsetInCU: 0xE4A6, offset: 0x46BE9, size: 0x8, addend: 0x0, symName: __ZN18LiteratureDatabase11set_subjectEiNSt7__cxx1112basic_stringIcSt11char_traitsIcESaIcEEE, symObjAddr: 0x1CE4, symBinAddr: 0x10000BC1C, symSize: 0xB8 }
  - { offsetInCU: 0xE4F8, offset: 0x46C3B, size: 0x8, addend: 0x0, symName: __ZN18LiteratureDatabase12insert_entryESt10unique_ptrI15LiteratureEntrySt14default_deleteIS1_EE, symObjAddr: 0x1BC8, symBinAddr: 0x10000BB00, symSize: 0x64 }
  - { offsetInCU: 0xE500, offset: 0x46C43, size: 0x8, addend: 0x0, symName: __ZN18LiteratureDatabase13set_publisherEiNSt7__cxx1112basic_stringIcSt11char_traitsIcESaIcEEE, symObjAddr: 0x1C2C, symBinAddr: 0x10000BB64, symSize: 0xB8 }
  - { offsetInCU: 0xE53F, offset: 0x46C82, size: 0x8, addend: 0x0, symName: __ZN18LiteratureDatabase12remove_entryEi, symObjAddr: 0x1AAC, symBinAddr: 0x10000B9E4, symSize: 0x11C }
  - { offsetInCU: 0xE547, offset: 0x46C8A, size: 0x8, addend: 0x0, symName: __ZN18LiteratureDatabase12insert_entryESt10unique_ptrI15LiteratureEntrySt14default_deleteIS1_EE, symObjAddr: 0x1BC8, symBinAddr: 0x10000BB00, symSize: 0x64 }
  - { offsetInCU: 0xE765, offset: 0x46EA8, size: 0x8, addend: 0x0, symName: __ZN18LiteratureDatabaseC1ERKNSt7__cxx1112basic_stringIcSt11char_traitsIcESaIcEEE, symObjAddr: 0x12E8, symBinAddr: 0x10000B220, symSize: 0x7C4 }
  - { offsetInCU: 0xE76D, offset: 0x46EB0, size: 0x8, addend: 0x0, symName: __ZN18LiteratureDatabase12remove_entryEi, symObjAddr: 0x1AAC, symBinAddr: 0x10000B9E4, symSize: 0x11C }
  - { offsetInCU: 0xEA65, offset: 0x471A8, size: 0x8, addend: 0x0, symName: __ZN18LiteratureDatabaseC2ERKNSt7__cxx1112basic_stringIcSt11char_traitsIcESaIcEEE, symObjAddr: 0xB24, symBinAddr: 0x10000AA5C, symSize: 0x7C4 }
  - { offsetInCU: 0xEA6D, offset: 0x471B0, size: 0x8, addend: 0x0, symName: __ZN18LiteratureDatabaseC1ERKNSt7__cxx1112basic_stringIcSt11char_traitsIcESaIcEEE, symObjAddr: 0x12E8, symBinAddr: 0x10000B220, symSize: 0x7C4 }
  - { offsetInCU: 0xED17, offset: 0x4745A, size: 0x8, addend: 0x0, symName: __ZN18LiteratureDatabaseaSEOS_, symObjAddr: 0xADC, symBinAddr: 0x10000AA14, symSize: 0x48 }
  - { offsetInCU: 0xED1F, offset: 0x47462, size: 0x8, addend: 0x0, symName: __ZN18LiteratureDatabaseC2ERKNSt7__cxx1112basic_stringIcSt11char_traitsIcESaIcEEE, symObjAddr: 0xB24, symBinAddr: 0x10000AA5C, symSize: 0x7C4 }
  - { offsetInCU: 0xED5D, offset: 0x474A0, size: 0x8, addend: 0x0, symName: __ZN18LiteratureDatabaseaSERKS_, symObjAddr: 0x9E8, symBinAddr: 0x10000A920, symSize: 0xF4 }
  - { offsetInCU: 0xED65, offset: 0x474A8, size: 0x8, addend: 0x0, symName: __ZN18LiteratureDatabaseaSEOS_, symObjAddr: 0xADC, symBinAddr: 0x10000AA14, symSize: 0x48 }
  - { offsetInCU: 0xEE46, offset: 0x47589, size: 0x8, addend: 0x0, symName: __ZN18LiteratureDatabaseC1EOS_, symObjAddr: 0x9A8, symBinAddr: 0x10000A8E0, symSize: 0x40 }
  - { offsetInCU: 0xEE4E, offset: 0x47591, size: 0x8, addend: 0x0, symName: __ZN18LiteratureDatabaseaSERKS_, symObjAddr: 0x9E8, symBinAddr: 0x10000A920, symSize: 0xF4 }
  - { offsetInCU: 0xEE80, offset: 0x475C3, size: 0x8, addend: 0x0, symName: __ZN18LiteratureDatabaseC2EOS_, symObjAddr: 0x968, symBinAddr: 0x10000A8A0, symSize: 0x40 }
  - { offsetInCU: 0xEE88, offset: 0x475CB, size: 0x8, addend: 0x0, symName: __ZN18LiteratureDatabaseC1EOS_, symObjAddr: 0x9A8, symBinAddr: 0x10000A8E0, symSize: 0x40 }
  - { offsetInCU: 0xEF27, offset: 0x4766A, size: 0x8, addend: 0x0, symName: __ZN18LiteratureDatabaseC1ERKS_, symObjAddr: 0x878, symBinAddr: 0x10000A7B0, symSize: 0xF0 }
  - { offsetInCU: 0xEF2F, offset: 0x47672, size: 0x8, addend: 0x0, symName: __ZN18LiteratureDatabaseC2EOS_, symObjAddr: 0x968, symBinAddr: 0x10000A8A0, symSize: 0x40 }
  - { offsetInCU: 0xEFD9, offset: 0x4771C, size: 0x8, addend: 0x0, symName: __ZN18LiteratureDatabaseC2ERKS_, symObjAddr: 0x788, symBinAddr: 0x10000A6C0, symSize: 0xF0 }
  - { offsetInCU: 0xEFE1, offset: 0x47724, size: 0x8, addend: 0x0, symName: __ZN18LiteratureDatabaseC1ERKS_, symObjAddr: 0x878, symBinAddr: 0x10000A7B0, symSize: 0xF0 }
  - { offsetInCU: 0xF0D7, offset: 0x4781A, size: 0x8, addend: 0x0, symName: __ZNSt6vectorISt10unique_ptrI15LiteratureEntrySt14default_deleteIS1_EESaIS4_EEC1Ev, symObjAddr: 0x768, symBinAddr: 0x10000A6A0, symSize: 0x20 }
  - { offsetInCU: 0xF0DF, offset: 0x47822, size: 0x8, addend: 0x0, symName: __ZN18LiteratureDatabaseC2ERKS_, symObjAddr: 0x788, symBinAddr: 0x10000A6C0, symSize: 0xF0 }
  - { offsetInCU: 0xF125, offset: 0x47868, size: 0x8, addend: 0x0, symName: __ZNSt12_Vector_baseISt10unique_ptrI15LiteratureEntrySt14default_deleteIS1_EESaIS4_EEC2Ev, symObjAddr: 0x748, symBinAddr: 0x10000A680, symSize: 0x20 }
  - { offsetInCU: 0xF12D, offset: 0x47870, size: 0x8, addend: 0x0, symName: __ZNSt6vectorISt10unique_ptrI15LiteratureEntrySt14default_deleteIS1_EESaIS4_EEC1Ev, symObjAddr: 0x768, symBinAddr: 0x10000A6A0, symSize: 0x20 }
  - { offsetInCU: 0xF0FD, offset: 0x47840, size: 0x8, addend: 0x0, symName: __ZNK18LiteratureDatabase23print_condition_entriesEPFbRK15LiteratureEntryNSt7__cxx1112basic_stringIcSt11char_traitsIcESaIcEEEES8_, symObjAddr: 0x5F8, symBinAddr: 0x10000A550, symSize: 0x130 }
  - { offsetInCU: 0xF1C9, offset: 0x4790C, size: 0x8, addend: 0x0, symName: __ZNK18LiteratureDatabase17print_all_entriesEv, symObjAddr: 0x528, symBinAddr: 0x10000A480, symSize: 0xD0 }
  - { offsetInCU: 0xF1D1, offset: 0x47914, size: 0x8, addend: 0x0, symName: __ZNK18LiteratureDatabase23print_condition_entriesEPFbRK15LiteratureEntryNSt7__cxx1112basic_stringIcSt11char_traitsIcESaIcEEEES8_, symObjAddr: 0x5F8, symBinAddr: 0x10000A550, symSize: 0x130 }
  - { offsetInCU: 0xF26A, offset: 0x479AD, size: 0x8, addend: 0x0, symName: __ZN18LiteratureDatabase5splitERKNSt7__cxx1112basic_stringIcSt11char_traitsIcESaIcEEEc, symObjAddr: 0x458, symBinAddr: 0x10000A3B0, symSize: 0xD0 }
  - { offsetInCU: 0xF272, offset: 0x479B5, size: 0x8, addend: 0x0, symName: __ZNK18LiteratureDatabase17print_all_entriesEv, symObjAddr: 0x528, symBinAddr: 0x10000A480, symSize: 0xD0 }
  - { offsetInCU: 0xF36E, offset: 0x47AB1, size: 0x8, addend: 0x0, symName: __ZNSt6vectorINSt7__cxx1112basic_stringIcSt11char_traitsIcESaIcEEESaIS5_EEC1EOS7_, symObjAddr: 0x430, symBinAddr: 0x10000A388, symSize: 0x28 }
  - { offsetInCU: 0xF376, offset: 0x47AB9, size: 0x8, addend: 0x0, symName: __ZN18LiteratureDatabase5splitERKNSt7__cxx1112basic_stringIcSt11char_traitsIcESaIcEEEc, symObjAddr: 0x458, symBinAddr: 0x10000A3B0, symSize: 0xD0 }
  - { offsetInCU: 0xF3D1, offset: 0x47B14, size: 0x8, addend: 0x0, symName: __ZNSt12_Vector_baseINSt7__cxx1112basic_stringIcSt11char_traitsIcESaIcEEESaIS5_EEC2EOS7_, symObjAddr: 0x408, symBinAddr: 0x10000A360, symSize: 0x28 }
  - { offsetInCU: 0xF3D9, offset: 0x47B1C, size: 0x8, addend: 0x0, symName: __ZNSt6vectorINSt7__cxx1112basic_stringIcSt11char_traitsIcESaIcEEESaIS5_EEC1EOS7_, symObjAddr: 0x430, symBinAddr: 0x10000A388, symSize: 0x28 }
  - { offsetInCU: 0xF41A, offset: 0x47B5D, size: 0x8, addend: 0x0, symName: __ZNSt6vectorINSt7__cxx1112basic_stringIcSt11char_traitsIcESaIcEEESaIS5_EEC1Ev, symObjAddr: 0x3E8, symBinAddr: 0x10000A340, symSize: 0x20 }
  - { offsetInCU: 0xF422, offset: 0x47B65, size: 0x8, addend: 0x0, symName: __ZNSt12_Vector_baseINSt7__cxx1112basic_stringIcSt11char_traitsIcESaIcEEESaIS5_EEC2EOS7_, symObjAddr: 0x408, symBinAddr: 0x10000A360, symSize: 0x28 }
  - { offsetInCU: 0xF468, offset: 0x47BAB, size: 0x8, addend: 0x0, symName: __ZNSt12_Vector_baseINSt7__cxx1112basic_stringIcSt11char_traitsIcESaIcEEESaIS5_EEC2Ev, symObjAddr: 0x3C8, symBinAddr: 0x10000A320, symSize: 0x20 }
  - { offsetInCU: 0xF470, offset: 0x47BB3, size: 0x8, addend: 0x0, symName: __ZNSt6vectorINSt7__cxx1112basic_stringIcSt11char_traitsIcESaIcEEESaIS5_EEC1Ev, symObjAddr: 0x3E8, symBinAddr: 0x10000A340, symSize: 0x20 }
  - { offsetInCU: 0xF441, offset: 0x47B84, size: 0x8, addend: 0x0, symName: __ZN6Thesis14set_universityERKNSt7__cxx1112basic_stringIcSt11char_traitsIcESaIcEEE, symObjAddr: 0x37C, symBinAddr: 0x10000A2F4, symSize: 0x2C }
  - { offsetInCU: 0xF483, offset: 0x47BC6, size: 0x8, addend: 0x0, symName: __ZN7Journal18set_number_volumesEi, symObjAddr: 0x2E4, symBinAddr: 0x10000A25C, symSize: 0x98 }
  - { offsetInCU: 0xF48B, offset: 0x47BCE, size: 0x8, addend: 0x0, symName: __ZN6Thesis14set_universityERKNSt7__cxx1112basic_stringIcSt11char_traitsIcESaIcEEE, symObjAddr: 0x37C, symBinAddr: 0x10000A2F4, symSize: 0x2C }
  - { offsetInCU: 0xF4C5, offset: 0x47C08, size: 0x8, addend: 0x0, symName: __ZN7Journal9set_scopeENSt7__cxx1112basic_stringIcSt11char_traitsIcESaIcEEE, symObjAddr: 0x2B8, symBinAddr: 0x10000A230, symSize: 0x2C }
  - { offsetInCU: 0xF4CD, offset: 0x47C10, size: 0x8, addend: 0x0, symName: __ZN7Journal18set_number_volumesEi, symObjAddr: 0x2E4, symBinAddr: 0x10000A25C, symSize: 0x98 }
  - { offsetInCU: 0xF508, offset: 0x47C4B, size: 0x8, addend: 0x0, symName: __ZN7Journal17set_impact_factorEf, symObjAddr: 0x228, symBinAddr: 0x10000A1A0, symSize: 0x90 }
  - { offsetInCU: 0xF510, offset: 0x47C53, size: 0x8, addend: 0x0, symName: __ZN7Journal9set_scopeENSt7__cxx1112basic_stringIcSt11char_traitsIcESaIcEEE, symObjAddr: 0x2B8, symBinAddr: 0x10000A230, symSize: 0x2C }
  - { offsetInCU: 0xF54A, offset: 0x47C8D, size: 0x8, addend: 0x0, symName: __ZN4Book9set_priceEf, symObjAddr: 0x198, symBinAddr: 0x10000A110, symSize: 0x90 }
  - { offsetInCU: 0xF552, offset: 0x47C95, size: 0x8, addend: 0x0, symName: __ZN7Journal17set_impact_factorEf, symObjAddr: 0x228, symBinAddr: 0x10000A1A0, symSize: 0x90 }
  - { offsetInCU: 0xF58C, offset: 0x47CCF, size: 0x8, addend: 0x0, symName: __ZN4Book11set_subjectERKNSt7__cxx1112basic_stringIcSt11char_traitsIcESaIcEEE, symObjAddr: 0x16C, symBinAddr: 0x10000A0E4, symSize: 0x2C }
  - { offsetInCU: 0xF594, offset: 0x47CD7, size: 0x8, addend: 0x0, symName: __ZN4Book9set_priceEf, symObjAddr: 0x198, symBinAddr: 0x10000A110, symSize: 0x90 }
  - { offsetInCU: 0xF5CE, offset: 0x47D11, size: 0x8, addend: 0x0, symName: __ZN4Book13set_publisherERKNSt7__cxx1112basic_stringIcSt11char_traitsIcESaIcEEE, symObjAddr: 0x140, symBinAddr: 0x10000A0B8, symSize: 0x2C }
  - { offsetInCU: 0xF5D6, offset: 0x47D19, size: 0x8, addend: 0x0, symName: __ZN4Book11set_subjectERKNSt7__cxx1112basic_stringIcSt11char_traitsIcESaIcEEE, symObjAddr: 0x16C, symBinAddr: 0x10000A0E4, symSize: 0x2C }
  - { offsetInCU: 0xF623, offset: 0x47D66, size: 0x8, addend: 0x0, symName: __ZNK4Book9get_priceEv, symObjAddr: 0x128, symBinAddr: 0x10000A0A0, symSize: 0x18 }
  - { offsetInCU: 0xF62B, offset: 0x47D6E, size: 0x8, addend: 0x0, symName: __ZN4Book13set_publisherERKNSt7__cxx1112basic_stringIcSt11char_traitsIcESaIcEEE, symObjAddr: 0x140, symBinAddr: 0x10000A0B8, symSize: 0x2C }
  - { offsetInCU: 0xF6A0, offset: 0x47DE3, size: 0x8, addend: 0x0, symName: __ZNSt7__cxx114stofERKNS_12basic_stringIcSt11char_traitsIcESaIcEEEPm, symObjAddr: 0xB4, symBinAddr: 0x10000A064, symSize: 0x3C }
  - { offsetInCU: 0xF6F4, offset: 0x47E37, size: 0x8, addend: 0x0, symName: __ZNSt7__cxx114stoiERKNS_12basic_stringIcSt11char_traitsIcESaIcEEEPmi, symObjAddr: 0x70, symBinAddr: 0x10000A020, symSize: 0x44 }
  - { offsetInCU: 0xF6FC, offset: 0x47E3F, size: 0x8, addend: 0x0, symName: __ZNSt7__cxx114stofERKNS_12basic_stringIcSt11char_traitsIcESaIcEEEPm, symObjAddr: 0xB4, symBinAddr: 0x10000A064, symSize: 0x3C }
...
